(dp1
S'output'
p2
S"<type 'exceptions.IndentationError'> unexpected indent (contact.py, line 4)"
p3
sS'layer'
p4
S'/home/rsoutelino/web2py/applications/rsoutelino/controllers/contact.py'
p5
sS'code'
p6
S'\ndef contact():\n    form = SQLFORM(db.contacts)\n\tif form.process(request.args(0)).accepted:\n        message = "%s %s %s" %(forms.vars.name, forms.vars.email, forms.vars.commentary)\n        mail.send(to="rsoutelino@gmail.com", subject="You received a message through rsoutelino.com", reply_to=form.vars.email, message=message)\n        response.flash="success"\n    else:\n        response.flash="try again"\n\treturn dict(form=form)\nresponse._vars=response._caller(contact)\n'
p7
sS'snapshot'
p8
(dp9
S'exception'
p10
(dp11
S'__getslice__'
p12
S"<method-wrapper '__getslice__' of exceptions.IndentationError object>"
p13
sS'text'
p14
S"'\\tif form.process(request.args(0)).accepted:\\n'"
p15
sS'__str__'
p16
S"<method-wrapper '__str__' of exceptions.IndentationError object>"
p17
sS'__reduce__'
p18
S'<built-in method __reduce__ of exceptions.IndentationError object>'
p19
sS'__dict__'
p20
S'{}'
p21
sS'__sizeof__'
p22
S'<built-in method __sizeof__ of exceptions.IndentationError object>'
p23
sS'__init__'
p24
S"<method-wrapper '__init__' of exceptions.IndentationError object>"
p25
sS'__setattr__'
p26
S"<method-wrapper '__setattr__' of exceptions.IndentationError object>"
p27
sS'__reduce_ex__'
p28
S'<built-in method __reduce_ex__ of exceptions.IndentationError object>'
p29
sS'__new__'
p30
S'<built-in method __new__ of type object>'
p31
sS'__format__'
p32
S'<built-in method __format__ of exceptions.IndentationError object>'
p33
sS'__class__'
p34
S"<type 'exceptions.IndentationError'>"
p35
sS'filename'
p36
S"'/home/rsoutelino/web2py/applications/rsoutelino/controllers/contact.py'"
p37
sS'lineno'
p38
S'4'
sS'msg'
p39
S"'unexpected indent'"
p40
sS'__doc__'
p41
S"'Improper indentation.'"
p42
sS'__getitem__'
p43
S"<method-wrapper '__getitem__' of exceptions.IndentationError object>"
p44
sS'__setstate__'
p45
S'<built-in method __setstate__ of exceptions.IndentationError object>'
p46
sS'__getattribute__'
p47
S"<method-wrapper '__getattribute__' of exceptions.IndentationError object>"
p48
sS'print_file_and_line'
p49
S'None'
p50
sS'args'
p51
S"('unexpected indent', ('/home/rsoutelino/web2py/applications/rsoutelino/controllers/contact.py', 4, 1, '\\tif form.process(request.args(0)).accepted:\\n'))"
p52
sS'__subclasshook__'
p53
S'<built-in method __subclasshook__ of type object>'
p54
sS'offset'
p55
S'1'
sS'__unicode__'
p56
S'<built-in method __unicode__ of exceptions.IndentationError object>'
p57
sS'__delattr__'
p58
S"<method-wrapper '__delattr__' of exceptions.IndentationError object>"
p59
sS'__repr__'
p60
S"<method-wrapper '__repr__' of exceptions.IndentationError object>"
p61
sS'__hash__'
p62
S"<method-wrapper '__hash__' of exceptions.IndentationError object>"
p63
ssS'evalue'
p64
S'unexpected indent (contact.py, line 4)'
p65
sS'request'
p66
ccopy_reg
_reconstructor
p67
(cgluon.html
BEAUTIFY
p68
c__builtin__
object
p69
NtRp70
(dp71
S'attributes'
p72
(dp73
sS'components'
p74
(lp75
g67
(cgluon.html
TABLE
p76
g69
NtRp77
(dp78
g72
(dp79
S'level'
p80
I5
ssS'parent'
p81
Nsg74
(lp82
g67
(cgluon.html
TR
p83
g69
NtRp84
(dp85
g72
(dp86
sg81
g77
sg74
(lp87
g67
(cgluon.html
TD
p88
g69
NtRp89
(dp90
g72
(dp91
S'_style'
p92
S'font-weight:bold;vertical-align:top'
p93
ssg81
g84
sg74
(lp94
S'ajax'
p95
asbag67
(g88
g69
NtRp96
(dp97
g72
(dp98
S'_valign'
p99
S'top'
p100
ssg81
g84
sg74
(lp101
S':'
asbag67
(g88
g69
NtRp102
(dp103
g72
(dp104
sg81
g84
sg74
(lp105
g67
(g68
g69
NtRp106
(dp107
g72
(dp108
g80
I5
ssg81
g102
sg74
(lp109
S'False'
p110
asbasbasbag67
(g83
g69
NtRp111
(dp112
g72
(dp113
sg81
g77
sg74
(lp114
g67
(g88
g69
NtRp115
(dp116
g72
(dp117
g92
g93
ssg81
g111
sg74
(lp118
S'application'
p119
asbag67
(g88
g69
NtRp120
(dp121
g72
(dp122
g99
g100
ssg81
g111
sg74
(lp123
S':'
asbag67
(g88
g69
NtRp124
(dp125
g72
(dp126
sg81
g111
sg74
(lp127
g67
(g68
g69
NtRp128
(dp129
g72
(dp130
g80
I5
ssg81
g124
sg74
(lp131
S'rsoutelino'
p132
asbasbasbag67
(g83
g69
NtRp133
(dp134
g72
(dp135
sg81
g77
sg74
(lp136
g67
(g88
g69
NtRp137
(dp138
g72
(dp139
g92
g93
ssg81
g133
sg74
(lp140
g51
asbag67
(g88
g69
NtRp141
(dp142
g72
(dp143
g99
g100
ssg81
g133
sg74
(lp144
S':'
asbag67
(g88
g69
NtRp145
(dp146
g72
(dp147
sg81
g133
sg74
(lp148
g67
(g68
g69
NtRp149
(dp150
g72
(dp151
g80
I5
ssg81
g145
sg74
(lp152
g67
(g76
g69
NtRp153
(dp154
g72
(dp155
g80
I4
ssg81
Nsg74
(lp156
sbasbasbasbag67
(g83
g69
NtRp157
(dp158
g72
(dp159
sg81
g77
sg74
(lp160
g67
(g88
g69
NtRp161
(dp162
g72
(dp163
g92
g93
ssg81
g157
sg74
(lp164
S'body'
p165
asbag67
(g88
g69
NtRp166
(dp167
g72
(dp168
g99
g100
ssg81
g157
sg74
(lp169
S':'
asbag67
(g88
g69
NtRp170
(dp171
g72
(dp172
sg81
g157
sg74
(lp173
g67
(g68
g69
NtRp174
(dp175
g72
(dp176
g80
I5
ssg81
g170
sg74
(lp177
S'<cStringIO.StringO object at 0x33048f0>'
p178
asbasbasbag67
(g83
g69
NtRp179
(dp180
g72
(dp181
sg81
g77
sg74
(lp182
g67
(g88
g69
NtRp183
(dp184
g72
(dp185
g92
g93
ssg81
g179
sg74
(lp186
S'cid'
p187
asbag67
(g88
g69
NtRp188
(dp189
g72
(dp190
g99
g100
ssg81
g179
sg74
(lp191
S':'
asbag67
(g88
g69
NtRp192
(dp193
g72
(dp194
sg81
g179
sg74
(lp195
g67
(g68
g69
NtRp196
(dp197
g72
(dp198
g80
I5
ssg81
g192
sg74
(lp199
S'None'
p200
asbasbasbag67
(g83
g69
NtRp201
(dp202
g72
(dp203
sg81
g77
sg74
(lp204
g67
(g88
g69
NtRp205
(dp206
g72
(dp207
g92
g93
ssg81
g201
sg74
(lp208
S'client'
p209
asbag67
(g88
g69
NtRp210
(dp211
g72
(dp212
g99
g100
ssg81
g201
sg74
(lp213
S':'
asbag67
(g88
g69
NtRp214
(dp215
g72
(dp216
sg81
g201
sg74
(lp217
g67
(g68
g69
NtRp218
(dp219
g72
(dp220
g80
I5
ssg81
g214
sg74
(lp221
S'172.30.6.206'
p222
asbasbasbag67
(g83
g69
NtRp223
(dp224
g72
(dp225
sg81
g77
sg74
(lp226
g67
(g88
g69
NtRp227
(dp228
g72
(dp229
g92
g93
ssg81
g223
sg74
(lp230
S'controller'
p231
asbag67
(g88
g69
NtRp232
(dp233
g72
(dp234
g99
g100
ssg81
g223
sg74
(lp235
S':'
asbag67
(g88
g69
NtRp236
(dp237
g72
(dp238
sg81
g223
sg74
(lp239
g67
(g68
g69
NtRp240
(dp241
g72
(dp242
g80
I5
ssg81
g236
sg74
(lp243
S'contact'
p244
asbasbasbag67
(g83
g69
NtRp245
(dp246
g72
(dp247
sg81
g77
sg74
(lp248
g67
(g88
g69
NtRp249
(dp250
g72
(dp251
g92
g93
ssg81
g245
sg74
(lp252
S'cookies'
p253
asbag67
(g88
g69
NtRp254
(dp255
g72
(dp256
g99
g100
ssg81
g245
sg74
(lp257
S':'
asbag67
(g88
g69
NtRp258
(dp259
g72
(dp260
sg81
g245
sg74
(lp261
g67
(g68
g69
NtRp262
(dp263
g72
(dp264
g80
I5
ssg81
g258
sg74
(lp265
g67
(g76
g69
NtRp266
(dp267
g72
(dp268
g80
I4
ssg81
Nsg74
(lp269
g67
(g83
g69
NtRp270
(dp271
g72
(dp272
sg81
g266
sg74
(lp273
g67
(g88
g69
NtRp274
(dp275
g72
(dp276
g92
g93
ssg81
g270
sg74
(lp277
S'session_id_rsoutelino'
p278
asbag67
(g88
g69
NtRp279
(dp280
g72
(dp281
g99
g100
ssg81
g270
sg74
(lp282
S':'
asbag67
(g88
g69
NtRp283
(dp284
g72
(dp285
sg81
g270
sg74
(lp286
g67
(g68
g69
NtRp287
(dp288
g72
(dp289
g80
I4
ssg81
g283
sg74
(lp290
S'172.30.6.206-fe4af916-2c8f-467f-8c0a-3fc104642d99'
p291
ag67
(g76
g69
NtRp292
(dp293
g72
(dp294
g80
I3
ssg81
Nsg74
(lp295
g67
(g83
g69
NtRp296
(dp297
g72
(dp298
sg81
g292
sg74
(lp299
g67
(g88
g69
NtRp300
(dp301
g72
(dp302
g92
g93
ssg81
g296
sg74
(lp303
S'comment'
p304
asbag67
(g88
g69
NtRp305
(dp306
g72
(dp307
g99
g100
ssg81
g296
sg74
(lp308
S':'
asbag67
(g88
g69
NtRp309
(dp310
g72
(dp311
sg81
g296
sg74
(lp312
g67
(g68
g69
NtRp313
(dp314
g72
(dp315
g80
I3
ssg81
g309
sg74
(lp316
S''
asbasbasbag67
(g83
g69
NtRp317
(dp318
g72
(dp319
sg81
g292
sg74
(lp320
g67
(g88
g69
NtRp321
(dp322
g72
(dp323
g92
g93
ssg81
g317
sg74
(lp324
S'domain'
p325
asbag67
(g88
g69
NtRp326
(dp327
g72
(dp328
g99
g100
ssg81
g317
sg74
(lp329
S':'
asbag67
(g88
g69
NtRp330
(dp331
g72
(dp332
sg81
g317
sg74
(lp333
g67
(g68
g69
NtRp334
(dp335
g72
(dp336
g80
I3
ssg81
g330
sg74
(lp337
S''
asbasbasbag67
(g83
g69
NtRp338
(dp339
g72
(dp340
sg81
g292
sg74
(lp341
g67
(g88
g69
NtRp342
(dp343
g72
(dp344
g92
g93
ssg81
g338
sg74
(lp345
S'expires'
p346
asbag67
(g88
g69
NtRp347
(dp348
g72
(dp349
g99
g100
ssg81
g338
sg74
(lp350
S':'
asbag67
(g88
g69
NtRp351
(dp352
g72
(dp353
sg81
g338
sg74
(lp354
g67
(g68
g69
NtRp355
(dp356
g72
(dp357
g80
I3
ssg81
g351
sg74
(lp358
S''
asbasbasbag67
(g83
g69
NtRp359
(dp360
g72
(dp361
sg81
g292
sg74
(lp362
g67
(g88
g69
NtRp363
(dp364
g72
(dp365
g92
g93
ssg81
g359
sg74
(lp366
S'httponly'
p367
asbag67
(g88
g69
NtRp368
(dp369
g72
(dp370
g99
g100
ssg81
g359
sg74
(lp371
S':'
asbag67
(g88
g69
NtRp372
(dp373
g72
(dp374
sg81
g359
sg74
(lp375
g67
(g68
g69
NtRp376
(dp377
g72
(dp378
g80
I3
ssg81
g372
sg74
(lp379
S''
asbasbasbag67
(g83
g69
NtRp380
(dp381
g72
(dp382
sg81
g292
sg74
(lp383
g67
(g88
g69
NtRp384
(dp385
g72
(dp386
g92
g93
ssg81
g380
sg74
(lp387
S'max-age'
p388
asbag67
(g88
g69
NtRp389
(dp390
g72
(dp391
g99
g100
ssg81
g380
sg74
(lp392
S':'
asbag67
(g88
g69
NtRp393
(dp394
g72
(dp395
sg81
g380
sg74
(lp396
g67
(g68
g69
NtRp397
(dp398
g72
(dp399
g80
I3
ssg81
g393
sg74
(lp400
S''
asbasbasbag67
(g83
g69
NtRp401
(dp402
g72
(dp403
sg81
g292
sg74
(lp404
g67
(g88
g69
NtRp405
(dp406
g72
(dp407
g92
g93
ssg81
g401
sg74
(lp408
S'path'
p409
asbag67
(g88
g69
NtRp410
(dp411
g72
(dp412
g99
g100
ssg81
g401
sg74
(lp413
S':'
asbag67
(g88
g69
NtRp414
(dp415
g72
(dp416
sg81
g401
sg74
(lp417
g67
(g68
g69
NtRp418
(dp419
g72
(dp420
g80
I3
ssg81
g414
sg74
(lp421
S''
asbasbasbag67
(g83
g69
NtRp422
(dp423
g72
(dp424
sg81
g292
sg74
(lp425
g67
(g88
g69
NtRp426
(dp427
g72
(dp428
g92
g93
ssg81
g422
sg74
(lp429
S'secure'
p430
asbag67
(g88
g69
NtRp431
(dp432
g72
(dp433
g99
g100
ssg81
g422
sg74
(lp434
S':'
asbag67
(g88
g69
NtRp435
(dp436
g72
(dp437
sg81
g422
sg74
(lp438
g67
(g68
g69
NtRp439
(dp440
g72
(dp441
g80
I3
ssg81
g435
sg74
(lp442
S''
asbasbasbag67
(g83
g69
NtRp443
(dp444
g72
(dp445
sg81
g292
sg74
(lp446
g67
(g88
g69
NtRp447
(dp448
g72
(dp449
g92
g93
ssg81
g443
sg74
(lp450
S'version'
p451
asbag67
(g88
g69
NtRp452
(dp453
g72
(dp454
g99
g100
ssg81
g443
sg74
(lp455
S':'
asbag67
(g88
g69
NtRp456
(dp457
g72
(dp458
sg81
g443
sg74
(lp459
g67
(g68
g69
NtRp460
(dp461
g72
(dp462
g80
I3
ssg81
g456
sg74
(lp463
S''
asbasbasbasbasbasbasbasbasbasbasbag67
(g83
g69
NtRp464
(dp465
g72
(dp466
sg81
g77
sg74
(lp467
g67
(g88
g69
NtRp468
(dp469
g72
(dp470
g92
g93
ssg81
g464
sg74
(lp471
S'env'
p472
asbag67
(g88
g69
NtRp473
(dp474
g72
(dp475
g99
g100
ssg81
g464
sg74
(lp476
S':'
asbag67
(g88
g69
NtRp477
(dp478
g72
(dp479
sg81
g464
sg74
(lp480
g67
(g68
g69
NtRp481
(dp482
g72
(dp483
g80
I5
ssg81
g477
sg74
(lp484
g67
(g76
g69
NtRp485
(dp486
g72
(dp487
g80
I4
ssg81
Nsg74
(lp488
g67
(g83
g69
NtRp489
(dp490
g72
(dp491
sg81
g485
sg74
(lp492
g67
(g88
g69
NtRp493
(dp494
g72
(dp495
g92
g93
ssg81
g489
sg74
(lp496
S'app_folders'
p497
asbag67
(g88
g69
NtRp498
(dp499
g72
(dp500
g99
g100
ssg81
g489
sg74
(lp501
S':'
asbag67
(g88
g69
NtRp502
(dp503
g72
(dp504
sg81
g489
sg74
(lp505
g67
(g68
g69
NtRp506
(dp507
g72
(dp508
g80
I4
ssg81
g502
sg74
(lp509
S"set(['/home/rsoutelino/web2py/applications/rsoutelino/', '/home/rsoutelino/web2py/applications/admin/'])"
p510
asbasbasbag67
(g83
g69
NtRp511
(dp512
g72
(dp513
sg81
g485
sg74
(lp514
g67
(g88
g69
NtRp515
(dp516
g72
(dp517
g92
g93
ssg81
g511
sg74
(lp518
S'applications_parent'
p519
asbag67
(g88
g69
NtRp520
(dp521
g72
(dp522
g99
g100
ssg81
g511
sg74
(lp523
S':'
asbag67
(g88
g69
NtRp524
(dp525
g72
(dp526
sg81
g511
sg74
(lp527
g67
(g68
g69
NtRp528
(dp529
g72
(dp530
g80
I4
ssg81
g524
sg74
(lp531
S'/home/rsoutelino/web2py'
p532
asbasbasbag67
(g83
g69
NtRp533
(dp534
g72
(dp535
sg81
g485
sg74
(lp536
g67
(g88
g69
NtRp537
(dp538
g72
(dp539
g92
g93
ssg81
g533
sg74
(lp540
S'content_length'
p541
asbag67
(g88
g69
NtRp542
(dp543
g72
(dp544
g99
g100
ssg81
g533
sg74
(lp545
S':'
asbag67
(g88
g69
NtRp546
(dp547
g72
(dp548
sg81
g533
sg74
(lp549
g67
(g68
g69
NtRp550
(dp551
g72
(dp552
g80
I4
ssg81
g546
sg74
(lp553
S''
asbasbasbag67
(g83
g69
NtRp554
(dp555
g72
(dp556
sg81
g485
sg74
(lp557
g67
(g88
g69
NtRp558
(dp559
g72
(dp560
g92
g93
ssg81
g554
sg74
(lp561
S'content_type'
p562
asbag67
(g88
g69
NtRp563
(dp564
g72
(dp565
g99
g100
ssg81
g554
sg74
(lp566
S':'
asbag67
(g88
g69
NtRp567
(dp568
g72
(dp569
sg81
g554
sg74
(lp570
g67
(g68
g69
NtRp571
(dp572
g72
(dp573
g80
I4
ssg81
g567
sg74
(lp574
S''
asbasbasbag67
(g83
g69
NtRp575
(dp576
g72
(dp577
sg81
g485
sg74
(lp578
g67
(g88
g69
NtRp579
(dp580
g72
(dp581
g92
g93
ssg81
g575
sg74
(lp582
S'db_sessions'
p583
asbag67
(g88
g69
NtRp584
(dp585
g72
(dp586
g99
g100
ssg81
g575
sg74
(lp587
S':'
asbag67
(g88
g69
NtRp588
(dp589
g72
(dp590
sg81
g575
sg74
(lp591
g67
(g68
g69
NtRp592
(dp593
g72
(dp594
g80
I4
ssg81
g588
sg74
(lp595
S'set([])'
p596
asbasbasbag67
(g83
g69
NtRp597
(dp598
g72
(dp599
sg81
g485
sg74
(lp600
g67
(g88
g69
NtRp601
(dp602
g72
(dp603
g92
g93
ssg81
g597
sg74
(lp604
S'debugging'
p605
asbag67
(g88
g69
NtRp606
(dp607
g72
(dp608
g99
g100
ssg81
g597
sg74
(lp609
S':'
asbag67
(g88
g69
NtRp610
(dp611
g72
(dp612
sg81
g597
sg74
(lp613
g67
(g68
g69
NtRp614
(dp615
g72
(dp616
g80
I4
ssg81
g610
sg74
(lp617
g110
asbasbasbag67
(g83
g69
NtRp618
(dp619
g72
(dp620
sg81
g485
sg74
(lp621
g67
(g88
g69
NtRp622
(dp623
g72
(dp624
g92
g93
ssg81
g618
sg74
(lp625
S'document_root'
p626
asbag67
(g88
g69
NtRp627
(dp628
g72
(dp629
g99
g100
ssg81
g618
sg74
(lp630
S':'
asbag67
(g88
g69
NtRp631
(dp632
g72
(dp633
sg81
g618
sg74
(lp634
g67
(g68
g69
NtRp635
(dp636
g72
(dp637
g80
I4
ssg81
g631
sg74
(lp638
S'/var/log/nginx/user_logs'
p639
asbasbasbag67
(g83
g69
NtRp640
(dp641
g72
(dp642
sg81
g485
sg74
(lp643
g67
(g88
g69
NtRp644
(dp645
g72
(dp646
g92
g93
ssg81
g640
sg74
(lp647
S'gluon_parent'
p648
asbag67
(g88
g69
NtRp649
(dp650
g72
(dp651
g99
g100
ssg81
g640
sg74
(lp652
S':'
asbag67
(g88
g69
NtRp653
(dp654
g72
(dp655
sg81
g640
sg74
(lp656
g67
(g68
g69
NtRp657
(dp658
g72
(dp659
g80
I4
ssg81
g653
sg74
(lp660
g532
asbasbasbag67
(g83
g69
NtRp661
(dp662
g72
(dp663
sg81
g485
sg74
(lp664
g67
(g88
g69
NtRp665
(dp666
g72
(dp667
g92
g93
ssg81
g661
sg74
(lp668
S'http_accept'
p669
asbag67
(g88
g69
NtRp670
(dp671
g72
(dp672
g99
g100
ssg81
g661
sg74
(lp673
S':'
asbag67
(g88
g69
NtRp674
(dp675
g72
(dp676
sg81
g661
sg74
(lp677
g67
(g68
g69
NtRp678
(dp679
g72
(dp680
g80
I4
ssg81
g674
sg74
(lp681
S'text/html,application/xhtml+xml,application/xml;q=0.9,*/*;q=0.8'
p682
asbasbasbag67
(g83
g69
NtRp683
(dp684
g72
(dp685
sg81
g485
sg74
(lp686
g67
(g88
g69
NtRp687
(dp688
g72
(dp689
g92
g93
ssg81
g683
sg74
(lp690
S'http_accept_charset'
p691
asbag67
(g88
g69
NtRp692
(dp693
g72
(dp694
g99
g100
ssg81
g683
sg74
(lp695
S':'
asbag67
(g88
g69
NtRp696
(dp697
g72
(dp698
sg81
g683
sg74
(lp699
g67
(g68
g69
NtRp700
(dp701
g72
(dp702
g80
I4
ssg81
g696
sg74
(lp703
S'ISO-8859-1,utf-8;q=0.7,*;q=0.3'
p704
asbasbasbag67
(g83
g69
NtRp705
(dp706
g72
(dp707
sg81
g485
sg74
(lp708
g67
(g88
g69
NtRp709
(dp710
g72
(dp711
g92
g93
ssg81
g705
sg74
(lp712
S'http_accept_encoding'
p713
asbag67
(g88
g69
NtRp714
(dp715
g72
(dp716
g99
g100
ssg81
g705
sg74
(lp717
S':'
asbag67
(g88
g69
NtRp718
(dp719
g72
(dp720
sg81
g705
sg74
(lp721
g67
(g68
g69
NtRp722
(dp723
g72
(dp724
g80
I4
ssg81
g718
sg74
(lp725
S'gzip,deflate,sdch'
p726
asbasbasbag67
(g83
g69
NtRp727
(dp728
g72
(dp729
sg81
g485
sg74
(lp730
g67
(g88
g69
NtRp731
(dp732
g72
(dp733
g92
g93
ssg81
g727
sg74
(lp734
S'http_accept_language'
p735
asbag67
(g88
g69
NtRp736
(dp737
g72
(dp738
g99
g100
ssg81
g727
sg74
(lp739
S':'
asbag67
(g88
g69
NtRp740
(dp741
g72
(dp742
sg81
g727
sg74
(lp743
g67
(g68
g69
NtRp744
(dp745
g72
(dp746
g80
I4
ssg81
g740
sg74
(lp747
S'en-US,en;q=0.8'
p748
asbasbasbag67
(g83
g69
NtRp749
(dp750
g72
(dp751
sg81
g485
sg74
(lp752
g67
(g88
g69
NtRp753
(dp754
g72
(dp755
g92
g93
ssg81
g749
sg74
(lp756
S'http_cache_control'
p757
asbag67
(g88
g69
NtRp758
(dp759
g72
(dp760
g99
g100
ssg81
g749
sg74
(lp761
S':'
asbag67
(g88
g69
NtRp762
(dp763
g72
(dp764
sg81
g749
sg74
(lp765
g67
(g68
g69
NtRp766
(dp767
g72
(dp768
g80
I4
ssg81
g762
sg74
(lp769
S'max-age=0'
p770
asbasbasbag67
(g83
g69
NtRp771
(dp772
g72
(dp773
sg81
g485
sg74
(lp774
g67
(g88
g69
NtRp775
(dp776
g72
(dp777
g92
g93
ssg81
g771
sg74
(lp778
S'http_connection'
p779
asbag67
(g88
g69
NtRp780
(dp781
g72
(dp782
g99
g100
ssg81
g771
sg74
(lp783
S':'
asbag67
(g88
g69
NtRp784
(dp785
g72
(dp786
sg81
g771
sg74
(lp787
g67
(g68
g69
NtRp788
(dp789
g72
(dp790
g80
I4
ssg81
g784
sg74
(lp791
S'Keep-Alive'
p792
asbasbasbag67
(g83
g69
NtRp793
(dp794
g72
(dp795
sg81
g485
sg74
(lp796
g67
(g88
g69
NtRp797
(dp798
g72
(dp799
g92
g93
ssg81
g793
sg74
(lp800
S'http_cookie'
p801
asbag67
(g88
g69
NtRp802
(dp803
g72
(dp804
g99
g100
ssg81
g793
sg74
(lp805
S':'
asbag67
(g88
g69
NtRp806
(dp807
g72
(dp808
sg81
g793
sg74
(lp809
g67
(g68
g69
NtRp810
(dp811
g72
(dp812
g80
I4
ssg81
g806
sg74
(lp813
S'session_id_rsoutelino=172.30.6.206-fe4af916-2c8f-467f-8c0a-3fc104642d99'
p814
asbasbasbag67
(g83
g69
NtRp815
(dp816
g72
(dp817
sg81
g485
sg74
(lp818
g67
(g88
g69
NtRp819
(dp820
g72
(dp821
g92
g93
ssg81
g815
sg74
(lp822
S'http_host'
p823
asbag67
(g88
g69
NtRp824
(dp825
g72
(dp826
g99
g100
ssg81
g815
sg74
(lp827
S':'
asbag67
(g88
g69
NtRp828
(dp829
g72
(dp830
sg81
g815
sg74
(lp831
g67
(g68
g69
NtRp832
(dp833
g72
(dp834
g80
I4
ssg81
g828
sg74
(lp835
S'www.rsoutelino.com'
p836
asbasbasbag67
(g83
g69
NtRp837
(dp838
g72
(dp839
sg81
g485
sg74
(lp840
g67
(g88
g69
NtRp841
(dp842
g72
(dp843
g92
g93
ssg81
g837
sg74
(lp844
S'http_referer'
p845
asbag67
(g88
g69
NtRp846
(dp847
g72
(dp848
g99
g100
ssg81
g837
sg74
(lp849
S':'
asbag67
(g88
g69
NtRp850
(dp851
g72
(dp852
sg81
g837
sg74
(lp853
g67
(g68
g69
NtRp854
(dp855
g72
(dp856
g80
I4
ssg81
g850
sg74
(lp857
S'http://www.rsoutelino.com/'
p858
asbasbasbag67
(g83
g69
NtRp859
(dp860
g72
(dp861
sg81
g485
sg74
(lp862
g67
(g88
g69
NtRp863
(dp864
g72
(dp865
g92
g93
ssg81
g859
sg74
(lp866
S'http_user_agent'
p867
asbag67
(g88
g69
NtRp868
(dp869
g72
(dp870
g99
g100
ssg81
g859
sg74
(lp871
S':'
asbag67
(g88
g69
NtRp872
(dp873
g72
(dp874
sg81
g859
sg74
(lp875
g67
(g68
g69
NtRp876
(dp877
g72
(dp878
g80
I4
ssg81
g872
sg74
(lp879
S'Mozilla/5.0 (X11; Linux x86_64) AppleWebKit/537.17 (KHTML, like Gecko) Chrome/24.0.1312.57 Safari/537.17'
p880
asbasbasbag67
(g83
g69
NtRp881
(dp882
g72
(dp883
sg81
g485
sg74
(lp884
g67
(g88
g69
NtRp885
(dp886
g72
(dp887
g92
g93
ssg81
g881
sg74
(lp888
S'http_via'
p889
asbag67
(g88
g69
NtRp890
(dp891
g72
(dp892
g99
g100
ssg81
g881
sg74
(lp893
S':'
asbag67
(g88
g69
NtRp894
(dp895
g72
(dp896
sg81
g881
sg74
(lp897
g67
(g68
g69
NtRp898
(dp899
g72
(dp900
g80
I4
ssg81
g894
sg74
(lp901
S'1.1 10.6.32.12 (McAfee Web Gateway 7.2.0.4.0.14188)'
p902
asbasbasbag67
(g83
g69
NtRp903
(dp904
g72
(dp905
sg81
g485
sg74
(lp906
g67
(g88
g69
NtRp907
(dp908
g72
(dp909
g92
g93
ssg81
g903
sg74
(lp910
S'http_x_forwarded_for'
p911
asbag67
(g88
g69
NtRp912
(dp913
g72
(dp914
g99
g100
ssg81
g903
sg74
(lp915
S':'
asbag67
(g88
g69
NtRp916
(dp917
g72
(dp918
sg81
g903
sg74
(lp919
g67
(g68
g69
NtRp920
(dp921
g72
(dp922
g80
I4
ssg81
g916
sg74
(lp923
g222
asbasbasbag67
(g83
g69
NtRp924
(dp925
g72
(dp926
sg81
g485
sg74
(lp927
g67
(g88
g69
NtRp928
(dp929
g72
(dp930
g92
g93
ssg81
g924
sg74
(lp931
S'is_jython'
p932
asbag67
(g88
g69
NtRp933
(dp934
g72
(dp935
g99
g100
ssg81
g924
sg74
(lp936
S':'
asbag67
(g88
g69
NtRp937
(dp938
g72
(dp939
sg81
g924
sg74
(lp940
g67
(g68
g69
NtRp941
(dp942
g72
(dp943
g80
I4
ssg81
g937
sg74
(lp944
g110
asbasbasbag67
(g83
g69
NtRp945
(dp946
g72
(dp947
sg81
g485
sg74
(lp948
g67
(g88
g69
NtRp949
(dp950
g72
(dp951
g92
g93
ssg81
g945
sg74
(lp952
S'is_pypy'
p953
asbag67
(g88
g69
NtRp954
(dp955
g72
(dp956
g99
g100
ssg81
g945
sg74
(lp957
S':'
asbag67
(g88
g69
NtRp958
(dp959
g72
(dp960
sg81
g945
sg74
(lp961
g67
(g68
g69
NtRp962
(dp963
g72
(dp964
g80
I4
ssg81
g958
sg74
(lp965
g110
asbasbasbag67
(g83
g69
NtRp966
(dp967
g72
(dp968
sg81
g485
sg74
(lp969
g67
(g88
g69
NtRp970
(dp971
g72
(dp972
g92
g93
ssg81
g966
sg74
(lp973
S'local_hosts'
p974
asbag67
(g88
g69
NtRp975
(dp976
g72
(dp977
g99
g100
ssg81
g966
sg74
(lp978
S':'
asbag67
(g88
g69
NtRp979
(dp980
g72
(dp981
sg81
g966
sg74
(lp982
g67
(g68
g69
NtRp983
(dp984
g72
(dp985
g80
I4
ssg81
g979
sg74
(lp986
g67
(g76
g69
NtRp987
(dp988
g72
(dp989
g80
I3
ssg81
Nsg74
(lp990
g67
(g83
g69
NtRp991
(dp992
g72
(dp993
sg81
g987
sg74
(lp994
g67
(g88
g69
NtRp995
(dp996
g72
(dp997
sg81
g991
sg74
(lp998
g67
(g68
g69
NtRp999
(dp1000
g72
(dp1001
g80
I3
ssg81
g995
sg74
(lp1002
S'127.0.0.1'
p1003
asbasbasbag67
(g83
g69
NtRp1004
(dp1005
g72
(dp1006
sg81
g987
sg74
(lp1007
g67
(g88
g69
NtRp1008
(dp1009
g72
(dp1010
sg81
g1004
sg74
(lp1011
g67
(g68
g69
NtRp1012
(dp1013
g72
(dp1014
g80
I3
ssg81
g1008
sg74
(lp1015
S'::ffff:127.0.0.1'
p1016
asbasbasbag67
(g83
g69
NtRp1017
(dp1018
g72
(dp1019
sg81
g987
sg74
(lp1020
g67
(g88
g69
NtRp1021
(dp1022
g72
(dp1023
sg81
g1017
sg74
(lp1024
g67
(g68
g69
NtRp1025
(dp1026
g72
(dp1027
g80
I3
ssg81
g1021
sg74
(lp1028
S'hansel-liveweb'
p1029
asbasbasbasbasbasbasbag67
(g83
g69
NtRp1030
(dp1031
g72
(dp1032
sg81
g485
sg74
(lp1033
g67
(g88
g69
NtRp1034
(dp1035
g72
(dp1036
g92
g93
ssg81
g1030
sg74
(lp1037
S'path_info'
p1038
asbag67
(g88
g69
NtRp1039
(dp1040
g72
(dp1041
g99
g100
ssg81
g1030
sg74
(lp1042
S':'
asbag67
(g88
g69
NtRp1043
(dp1044
g72
(dp1045
sg81
g1030
sg74
(lp1046
g67
(g68
g69
NtRp1047
(dp1048
g72
(dp1049
g80
I4
ssg81
g1043
sg74
(lp1050
S'/rsoutelino/contact/contact'
p1051
asbasbasbag67
(g83
g69
NtRp1052
(dp1053
g72
(dp1054
sg81
g485
sg74
(lp1055
g67
(g88
g69
NtRp1056
(dp1057
g72
(dp1058
g92
g93
ssg81
g1052
sg74
(lp1059
S'query_string'
p1060
asbag67
(g88
g69
NtRp1061
(dp1062
g72
(dp1063
g99
g100
ssg81
g1052
sg74
(lp1064
S':'
asbag67
(g88
g69
NtRp1065
(dp1066
g72
(dp1067
sg81
g1052
sg74
(lp1068
g67
(g68
g69
NtRp1069
(dp1070
g72
(dp1071
g80
I4
ssg81
g1065
sg74
(lp1072
S''
asbasbasbag67
(g83
g69
NtRp1073
(dp1074
g72
(dp1075
sg81
g485
sg74
(lp1076
g67
(g88
g69
NtRp1077
(dp1078
g72
(dp1079
g92
g93
ssg81
g1073
sg74
(lp1080
S'remote_addr'
p1081
asbag67
(g88
g69
NtRp1082
(dp1083
g72
(dp1084
g99
g100
ssg81
g1073
sg74
(lp1085
S':'
asbag67
(g88
g69
NtRp1086
(dp1087
g72
(dp1088
sg81
g1073
sg74
(lp1089
g67
(g68
g69
NtRp1090
(dp1091
g72
(dp1092
g80
I4
ssg81
g1086
sg74
(lp1093
S'189.125.114.245'
p1094
asbasbasbag67
(g83
g69
NtRp1095
(dp1096
g72
(dp1097
sg81
g485
sg74
(lp1098
g67
(g88
g69
NtRp1099
(dp1100
g72
(dp1101
g92
g93
ssg81
g1095
sg74
(lp1102
S'remote_port'
p1103
asbag67
(g88
g69
NtRp1104
(dp1105
g72
(dp1106
g99
g100
ssg81
g1095
sg74
(lp1107
S':'
asbag67
(g88
g69
NtRp1108
(dp1109
g72
(dp1110
sg81
g1095
sg74
(lp1111
g67
(g68
g69
NtRp1112
(dp1113
g72
(dp1114
g80
I4
ssg81
g1108
sg74
(lp1115
S'45438'
p1116
asbasbasbag67
(g83
g69
NtRp1117
(dp1118
g72
(dp1119
sg81
g485
sg74
(lp1120
g67
(g88
g69
NtRp1121
(dp1122
g72
(dp1123
g92
g93
ssg81
g1117
sg74
(lp1124
S'request_method'
p1125
asbag67
(g88
g69
NtRp1126
(dp1127
g72
(dp1128
g99
g100
ssg81
g1117
sg74
(lp1129
S':'
asbag67
(g88
g69
NtRp1130
(dp1131
g72
(dp1132
sg81
g1117
sg74
(lp1133
g67
(g68
g69
NtRp1134
(dp1135
g72
(dp1136
g80
I4
ssg81
g1130
sg74
(lp1137
S'GET'
p1138
asbasbasbag67
(g83
g69
NtRp1139
(dp1140
g72
(dp1141
sg81
g485
sg74
(lp1142
g67
(g88
g69
NtRp1143
(dp1144
g72
(dp1145
g92
g93
ssg81
g1139
sg74
(lp1146
S'request_uri'
p1147
asbag67
(g88
g69
NtRp1148
(dp1149
g72
(dp1150
g99
g100
ssg81
g1139
sg74
(lp1151
S':'
asbag67
(g88
g69
NtRp1152
(dp1153
g72
(dp1154
sg81
g1139
sg74
(lp1155
g67
(g68
g69
NtRp1156
(dp1157
g72
(dp1158
g80
I4
ssg81
g1152
sg74
(lp1159
S'/rsoutelino/contact/contact'
p1160
asbasbasbag67
(g83
g69
NtRp1161
(dp1162
g72
(dp1163
sg81
g485
sg74
(lp1164
g67
(g88
g69
NtRp1165
(dp1166
g72
(dp1167
g92
g93
ssg81
g1161
sg74
(lp1168
S'script_name'
p1169
asbag67
(g88
g69
NtRp1170
(dp1171
g72
(dp1172
g99
g100
ssg81
g1161
sg74
(lp1173
S':'
asbag67
(g88
g69
NtRp1174
(dp1175
g72
(dp1176
sg81
g1161
sg74
(lp1177
g67
(g68
g69
NtRp1178
(dp1179
g72
(dp1180
g80
I4
ssg81
g1174
sg74
(lp1181
S''
asbasbasbag67
(g83
g69
NtRp1182
(dp1183
g72
(dp1184
sg81
g485
sg74
(lp1185
g67
(g88
g69
NtRp1186
(dp1187
g72
(dp1188
g92
g93
ssg81
g1182
sg74
(lp1189
S'server_name'
p1190
asbag67
(g88
g69
NtRp1191
(dp1192
g72
(dp1193
g99
g100
ssg81
g1182
sg74
(lp1194
S':'
asbag67
(g88
g69
NtRp1195
(dp1196
g72
(dp1197
sg81
g1182
sg74
(lp1198
g67
(g68
g69
NtRp1199
(dp1200
g72
(dp1201
g80
I4
ssg81
g1195
sg74
(lp1202
S'~(?<domain>.+)$'
p1203
asbasbasbag67
(g83
g69
NtRp1204
(dp1205
g72
(dp1206
sg81
g485
sg74
(lp1207
g67
(g88
g69
NtRp1208
(dp1209
g72
(dp1210
g92
g93
ssg81
g1204
sg74
(lp1211
S'server_port'
p1212
asbag67
(g88
g69
NtRp1213
(dp1214
g72
(dp1215
g99
g100
ssg81
g1204
sg74
(lp1216
S':'
asbag67
(g88
g69
NtRp1217
(dp1218
g72
(dp1219
sg81
g1204
sg74
(lp1220
g67
(g68
g69
NtRp1221
(dp1222
g72
(dp1223
g80
I4
ssg81
g1217
sg74
(lp1224
S'80'
p1225
asbasbasbag67
(g83
g69
NtRp1226
(dp1227
g72
(dp1228
sg81
g485
sg74
(lp1229
g67
(g88
g69
NtRp1230
(dp1231
g72
(dp1232
g92
g93
ssg81
g1226
sg74
(lp1233
S'server_protocol'
p1234
asbag67
(g88
g69
NtRp1235
(dp1236
g72
(dp1237
g99
g100
ssg81
g1226
sg74
(lp1238
S':'
asbag67
(g88
g69
NtRp1239
(dp1240
g72
(dp1241
sg81
g1226
sg74
(lp1242
g67
(g68
g69
NtRp1243
(dp1244
g72
(dp1245
g80
I4
ssg81
g1239
sg74
(lp1246
S'HTTP/1.1'
p1247
asbasbasbag67
(g83
g69
NtRp1248
(dp1249
g72
(dp1250
sg81
g485
sg74
(lp1251
g67
(g88
g69
NtRp1252
(dp1253
g72
(dp1254
g92
g93
ssg81
g1248
sg74
(lp1255
S'uwsgi_node'
p1256
asbag67
(g88
g69
NtRp1257
(dp1258
g72
(dp1259
g99
g100
ssg81
g1248
sg74
(lp1260
S':'
asbag67
(g88
g69
NtRp1261
(dp1262
g72
(dp1263
sg81
g1248
sg74
(lp1264
g67
(g68
g69
NtRp1265
(dp1266
g72
(dp1267
g80
I4
ssg81
g1261
sg74
(lp1268
S'hansel-liveweb'
p1269
asbasbasbag67
(g83
g69
NtRp1270
(dp1271
g72
(dp1272
sg81
g485
sg74
(lp1273
g67
(g88
g69
NtRp1274
(dp1275
g72
(dp1276
g92
g93
ssg81
g1270
sg74
(lp1277
S'uwsgi_version'
p1278
asbag67
(g88
g69
NtRp1279
(dp1280
g72
(dp1281
g99
g100
ssg81
g1270
sg74
(lp1282
S':'
asbag67
(g88
g69
NtRp1283
(dp1284
g72
(dp1285
sg81
g1270
sg74
(lp1286
g67
(g68
g69
NtRp1287
(dp1288
g72
(dp1289
g80
I4
ssg81
g1283
sg74
(lp1290
S'1.4.4'
p1291
asbasbasbag67
(g83
g69
NtRp1292
(dp1293
g72
(dp1294
sg81
g485
sg74
(lp1295
g67
(g88
g69
NtRp1296
(dp1297
g72
(dp1298
g92
g93
ssg81
g1292
sg74
(lp1299
S'web2py_path'
p1300
asbag67
(g88
g69
NtRp1301
(dp1302
g72
(dp1303
g99
g100
ssg81
g1292
sg74
(lp1304
S':'
asbag67
(g88
g69
NtRp1305
(dp1306
g72
(dp1307
sg81
g1292
sg74
(lp1308
g67
(g68
g69
NtRp1309
(dp1310
g72
(dp1311
g80
I4
ssg81
g1305
sg74
(lp1312
g532
asbasbasbag67
(g83
g69
NtRp1313
(dp1314
g72
(dp1315
sg81
g485
sg74
(lp1316
g67
(g88
g69
NtRp1317
(dp1318
g72
(dp1319
g92
g93
ssg81
g1313
sg74
(lp1320
S'web2py_version'
p1321
asbag67
(g88
g69
NtRp1322
(dp1323
g72
(dp1324
g99
g100
ssg81
g1313
sg74
(lp1325
S':'
asbag67
(g88
g69
NtRp1326
(dp1327
g72
(dp1328
sg81
g1313
sg74
(lp1329
g67
(g68
g69
NtRp1330
(dp1331
g72
(dp1332
g80
I4
ssg81
g1326
sg74
(lp1333
g67
(g76
g69
NtRp1334
(dp1335
g72
(dp1336
g80
I3
ssg81
Nsg74
(lp1337
g67
(g83
g69
NtRp1338
(dp1339
g72
(dp1340
sg81
g1334
sg74
(lp1341
g67
(g88
g69
NtRp1342
(dp1343
g72
(dp1344
sg81
g1338
sg74
(lp1345
g67
(g68
g69
NtRp1346
(dp1347
g72
(dp1348
g80
I3
ssg81
g1342
sg74
(lp1349
S'2'
asbasbasbag67
(g83
g69
NtRp1350
(dp1351
g72
(dp1352
sg81
g1334
sg74
(lp1353
g67
(g88
g69
NtRp1354
(dp1355
g72
(dp1356
sg81
g1350
sg74
(lp1357
g67
(g68
g69
NtRp1358
(dp1359
g72
(dp1360
g80
I3
ssg81
g1354
sg74
(lp1361
S'2'
asbasbasbag67
(g83
g69
NtRp1362
(dp1363
g72
(dp1364
sg81
g1334
sg74
(lp1365
g67
(g88
g69
NtRp1366
(dp1367
g72
(dp1368
sg81
g1362
sg74
(lp1369
g67
(g68
g69
NtRp1370
(dp1371
g72
(dp1372
g80
I3
ssg81
g1366
sg74
(lp1373
S'1'
asbasbasbag67
(g83
g69
NtRp1374
(dp1375
g72
(dp1376
sg81
g1334
sg74
(lp1377
g67
(g88
g69
NtRp1378
(dp1379
g72
(dp1380
sg81
g1374
sg74
(lp1381
g67
(g68
g69
NtRp1382
(dp1383
g72
(dp1384
g80
I3
ssg81
g1378
sg74
(lp1385
S'datetime.datetime(2012, 10, 21, 16, 57, 4)'
p1386
asbasbasbag67
(g83
g69
NtRp1387
(dp1388
g72
(dp1389
sg81
g1334
sg74
(lp1390
g67
(g88
g69
NtRp1391
(dp1392
g72
(dp1393
sg81
g1387
sg74
(lp1394
g67
(g68
g69
NtRp1395
(dp1396
g72
(dp1397
g80
I3
ssg81
g1391
sg74
(lp1398
S'stable'
p1399
asbasbasbasbasbasbasbag67
(g83
g69
NtRp1400
(dp1401
g72
(dp1402
sg81
g485
sg74
(lp1403
g67
(g88
g69
NtRp1404
(dp1405
g72
(dp1406
g92
g93
ssg81
g1400
sg74
(lp1407
S'wsgi_errors'
p1408
asbag67
(g88
g69
NtRp1409
(dp1410
g72
(dp1411
g99
g100
ssg81
g1400
sg74
(lp1412
S':'
asbag67
(g88
g69
NtRp1413
(dp1414
g72
(dp1415
sg81
g1400
sg74
(lp1416
g67
(g68
g69
NtRp1417
(dp1418
g72
(dp1419
g80
I4
ssg81
g1413
sg74
(lp1420
S'<uwsgi_file__bin_user_wsgi_wrapper.ErrorLogWrapper object at 0x23e5ed0>'
p1421
asbasbasbag67
(g83
g69
NtRp1422
(dp1423
g72
(dp1424
sg81
g485
sg74
(lp1425
g67
(g88
g69
NtRp1426
(dp1427
g72
(dp1428
g92
g93
ssg81
g1422
sg74
(lp1429
S'wsgi_file_wrapper'
p1430
asbag67
(g88
g69
NtRp1431
(dp1432
g72
(dp1433
g99
g100
ssg81
g1422
sg74
(lp1434
S':'
asbag67
(g88
g69
NtRp1435
(dp1436
g72
(dp1437
sg81
g1422
sg74
(lp1438
g67
(g68
g69
NtRp1439
(dp1440
g72
(dp1441
g80
I4
ssg81
g1435
sg74
(lp1442
S'<built-in function uwsgi_sendfile>'
p1443
asbasbasbag67
(g83
g69
NtRp1444
(dp1445
g72
(dp1446
sg81
g485
sg74
(lp1447
g67
(g88
g69
NtRp1448
(dp1449
g72
(dp1450
g92
g93
ssg81
g1444
sg74
(lp1451
S'wsgi_input'
p1452
asbag67
(g88
g69
NtRp1453
(dp1454
g72
(dp1455
g99
g100
ssg81
g1444
sg74
(lp1456
S':'
asbag67
(g88
g69
NtRp1457
(dp1458
g72
(dp1459
sg81
g1444
sg74
(lp1460
g67
(g68
g69
NtRp1461
(dp1462
g72
(dp1463
g80
I4
ssg81
g1457
sg74
(lp1464
S'<uwsgi._Input object at 0x2f20300>'
p1465
asbasbasbag67
(g83
g69
NtRp1466
(dp1467
g72
(dp1468
sg81
g485
sg74
(lp1469
g67
(g88
g69
NtRp1470
(dp1471
g72
(dp1472
g92
g93
ssg81
g1466
sg74
(lp1473
S'wsgi_multiprocess'
p1474
asbag67
(g88
g69
NtRp1475
(dp1476
g72
(dp1477
g99
g100
ssg81
g1466
sg74
(lp1478
S':'
asbag67
(g88
g69
NtRp1479
(dp1480
g72
(dp1481
sg81
g1466
sg74
(lp1482
g67
(g68
g69
NtRp1483
(dp1484
g72
(dp1485
g80
I4
ssg81
g1479
sg74
(lp1486
g110
asbasbasbag67
(g83
g69
NtRp1487
(dp1488
g72
(dp1489
sg81
g485
sg74
(lp1490
g67
(g88
g69
NtRp1491
(dp1492
g72
(dp1493
g92
g93
ssg81
g1487
sg74
(lp1494
S'wsgi_multithread'
p1495
asbag67
(g88
g69
NtRp1496
(dp1497
g72
(dp1498
g99
g100
ssg81
g1487
sg74
(lp1499
S':'
asbag67
(g88
g69
NtRp1500
(dp1501
g72
(dp1502
sg81
g1487
sg74
(lp1503
g67
(g68
g69
NtRp1504
(dp1505
g72
(dp1506
g80
I4
ssg81
g1500
sg74
(lp1507
g110
asbasbasbag67
(g83
g69
NtRp1508
(dp1509
g72
(dp1510
sg81
g485
sg74
(lp1511
g67
(g88
g69
NtRp1512
(dp1513
g72
(dp1514
g92
g93
ssg81
g1508
sg74
(lp1515
S'wsgi_run_once'
p1516
asbag67
(g88
g69
NtRp1517
(dp1518
g72
(dp1519
g99
g100
ssg81
g1508
sg74
(lp1520
S':'
asbag67
(g88
g69
NtRp1521
(dp1522
g72
(dp1523
sg81
g1508
sg74
(lp1524
g67
(g68
g69
NtRp1525
(dp1526
g72
(dp1527
g80
I4
ssg81
g1521
sg74
(lp1528
g110
asbasbasbag67
(g83
g69
NtRp1529
(dp1530
g72
(dp1531
sg81
g485
sg74
(lp1532
g67
(g88
g69
NtRp1533
(dp1534
g72
(dp1535
g92
g93
ssg81
g1529
sg74
(lp1536
S'wsgi_url_scheme'
p1537
asbag67
(g88
g69
NtRp1538
(dp1539
g72
(dp1540
g99
g100
ssg81
g1529
sg74
(lp1541
S':'
asbag67
(g88
g69
NtRp1542
(dp1543
g72
(dp1544
sg81
g1529
sg74
(lp1545
g67
(g68
g69
NtRp1546
(dp1547
g72
(dp1548
g80
I4
ssg81
g1542
sg74
(lp1549
S'http'
p1550
asbasbasbag67
(g83
g69
NtRp1551
(dp1552
g72
(dp1553
sg81
g485
sg74
(lp1554
g67
(g88
g69
NtRp1555
(dp1556
g72
(dp1557
g92
g93
ssg81
g1551
sg74
(lp1558
S'wsgi_version'
p1559
asbag67
(g88
g69
NtRp1560
(dp1561
g72
(dp1562
g99
g100
ssg81
g1551
sg74
(lp1563
S':'
asbag67
(g88
g69
NtRp1564
(dp1565
g72
(dp1566
sg81
g1551
sg74
(lp1567
g67
(g68
g69
NtRp1568
(dp1569
g72
(dp1570
g80
I4
ssg81
g1564
sg74
(lp1571
g67
(g76
g69
NtRp1572
(dp1573
g72
(dp1574
g80
I3
ssg81
Nsg74
(lp1575
g67
(g83
g69
NtRp1576
(dp1577
g72
(dp1578
sg81
g1572
sg74
(lp1579
g67
(g88
g69
NtRp1580
(dp1581
g72
(dp1582
sg81
g1576
sg74
(lp1583
g67
(g68
g69
NtRp1584
(dp1585
g72
(dp1586
g80
I3
ssg81
g1580
sg74
(lp1587
S'1'
asbasbasbag67
(g83
g69
NtRp1588
(dp1589
g72
(dp1590
sg81
g1572
sg74
(lp1591
g67
(g88
g69
NtRp1592
(dp1593
g72
(dp1594
sg81
g1588
sg74
(lp1595
g67
(g68
g69
NtRp1596
(dp1597
g72
(dp1598
g80
I3
ssg81
g1592
sg74
(lp1599
S'0'
asbasbasbasbasbasbasbasbasbasbasbag67
(g83
g69
NtRp1600
(dp1601
g72
(dp1602
sg81
g77
sg74
(lp1603
g67
(g88
g69
NtRp1604
(dp1605
g72
(dp1606
g92
g93
ssg81
g1600
sg74
(lp1607
S'extension'
p1608
asbag67
(g88
g69
NtRp1609
(dp1610
g72
(dp1611
g99
g100
ssg81
g1600
sg74
(lp1612
S':'
asbag67
(g88
g69
NtRp1613
(dp1614
g72
(dp1615
sg81
g1600
sg74
(lp1616
g67
(g68
g69
NtRp1617
(dp1618
g72
(dp1619
g80
I5
ssg81
g1613
sg74
(lp1620
S'html'
p1621
asbasbasbag67
(g83
g69
NtRp1622
(dp1623
g72
(dp1624
sg81
g77
sg74
(lp1625
g67
(g88
g69
NtRp1626
(dp1627
g72
(dp1628
g92
g93
ssg81
g1622
sg74
(lp1629
S'folder'
p1630
asbag67
(g88
g69
NtRp1631
(dp1632
g72
(dp1633
g99
g100
ssg81
g1622
sg74
(lp1634
S':'
asbag67
(g88
g69
NtRp1635
(dp1636
g72
(dp1637
sg81
g1622
sg74
(lp1638
g67
(g68
g69
NtRp1639
(dp1640
g72
(dp1641
g80
I5
ssg81
g1635
sg74
(lp1642
S'/home/rsoutelino/web2py/applications/rsoutelino/'
p1643
asbasbasbag67
(g83
g69
NtRp1644
(dp1645
g72
(dp1646
sg81
g77
sg74
(lp1647
g67
(g88
g69
NtRp1648
(dp1649
g72
(dp1650
g92
g93
ssg81
g1644
sg74
(lp1651
S'function'
p1652
asbag67
(g88
g69
NtRp1653
(dp1654
g72
(dp1655
g99
g100
ssg81
g1644
sg74
(lp1656
S':'
asbag67
(g88
g69
NtRp1657
(dp1658
g72
(dp1659
sg81
g1644
sg74
(lp1660
g67
(g68
g69
NtRp1661
(dp1662
g72
(dp1663
g80
I5
ssg81
g1657
sg74
(lp1664
S'contact'
p1665
asbasbasbag67
(g83
g69
NtRp1666
(dp1667
g72
(dp1668
sg81
g77
sg74
(lp1669
g67
(g88
g69
NtRp1670
(dp1671
g72
(dp1672
g92
g93
ssg81
g1666
sg74
(lp1673
S'get_vars'
p1674
asbag67
(g88
g69
NtRp1675
(dp1676
g72
(dp1677
g99
g100
ssg81
g1666
sg74
(lp1678
S':'
asbag67
(g88
g69
NtRp1679
(dp1680
g72
(dp1681
sg81
g1666
sg74
(lp1682
g67
(g68
g69
NtRp1683
(dp1684
g72
(dp1685
g80
I5
ssg81
g1679
sg74
(lp1686
g67
(g76
g69
NtRp1687
(dp1688
g72
(dp1689
g80
I4
ssg81
Nsg74
(lp1690
sbasbasbasbag67
(g83
g69
NtRp1691
(dp1692
g72
(dp1693
sg81
g77
sg74
(lp1694
g67
(g88
g69
NtRp1695
(dp1696
g72
(dp1697
g92
g93
ssg81
g1691
sg74
(lp1698
S'global_settings'
p1699
asbag67
(g88
g69
NtRp1700
(dp1701
g72
(dp1702
g99
g100
ssg81
g1691
sg74
(lp1703
S':'
asbag67
(g88
g69
NtRp1704
(dp1705
g72
(dp1706
sg81
g1691
sg74
(lp1707
g67
(g68
g69
NtRp1708
(dp1709
g72
(dp1710
g80
I5
ssg81
g1704
sg74
(lp1711
g67
(g76
g69
NtRp1712
(dp1713
g72
(dp1714
g80
I4
ssg81
Nsg74
(lp1715
g67
(g83
g69
NtRp1716
(dp1717
g72
(dp1718
sg81
g1712
sg74
(lp1719
g67
(g88
g69
NtRp1720
(dp1721
g72
(dp1722
g92
g93
ssg81
g1716
sg74
(lp1723
g497
asbag67
(g88
g69
NtRp1724
(dp1725
g72
(dp1726
g99
g100
ssg81
g1716
sg74
(lp1727
S':'
asbag67
(g88
g69
NtRp1728
(dp1729
g72
(dp1730
sg81
g1716
sg74
(lp1731
g67
(g68
g69
NtRp1732
(dp1733
g72
(dp1734
g80
I4
ssg81
g1728
sg74
(lp1735
S"set(['/home/rsoutelino/web2py/applications/rsoutelino/', '/home/rsoutelino/web2py/applications/admin/'])"
p1736
asbasbasbag67
(g83
g69
NtRp1737
(dp1738
g72
(dp1739
sg81
g1712
sg74
(lp1740
g67
(g88
g69
NtRp1741
(dp1742
g72
(dp1743
g92
g93
ssg81
g1737
sg74
(lp1744
g519
asbag67
(g88
g69
NtRp1745
(dp1746
g72
(dp1747
g99
g100
ssg81
g1737
sg74
(lp1748
S':'
asbag67
(g88
g69
NtRp1749
(dp1750
g72
(dp1751
sg81
g1737
sg74
(lp1752
g67
(g68
g69
NtRp1753
(dp1754
g72
(dp1755
g80
I4
ssg81
g1749
sg74
(lp1756
g532
asbasbasbag67
(g83
g69
NtRp1757
(dp1758
g72
(dp1759
sg81
g1712
sg74
(lp1760
g67
(g88
g69
NtRp1761
(dp1762
g72
(dp1763
g92
g93
ssg81
g1757
sg74
(lp1764
g583
asbag67
(g88
g69
NtRp1765
(dp1766
g72
(dp1767
g99
g100
ssg81
g1757
sg74
(lp1768
S':'
asbag67
(g88
g69
NtRp1769
(dp1770
g72
(dp1771
sg81
g1757
sg74
(lp1772
g67
(g68
g69
NtRp1773
(dp1774
g72
(dp1775
g80
I4
ssg81
g1769
sg74
(lp1776
S'set([])'
p1777
asbasbasbag67
(g83
g69
NtRp1778
(dp1779
g72
(dp1780
sg81
g1712
sg74
(lp1781
g67
(g88
g69
NtRp1782
(dp1783
g72
(dp1784
g92
g93
ssg81
g1778
sg74
(lp1785
g605
asbag67
(g88
g69
NtRp1786
(dp1787
g72
(dp1788
g99
g100
ssg81
g1778
sg74
(lp1789
S':'
asbag67
(g88
g69
NtRp1790
(dp1791
g72
(dp1792
sg81
g1778
sg74
(lp1793
g67
(g68
g69
NtRp1794
(dp1795
g72
(dp1796
g80
I4
ssg81
g1790
sg74
(lp1797
g110
asbasbasbag67
(g83
g69
NtRp1798
(dp1799
g72
(dp1800
sg81
g1712
sg74
(lp1801
g67
(g88
g69
NtRp1802
(dp1803
g72
(dp1804
g92
g93
ssg81
g1798
sg74
(lp1805
g648
asbag67
(g88
g69
NtRp1806
(dp1807
g72
(dp1808
g99
g100
ssg81
g1798
sg74
(lp1809
S':'
asbag67
(g88
g69
NtRp1810
(dp1811
g72
(dp1812
sg81
g1798
sg74
(lp1813
g67
(g68
g69
NtRp1814
(dp1815
g72
(dp1816
g80
I4
ssg81
g1810
sg74
(lp1817
g532
asbasbasbag67
(g83
g69
NtRp1818
(dp1819
g72
(dp1820
sg81
g1712
sg74
(lp1821
g67
(g88
g69
NtRp1822
(dp1823
g72
(dp1824
g92
g93
ssg81
g1818
sg74
(lp1825
g932
asbag67
(g88
g69
NtRp1826
(dp1827
g72
(dp1828
g99
g100
ssg81
g1818
sg74
(lp1829
S':'
asbag67
(g88
g69
NtRp1830
(dp1831
g72
(dp1832
sg81
g1818
sg74
(lp1833
g67
(g68
g69
NtRp1834
(dp1835
g72
(dp1836
g80
I4
ssg81
g1830
sg74
(lp1837
g110
asbasbasbag67
(g83
g69
NtRp1838
(dp1839
g72
(dp1840
sg81
g1712
sg74
(lp1841
g67
(g88
g69
NtRp1842
(dp1843
g72
(dp1844
g92
g93
ssg81
g1838
sg74
(lp1845
g953
asbag67
(g88
g69
NtRp1846
(dp1847
g72
(dp1848
g99
g100
ssg81
g1838
sg74
(lp1849
S':'
asbag67
(g88
g69
NtRp1850
(dp1851
g72
(dp1852
sg81
g1838
sg74
(lp1853
g67
(g68
g69
NtRp1854
(dp1855
g72
(dp1856
g80
I4
ssg81
g1850
sg74
(lp1857
g110
asbasbasbag67
(g83
g69
NtRp1858
(dp1859
g72
(dp1860
sg81
g1712
sg74
(lp1861
g67
(g88
g69
NtRp1862
(dp1863
g72
(dp1864
g92
g93
ssg81
g1858
sg74
(lp1865
g974
asbag67
(g88
g69
NtRp1866
(dp1867
g72
(dp1868
g99
g100
ssg81
g1858
sg74
(lp1869
S':'
asbag67
(g88
g69
NtRp1870
(dp1871
g72
(dp1872
sg81
g1858
sg74
(lp1873
g67
(g68
g69
NtRp1874
(dp1875
g72
(dp1876
g80
I4
ssg81
g1870
sg74
(lp1877
g67
(g76
g69
NtRp1878
(dp1879
g72
(dp1880
g80
I3
ssg81
Nsg74
(lp1881
g67
(g83
g69
NtRp1882
(dp1883
g72
(dp1884
sg81
g1878
sg74
(lp1885
g67
(g88
g69
NtRp1886
(dp1887
g72
(dp1888
sg81
g1882
sg74
(lp1889
g67
(g68
g69
NtRp1890
(dp1891
g72
(dp1892
g80
I3
ssg81
g1886
sg74
(lp1893
g1003
asbasbasbag67
(g83
g69
NtRp1894
(dp1895
g72
(dp1896
sg81
g1878
sg74
(lp1897
g67
(g88
g69
NtRp1898
(dp1899
g72
(dp1900
sg81
g1894
sg74
(lp1901
g67
(g68
g69
NtRp1902
(dp1903
g72
(dp1904
g80
I3
ssg81
g1898
sg74
(lp1905
g1016
asbasbasbag67
(g83
g69
NtRp1906
(dp1907
g72
(dp1908
sg81
g1878
sg74
(lp1909
g67
(g88
g69
NtRp1910
(dp1911
g72
(dp1912
sg81
g1906
sg74
(lp1913
g67
(g68
g69
NtRp1914
(dp1915
g72
(dp1916
g80
I3
ssg81
g1910
sg74
(lp1917
g1029
asbasbasbasbasbasbasbag67
(g83
g69
NtRp1918
(dp1919
g72
(dp1920
sg81
g1712
sg74
(lp1921
g67
(g88
g69
NtRp1922
(dp1923
g72
(dp1924
g92
g93
ssg81
g1918
sg74
(lp1925
g1321
asbag67
(g88
g69
NtRp1926
(dp1927
g72
(dp1928
g99
g100
ssg81
g1918
sg74
(lp1929
S':'
asbag67
(g88
g69
NtRp1930
(dp1931
g72
(dp1932
sg81
g1918
sg74
(lp1933
g67
(g68
g69
NtRp1934
(dp1935
g72
(dp1936
g80
I4
ssg81
g1930
sg74
(lp1937
g67
(g76
g69
NtRp1938
(dp1939
g72
(dp1940
g80
I3
ssg81
Nsg74
(lp1941
g67
(g83
g69
NtRp1942
(dp1943
g72
(dp1944
sg81
g1938
sg74
(lp1945
g67
(g88
g69
NtRp1946
(dp1947
g72
(dp1948
sg81
g1942
sg74
(lp1949
g67
(g68
g69
NtRp1950
(dp1951
g72
(dp1952
g80
I3
ssg81
g1946
sg74
(lp1953
S'2'
asbasbasbag67
(g83
g69
NtRp1954
(dp1955
g72
(dp1956
sg81
g1938
sg74
(lp1957
g67
(g88
g69
NtRp1958
(dp1959
g72
(dp1960
sg81
g1954
sg74
(lp1961
g67
(g68
g69
NtRp1962
(dp1963
g72
(dp1964
g80
I3
ssg81
g1958
sg74
(lp1965
S'2'
asbasbasbag67
(g83
g69
NtRp1966
(dp1967
g72
(dp1968
sg81
g1938
sg74
(lp1969
g67
(g88
g69
NtRp1970
(dp1971
g72
(dp1972
sg81
g1966
sg74
(lp1973
g67
(g68
g69
NtRp1974
(dp1975
g72
(dp1976
g80
I3
ssg81
g1970
sg74
(lp1977
S'1'
asbasbasbag67
(g83
g69
NtRp1978
(dp1979
g72
(dp1980
sg81
g1938
sg74
(lp1981
g67
(g88
g69
NtRp1982
(dp1983
g72
(dp1984
sg81
g1978
sg74
(lp1985
g67
(g68
g69
NtRp1986
(dp1987
g72
(dp1988
g80
I3
ssg81
g1982
sg74
(lp1989
S'datetime.datetime(2012, 10, 21, 16, 57, 4)'
p1990
asbasbasbag67
(g83
g69
NtRp1991
(dp1992
g72
(dp1993
sg81
g1938
sg74
(lp1994
g67
(g88
g69
NtRp1995
(dp1996
g72
(dp1997
sg81
g1991
sg74
(lp1998
g67
(g68
g69
NtRp1999
(dp2000
g72
(dp2001
g80
I3
ssg81
g1995
sg74
(lp2002
g1399
asbasbasbasbasbasbasbasbasbasbasbag67
(g83
g69
NtRp2003
(dp2004
g72
(dp2005
sg81
g77
sg74
(lp2006
g67
(g88
g69
NtRp2007
(dp2008
g72
(dp2009
g92
g93
ssg81
g2003
sg74
(lp2010
S'is_https'
p2011
asbag67
(g88
g69
NtRp2012
(dp2013
g72
(dp2014
g99
g100
ssg81
g2003
sg74
(lp2015
S':'
asbag67
(g88
g69
NtRp2016
(dp2017
g72
(dp2018
sg81
g2003
sg74
(lp2019
g67
(g68
g69
NtRp2020
(dp2021
g72
(dp2022
g80
I5
ssg81
g2016
sg74
(lp2023
g110
asbasbasbag67
(g83
g69
NtRp2024
(dp2025
g72
(dp2026
sg81
g77
sg74
(lp2027
g67
(g88
g69
NtRp2028
(dp2029
g72
(dp2030
g92
g93
ssg81
g2024
sg74
(lp2031
S'is_local'
p2032
asbag67
(g88
g69
NtRp2033
(dp2034
g72
(dp2035
g99
g100
ssg81
g2024
sg74
(lp2036
S':'
asbag67
(g88
g69
NtRp2037
(dp2038
g72
(dp2039
sg81
g2024
sg74
(lp2040
g67
(g68
g69
NtRp2041
(dp2042
g72
(dp2043
g80
I5
ssg81
g2037
sg74
(lp2044
g110
asbasbasbag67
(g83
g69
NtRp2045
(dp2046
g72
(dp2047
sg81
g77
sg74
(lp2048
g67
(g88
g69
NtRp2049
(dp2050
g72
(dp2051
g92
g93
ssg81
g2045
sg74
(lp2052
S'is_restful'
p2053
asbag67
(g88
g69
NtRp2054
(dp2055
g72
(dp2056
g99
g100
ssg81
g2045
sg74
(lp2057
S':'
asbag67
(g88
g69
NtRp2058
(dp2059
g72
(dp2060
sg81
g2045
sg74
(lp2061
g67
(g68
g69
NtRp2062
(dp2063
g72
(dp2064
g80
I5
ssg81
g2058
sg74
(lp2065
g110
asbasbasbag67
(g83
g69
NtRp2066
(dp2067
g72
(dp2068
sg81
g77
sg74
(lp2069
g67
(g88
g69
NtRp2070
(dp2071
g72
(dp2072
g92
g93
ssg81
g2066
sg74
(lp2073
S'now'
p2074
asbag67
(g88
g69
NtRp2075
(dp2076
g72
(dp2077
g99
g100
ssg81
g2066
sg74
(lp2078
S':'
asbag67
(g88
g69
NtRp2079
(dp2080
g72
(dp2081
sg81
g2066
sg74
(lp2082
g67
(g68
g69
NtRp2083
(dp2084
g72
(dp2085
g80
I5
ssg81
g2079
sg74
(lp2086
S'datetime.datetime(2013, 2, 7, 12, 10, 5, 144011)'
p2087
asbasbasbag67
(g83
g69
NtRp2088
(dp2089
g72
(dp2090
sg81
g77
sg74
(lp2091
g67
(g88
g69
NtRp2092
(dp2093
g72
(dp2094
g92
g93
ssg81
g2088
sg74
(lp2095
S'post_vars'
p2096
asbag67
(g88
g69
NtRp2097
(dp2098
g72
(dp2099
g99
g100
ssg81
g2088
sg74
(lp2100
S':'
asbag67
(g88
g69
NtRp2101
(dp2102
g72
(dp2103
sg81
g2088
sg74
(lp2104
g67
(g68
g69
NtRp2105
(dp2106
g72
(dp2107
g80
I5
ssg81
g2101
sg74
(lp2108
g67
(g76
g69
NtRp2109
(dp2110
g72
(dp2111
g80
I4
ssg81
Nsg74
(lp2112
sbasbasbasbag67
(g83
g69
NtRp2113
(dp2114
g72
(dp2115
sg81
g77
sg74
(lp2116
g67
(g88
g69
NtRp2117
(dp2118
g72
(dp2119
g92
g93
ssg81
g2113
sg74
(lp2120
S'raw_args'
p2121
asbag67
(g88
g69
NtRp2122
(dp2123
g72
(dp2124
g99
g100
ssg81
g2113
sg74
(lp2125
S':'
asbag67
(g88
g69
NtRp2126
(dp2127
g72
(dp2128
sg81
g2113
sg74
(lp2129
g67
(g68
g69
NtRp2130
(dp2131
g72
(dp2132
g80
I5
ssg81
g2126
sg74
(lp2133
S''
asbasbasbag67
(g83
g69
NtRp2134
(dp2135
g72
(dp2136
sg81
g77
sg74
(lp2137
g67
(g88
g69
NtRp2138
(dp2139
g72
(dp2140
g92
g93
ssg81
g2134
sg74
(lp2141
S'raw_extension'
p2142
asbag67
(g88
g69
NtRp2143
(dp2144
g72
(dp2145
g99
g100
ssg81
g2134
sg74
(lp2146
S':'
asbag67
(g88
g69
NtRp2147
(dp2148
g72
(dp2149
sg81
g2134
sg74
(lp2150
g67
(g68
g69
NtRp2151
(dp2152
g72
(dp2153
g80
I5
ssg81
g2147
sg74
(lp2154
S'None'
p2155
asbasbasbag67
(g83
g69
NtRp2156
(dp2157
g72
(dp2158
sg81
g77
sg74
(lp2159
g67
(g88
g69
NtRp2160
(dp2161
g72
(dp2162
g92
g93
ssg81
g2156
sg74
(lp2163
S'url'
p2164
asbag67
(g88
g69
NtRp2165
(dp2166
g72
(dp2167
g99
g100
ssg81
g2156
sg74
(lp2168
S':'
asbag67
(g88
g69
NtRp2169
(dp2170
g72
(dp2171
sg81
g2156
sg74
(lp2172
g67
(g68
g69
NtRp2173
(dp2174
g72
(dp2175
g80
I5
ssg81
g2169
sg74
(lp2176
g1051
asbasbasbag67
(g83
g69
NtRp2177
(dp2178
g72
(dp2179
sg81
g77
sg74
(lp2180
g67
(g88
g69
NtRp2181
(dp2182
g72
(dp2183
g92
g93
ssg81
g2177
sg74
(lp2184
S'utcnow'
p2185
asbag67
(g88
g69
NtRp2186
(dp2187
g72
(dp2188
g99
g100
ssg81
g2177
sg74
(lp2189
S':'
asbag67
(g88
g69
NtRp2190
(dp2191
g72
(dp2192
sg81
g2177
sg74
(lp2193
g67
(g68
g69
NtRp2194
(dp2195
g72
(dp2196
g80
I5
ssg81
g2190
sg74
(lp2197
S'datetime.datetime(2013, 2, 7, 12, 10, 5, 144034)'
p2198
asbasbasbag67
(g83
g69
NtRp2199
(dp2200
g72
(dp2201
sg81
g77
sg74
(lp2202
g67
(g88
g69
NtRp2203
(dp2204
g72
(dp2205
g92
g93
ssg81
g2199
sg74
(lp2206
S'uuid'
p2207
asbag67
(g88
g69
NtRp2208
(dp2209
g72
(dp2210
g99
g100
ssg81
g2199
sg74
(lp2211
S':'
asbag67
(g88
g69
NtRp2212
(dp2213
g72
(dp2214
sg81
g2199
sg74
(lp2215
g67
(g68
g69
NtRp2216
(dp2217
g72
(dp2218
g80
I5
ssg81
g2212
sg74
(lp2219
S'rsoutelino/172.30.6.206.2013-02-07.12-10-05.497f287c-0f45-4b65-a87e-6cfa07cf5640'
p2220
asbasbasbag67
(g83
g69
NtRp2221
(dp2222
g72
(dp2223
sg81
g77
sg74
(lp2224
g67
(g88
g69
NtRp2225
(dp2226
g72
(dp2227
g92
g93
ssg81
g2221
sg74
(lp2228
S'vars'
p2229
asbag67
(g88
g69
NtRp2230
(dp2231
g72
(dp2232
g99
g100
ssg81
g2221
sg74
(lp2233
S':'
asbag67
(g88
g69
NtRp2234
(dp2235
g72
(dp2236
sg81
g2221
sg74
(lp2237
g67
(g68
g69
NtRp2238
(dp2239
g72
(dp2240
g80
I5
ssg81
g2234
sg74
(lp2241
g67
(g76
g69
NtRp2242
(dp2243
g72
(dp2244
g80
I4
ssg81
Nsg74
(lp2245
sbasbasbasbag67
(g83
g69
NtRp2246
(dp2247
g72
(dp2248
sg81
g77
sg74
(lp2249
g67
(g88
g69
NtRp2250
(dp2251
g72
(dp2252
g92
g93
ssg81
g2246
sg74
(lp2253
S'wsgi'
p2254
asbag67
(g88
g69
NtRp2255
(dp2256
g72
(dp2257
g99
g100
ssg81
g2246
sg74
(lp2258
S':'
asbag67
(g88
g69
NtRp2259
(dp2260
g72
(dp2261
sg81
g2246
sg74
(lp2262
g67
(g68
g69
NtRp2263
(dp2264
g72
(dp2265
g80
I5
ssg81
g2259
sg74
(lp2266
g67
(g76
g69
NtRp2267
(dp2268
g72
(dp2269
g80
I4
ssg81
Nsg74
(lp2270
g67
(g83
g69
NtRp2271
(dp2272
g72
(dp2273
sg81
g2267
sg74
(lp2274
g67
(g88
g69
NtRp2275
(dp2276
g72
(dp2277
g92
g93
ssg81
g2271
sg74
(lp2278
S'environ'
p2279
asbag67
(g88
g69
NtRp2280
(dp2281
g72
(dp2282
g99
g100
ssg81
g2271
sg74
(lp2283
S':'
asbag67
(g88
g69
NtRp2284
(dp2285
g72
(dp2286
sg81
g2271
sg74
(lp2287
g67
(g68
g69
NtRp2288
(dp2289
g72
(dp2290
g80
I4
ssg81
g2284
sg74
(lp2291
g67
(g76
g69
NtRp2292
(dp2293
g72
(dp2294
g80
I3
ssg81
Nsg74
(lp2295
g67
(g83
g69
NtRp2296
(dp2297
g72
(dp2298
sg81
g2292
sg74
(lp2299
g67
(g88
g69
NtRp2300
(dp2301
g72
(dp2302
g92
g93
ssg81
g2296
sg74
(lp2303
S'CONTENT_LENGTH'
p2304
asbag67
(g88
g69
NtRp2305
(dp2306
g72
(dp2307
g99
g100
ssg81
g2296
sg74
(lp2308
S':'
asbag67
(g88
g69
NtRp2309
(dp2310
g72
(dp2311
sg81
g2296
sg74
(lp2312
g67
(g68
g69
NtRp2313
(dp2314
g72
(dp2315
g80
I3
ssg81
g2309
sg74
(lp2316
S''
asbasbasbag67
(g83
g69
NtRp2317
(dp2318
g72
(dp2319
sg81
g2292
sg74
(lp2320
g67
(g88
g69
NtRp2321
(dp2322
g72
(dp2323
g92
g93
ssg81
g2317
sg74
(lp2324
S'CONTENT_TYPE'
p2325
asbag67
(g88
g69
NtRp2326
(dp2327
g72
(dp2328
g99
g100
ssg81
g2317
sg74
(lp2329
S':'
asbag67
(g88
g69
NtRp2330
(dp2331
g72
(dp2332
sg81
g2317
sg74
(lp2333
g67
(g68
g69
NtRp2334
(dp2335
g72
(dp2336
g80
I3
ssg81
g2330
sg74
(lp2337
S''
asbasbasbag67
(g83
g69
NtRp2338
(dp2339
g72
(dp2340
sg81
g2292
sg74
(lp2341
g67
(g88
g69
NtRp2342
(dp2343
g72
(dp2344
g92
g93
ssg81
g2338
sg74
(lp2345
S'DOCUMENT_ROOT'
p2346
asbag67
(g88
g69
NtRp2347
(dp2348
g72
(dp2349
g99
g100
ssg81
g2338
sg74
(lp2350
S':'
asbag67
(g88
g69
NtRp2351
(dp2352
g72
(dp2353
sg81
g2338
sg74
(lp2354
g67
(g68
g69
NtRp2355
(dp2356
g72
(dp2357
g80
I3
ssg81
g2351
sg74
(lp2358
g639
asbasbasbag67
(g83
g69
NtRp2359
(dp2360
g72
(dp2361
sg81
g2292
sg74
(lp2362
g67
(g88
g69
NtRp2363
(dp2364
g72
(dp2365
g92
g93
ssg81
g2359
sg74
(lp2366
S'HTTP_ACCEPT'
p2367
asbag67
(g88
g69
NtRp2368
(dp2369
g72
(dp2370
g99
g100
ssg81
g2359
sg74
(lp2371
S':'
asbag67
(g88
g69
NtRp2372
(dp2373
g72
(dp2374
sg81
g2359
sg74
(lp2375
g67
(g68
g69
NtRp2376
(dp2377
g72
(dp2378
g80
I3
ssg81
g2372
sg74
(lp2379
g682
asbasbasbag67
(g83
g69
NtRp2380
(dp2381
g72
(dp2382
sg81
g2292
sg74
(lp2383
g67
(g88
g69
NtRp2384
(dp2385
g72
(dp2386
g92
g93
ssg81
g2380
sg74
(lp2387
S'HTTP_ACCEPT_CHARSET'
p2388
asbag67
(g88
g69
NtRp2389
(dp2390
g72
(dp2391
g99
g100
ssg81
g2380
sg74
(lp2392
S':'
asbag67
(g88
g69
NtRp2393
(dp2394
g72
(dp2395
sg81
g2380
sg74
(lp2396
g67
(g68
g69
NtRp2397
(dp2398
g72
(dp2399
g80
I3
ssg81
g2393
sg74
(lp2400
g704
asbasbasbag67
(g83
g69
NtRp2401
(dp2402
g72
(dp2403
sg81
g2292
sg74
(lp2404
g67
(g88
g69
NtRp2405
(dp2406
g72
(dp2407
g92
g93
ssg81
g2401
sg74
(lp2408
S'HTTP_ACCEPT_ENCODING'
p2409
asbag67
(g88
g69
NtRp2410
(dp2411
g72
(dp2412
g99
g100
ssg81
g2401
sg74
(lp2413
S':'
asbag67
(g88
g69
NtRp2414
(dp2415
g72
(dp2416
sg81
g2401
sg74
(lp2417
g67
(g68
g69
NtRp2418
(dp2419
g72
(dp2420
g80
I3
ssg81
g2414
sg74
(lp2421
g726
asbasbasbag67
(g83
g69
NtRp2422
(dp2423
g72
(dp2424
sg81
g2292
sg74
(lp2425
g67
(g88
g69
NtRp2426
(dp2427
g72
(dp2428
g92
g93
ssg81
g2422
sg74
(lp2429
S'HTTP_ACCEPT_LANGUAGE'
p2430
asbag67
(g88
g69
NtRp2431
(dp2432
g72
(dp2433
g99
g100
ssg81
g2422
sg74
(lp2434
S':'
asbag67
(g88
g69
NtRp2435
(dp2436
g72
(dp2437
sg81
g2422
sg74
(lp2438
g67
(g68
g69
NtRp2439
(dp2440
g72
(dp2441
g80
I3
ssg81
g2435
sg74
(lp2442
g748
asbasbasbag67
(g83
g69
NtRp2443
(dp2444
g72
(dp2445
sg81
g2292
sg74
(lp2446
g67
(g88
g69
NtRp2447
(dp2448
g72
(dp2449
g92
g93
ssg81
g2443
sg74
(lp2450
S'HTTP_CACHE_CONTROL'
p2451
asbag67
(g88
g69
NtRp2452
(dp2453
g72
(dp2454
g99
g100
ssg81
g2443
sg74
(lp2455
S':'
asbag67
(g88
g69
NtRp2456
(dp2457
g72
(dp2458
sg81
g2443
sg74
(lp2459
g67
(g68
g69
NtRp2460
(dp2461
g72
(dp2462
g80
I3
ssg81
g2456
sg74
(lp2463
g770
asbasbasbag67
(g83
g69
NtRp2464
(dp2465
g72
(dp2466
sg81
g2292
sg74
(lp2467
g67
(g88
g69
NtRp2468
(dp2469
g72
(dp2470
g92
g93
ssg81
g2464
sg74
(lp2471
S'HTTP_CONNECTION'
p2472
asbag67
(g88
g69
NtRp2473
(dp2474
g72
(dp2475
g99
g100
ssg81
g2464
sg74
(lp2476
S':'
asbag67
(g88
g69
NtRp2477
(dp2478
g72
(dp2479
sg81
g2464
sg74
(lp2480
g67
(g68
g69
NtRp2481
(dp2482
g72
(dp2483
g80
I3
ssg81
g2477
sg74
(lp2484
g792
asbasbasbag67
(g83
g69
NtRp2485
(dp2486
g72
(dp2487
sg81
g2292
sg74
(lp2488
g67
(g88
g69
NtRp2489
(dp2490
g72
(dp2491
g92
g93
ssg81
g2485
sg74
(lp2492
S'HTTP_COOKIE'
p2493
asbag67
(g88
g69
NtRp2494
(dp2495
g72
(dp2496
g99
g100
ssg81
g2485
sg74
(lp2497
S':'
asbag67
(g88
g69
NtRp2498
(dp2499
g72
(dp2500
sg81
g2485
sg74
(lp2501
g67
(g68
g69
NtRp2502
(dp2503
g72
(dp2504
g80
I3
ssg81
g2498
sg74
(lp2505
g814
asbasbasbag67
(g83
g69
NtRp2506
(dp2507
g72
(dp2508
sg81
g2292
sg74
(lp2509
g67
(g88
g69
NtRp2510
(dp2511
g72
(dp2512
g92
g93
ssg81
g2506
sg74
(lp2513
S'HTTP_HOST'
p2514
asbag67
(g88
g69
NtRp2515
(dp2516
g72
(dp2517
g99
g100
ssg81
g2506
sg74
(lp2518
S':'
asbag67
(g88
g69
NtRp2519
(dp2520
g72
(dp2521
sg81
g2506
sg74
(lp2522
g67
(g68
g69
NtRp2523
(dp2524
g72
(dp2525
g80
I3
ssg81
g2519
sg74
(lp2526
g836
asbasbasbag67
(g83
g69
NtRp2527
(dp2528
g72
(dp2529
sg81
g2292
sg74
(lp2530
g67
(g88
g69
NtRp2531
(dp2532
g72
(dp2533
g92
g93
ssg81
g2527
sg74
(lp2534
S'HTTP_REFERER'
p2535
asbag67
(g88
g69
NtRp2536
(dp2537
g72
(dp2538
g99
g100
ssg81
g2527
sg74
(lp2539
S':'
asbag67
(g88
g69
NtRp2540
(dp2541
g72
(dp2542
sg81
g2527
sg74
(lp2543
g67
(g68
g69
NtRp2544
(dp2545
g72
(dp2546
g80
I3
ssg81
g2540
sg74
(lp2547
g858
asbasbasbag67
(g83
g69
NtRp2548
(dp2549
g72
(dp2550
sg81
g2292
sg74
(lp2551
g67
(g88
g69
NtRp2552
(dp2553
g72
(dp2554
g92
g93
ssg81
g2548
sg74
(lp2555
S'HTTP_USER_AGENT'
p2556
asbag67
(g88
g69
NtRp2557
(dp2558
g72
(dp2559
g99
g100
ssg81
g2548
sg74
(lp2560
S':'
asbag67
(g88
g69
NtRp2561
(dp2562
g72
(dp2563
sg81
g2548
sg74
(lp2564
g67
(g68
g69
NtRp2565
(dp2566
g72
(dp2567
g80
I3
ssg81
g2561
sg74
(lp2568
g880
asbasbasbag67
(g83
g69
NtRp2569
(dp2570
g72
(dp2571
sg81
g2292
sg74
(lp2572
g67
(g88
g69
NtRp2573
(dp2574
g72
(dp2575
g92
g93
ssg81
g2569
sg74
(lp2576
S'HTTP_VIA'
p2577
asbag67
(g88
g69
NtRp2578
(dp2579
g72
(dp2580
g99
g100
ssg81
g2569
sg74
(lp2581
S':'
asbag67
(g88
g69
NtRp2582
(dp2583
g72
(dp2584
sg81
g2569
sg74
(lp2585
g67
(g68
g69
NtRp2586
(dp2587
g72
(dp2588
g80
I3
ssg81
g2582
sg74
(lp2589
g902
asbasbasbag67
(g83
g69
NtRp2590
(dp2591
g72
(dp2592
sg81
g2292
sg74
(lp2593
g67
(g88
g69
NtRp2594
(dp2595
g72
(dp2596
g92
g93
ssg81
g2590
sg74
(lp2597
S'HTTP_X_FORWARDED_FOR'
p2598
asbag67
(g88
g69
NtRp2599
(dp2600
g72
(dp2601
g99
g100
ssg81
g2590
sg74
(lp2602
S':'
asbag67
(g88
g69
NtRp2603
(dp2604
g72
(dp2605
sg81
g2590
sg74
(lp2606
g67
(g68
g69
NtRp2607
(dp2608
g72
(dp2609
g80
I3
ssg81
g2603
sg74
(lp2610
g222
asbasbasbag67
(g83
g69
NtRp2611
(dp2612
g72
(dp2613
sg81
g2292
sg74
(lp2614
g67
(g88
g69
NtRp2615
(dp2616
g72
(dp2617
g92
g93
ssg81
g2611
sg74
(lp2618
S'PATH_INFO'
p2619
asbag67
(g88
g69
NtRp2620
(dp2621
g72
(dp2622
g99
g100
ssg81
g2611
sg74
(lp2623
S':'
asbag67
(g88
g69
NtRp2624
(dp2625
g72
(dp2626
sg81
g2611
sg74
(lp2627
g67
(g68
g69
NtRp2628
(dp2629
g72
(dp2630
g80
I3
ssg81
g2624
sg74
(lp2631
g1051
asbasbasbag67
(g83
g69
NtRp2632
(dp2633
g72
(dp2634
sg81
g2292
sg74
(lp2635
g67
(g88
g69
NtRp2636
(dp2637
g72
(dp2638
g92
g93
ssg81
g2632
sg74
(lp2639
S'QUERY_STRING'
p2640
asbag67
(g88
g69
NtRp2641
(dp2642
g72
(dp2643
g99
g100
ssg81
g2632
sg74
(lp2644
S':'
asbag67
(g88
g69
NtRp2645
(dp2646
g72
(dp2647
sg81
g2632
sg74
(lp2648
g67
(g68
g69
NtRp2649
(dp2650
g72
(dp2651
g80
I3
ssg81
g2645
sg74
(lp2652
S''
asbasbasbag67
(g83
g69
NtRp2653
(dp2654
g72
(dp2655
sg81
g2292
sg74
(lp2656
g67
(g88
g69
NtRp2657
(dp2658
g72
(dp2659
g92
g93
ssg81
g2653
sg74
(lp2660
S'REMOTE_ADDR'
p2661
asbag67
(g88
g69
NtRp2662
(dp2663
g72
(dp2664
g99
g100
ssg81
g2653
sg74
(lp2665
S':'
asbag67
(g88
g69
NtRp2666
(dp2667
g72
(dp2668
sg81
g2653
sg74
(lp2669
g67
(g68
g69
NtRp2670
(dp2671
g72
(dp2672
g80
I3
ssg81
g2666
sg74
(lp2673
g1094
asbasbasbag67
(g83
g69
NtRp2674
(dp2675
g72
(dp2676
sg81
g2292
sg74
(lp2677
g67
(g88
g69
NtRp2678
(dp2679
g72
(dp2680
g92
g93
ssg81
g2674
sg74
(lp2681
S'REMOTE_PORT'
p2682
asbag67
(g88
g69
NtRp2683
(dp2684
g72
(dp2685
g99
g100
ssg81
g2674
sg74
(lp2686
S':'
asbag67
(g88
g69
NtRp2687
(dp2688
g72
(dp2689
sg81
g2674
sg74
(lp2690
g67
(g68
g69
NtRp2691
(dp2692
g72
(dp2693
g80
I3
ssg81
g2687
sg74
(lp2694
g1116
asbasbasbag67
(g83
g69
NtRp2695
(dp2696
g72
(dp2697
sg81
g2292
sg74
(lp2698
g67
(g88
g69
NtRp2699
(dp2700
g72
(dp2701
g92
g93
ssg81
g2695
sg74
(lp2702
S'REQUEST_METHOD'
p2703
asbag67
(g88
g69
NtRp2704
(dp2705
g72
(dp2706
g99
g100
ssg81
g2695
sg74
(lp2707
S':'
asbag67
(g88
g69
NtRp2708
(dp2709
g72
(dp2710
sg81
g2695
sg74
(lp2711
g67
(g68
g69
NtRp2712
(dp2713
g72
(dp2714
g80
I3
ssg81
g2708
sg74
(lp2715
g1138
asbasbasbag67
(g83
g69
NtRp2716
(dp2717
g72
(dp2718
sg81
g2292
sg74
(lp2719
g67
(g88
g69
NtRp2720
(dp2721
g72
(dp2722
g92
g93
ssg81
g2716
sg74
(lp2723
S'REQUEST_URI'
p2724
asbag67
(g88
g69
NtRp2725
(dp2726
g72
(dp2727
g99
g100
ssg81
g2716
sg74
(lp2728
S':'
asbag67
(g88
g69
NtRp2729
(dp2730
g72
(dp2731
sg81
g2716
sg74
(lp2732
g67
(g68
g69
NtRp2733
(dp2734
g72
(dp2735
g80
I3
ssg81
g2729
sg74
(lp2736
g1160
asbasbasbag67
(g83
g69
NtRp2737
(dp2738
g72
(dp2739
sg81
g2292
sg74
(lp2740
g67
(g88
g69
NtRp2741
(dp2742
g72
(dp2743
g92
g93
ssg81
g2737
sg74
(lp2744
S'SCRIPT_NAME'
p2745
asbag67
(g88
g69
NtRp2746
(dp2747
g72
(dp2748
g99
g100
ssg81
g2737
sg74
(lp2749
S':'
asbag67
(g88
g69
NtRp2750
(dp2751
g72
(dp2752
sg81
g2737
sg74
(lp2753
g67
(g68
g69
NtRp2754
(dp2755
g72
(dp2756
g80
I3
ssg81
g2750
sg74
(lp2757
S''
asbasbasbag67
(g83
g69
NtRp2758
(dp2759
g72
(dp2760
sg81
g2292
sg74
(lp2761
g67
(g88
g69
NtRp2762
(dp2763
g72
(dp2764
g92
g93
ssg81
g2758
sg74
(lp2765
S'SERVER_NAME'
p2766
asbag67
(g88
g69
NtRp2767
(dp2768
g72
(dp2769
g99
g100
ssg81
g2758
sg74
(lp2770
S':'
asbag67
(g88
g69
NtRp2771
(dp2772
g72
(dp2773
sg81
g2758
sg74
(lp2774
g67
(g68
g69
NtRp2775
(dp2776
g72
(dp2777
g80
I3
ssg81
g2771
sg74
(lp2778
g1203
asbasbasbag67
(g83
g69
NtRp2779
(dp2780
g72
(dp2781
sg81
g2292
sg74
(lp2782
g67
(g88
g69
NtRp2783
(dp2784
g72
(dp2785
g92
g93
ssg81
g2779
sg74
(lp2786
S'SERVER_PORT'
p2787
asbag67
(g88
g69
NtRp2788
(dp2789
g72
(dp2790
g99
g100
ssg81
g2779
sg74
(lp2791
S':'
asbag67
(g88
g69
NtRp2792
(dp2793
g72
(dp2794
sg81
g2779
sg74
(lp2795
g67
(g68
g69
NtRp2796
(dp2797
g72
(dp2798
g80
I3
ssg81
g2792
sg74
(lp2799
g1225
asbasbasbag67
(g83
g69
NtRp2800
(dp2801
g72
(dp2802
sg81
g2292
sg74
(lp2803
g67
(g88
g69
NtRp2804
(dp2805
g72
(dp2806
g92
g93
ssg81
g2800
sg74
(lp2807
S'SERVER_PROTOCOL'
p2808
asbag67
(g88
g69
NtRp2809
(dp2810
g72
(dp2811
g99
g100
ssg81
g2800
sg74
(lp2812
S':'
asbag67
(g88
g69
NtRp2813
(dp2814
g72
(dp2815
sg81
g2800
sg74
(lp2816
g67
(g68
g69
NtRp2817
(dp2818
g72
(dp2819
g80
I3
ssg81
g2813
sg74
(lp2820
g1247
asbasbasbag67
(g83
g69
NtRp2821
(dp2822
g72
(dp2823
sg81
g2292
sg74
(lp2824
g67
(g88
g69
NtRp2825
(dp2826
g72
(dp2827
g92
g93
ssg81
g2821
sg74
(lp2828
S'uwsgi.node'
p2829
asbag67
(g88
g69
NtRp2830
(dp2831
g72
(dp2832
g99
g100
ssg81
g2821
sg74
(lp2833
S':'
asbag67
(g88
g69
NtRp2834
(dp2835
g72
(dp2836
sg81
g2821
sg74
(lp2837
g67
(g68
g69
NtRp2838
(dp2839
g72
(dp2840
g80
I3
ssg81
g2834
sg74
(lp2841
g1269
asbasbasbag67
(g83
g69
NtRp2842
(dp2843
g72
(dp2844
sg81
g2292
sg74
(lp2845
g67
(g88
g69
NtRp2846
(dp2847
g72
(dp2848
g92
g93
ssg81
g2842
sg74
(lp2849
S'uwsgi.version'
p2850
asbag67
(g88
g69
NtRp2851
(dp2852
g72
(dp2853
g99
g100
ssg81
g2842
sg74
(lp2854
S':'
asbag67
(g88
g69
NtRp2855
(dp2856
g72
(dp2857
sg81
g2842
sg74
(lp2858
g67
(g68
g69
NtRp2859
(dp2860
g72
(dp2861
g80
I3
ssg81
g2855
sg74
(lp2862
g1291
asbasbasbag67
(g83
g69
NtRp2863
(dp2864
g72
(dp2865
sg81
g2292
sg74
(lp2866
g67
(g88
g69
NtRp2867
(dp2868
g72
(dp2869
g92
g93
ssg81
g2863
sg74
(lp2870
S'wsgi.errors'
p2871
asbag67
(g88
g69
NtRp2872
(dp2873
g72
(dp2874
g99
g100
ssg81
g2863
sg74
(lp2875
S':'
asbag67
(g88
g69
NtRp2876
(dp2877
g72
(dp2878
sg81
g2863
sg74
(lp2879
g67
(g68
g69
NtRp2880
(dp2881
g72
(dp2882
g80
I3
ssg81
g2876
sg74
(lp2883
S'<uwsgi_file__bin_user_wsgi_wrapper.ErrorLogWrapper object at 0x23e5ed0>'
p2884
asbasbasbag67
(g83
g69
NtRp2885
(dp2886
g72
(dp2887
sg81
g2292
sg74
(lp2888
g67
(g88
g69
NtRp2889
(dp2890
g72
(dp2891
g92
g93
ssg81
g2885
sg74
(lp2892
S'wsgi.file_wrapper'
p2893
asbag67
(g88
g69
NtRp2894
(dp2895
g72
(dp2896
g99
g100
ssg81
g2885
sg74
(lp2897
S':'
asbag67
(g88
g69
NtRp2898
(dp2899
g72
(dp2900
sg81
g2885
sg74
(lp2901
g67
(g68
g69
NtRp2902
(dp2903
g72
(dp2904
g80
I3
ssg81
g2898
sg74
(lp2905
S'<built-in function uwsgi_sendfile>'
p2906
asbasbasbag67
(g83
g69
NtRp2907
(dp2908
g72
(dp2909
sg81
g2292
sg74
(lp2910
g67
(g88
g69
NtRp2911
(dp2912
g72
(dp2913
g92
g93
ssg81
g2907
sg74
(lp2914
S'wsgi.input'
p2915
asbag67
(g88
g69
NtRp2916
(dp2917
g72
(dp2918
g99
g100
ssg81
g2907
sg74
(lp2919
S':'
asbag67
(g88
g69
NtRp2920
(dp2921
g72
(dp2922
sg81
g2907
sg74
(lp2923
g67
(g68
g69
NtRp2924
(dp2925
g72
(dp2926
g80
I3
ssg81
g2920
sg74
(lp2927
S'<cStringIO.StringO object at 0x33048f0>'
p2928
asbasbasbag67
(g83
g69
NtRp2929
(dp2930
g72
(dp2931
sg81
g2292
sg74
(lp2932
g67
(g88
g69
NtRp2933
(dp2934
g72
(dp2935
g92
g93
ssg81
g2929
sg74
(lp2936
S'wsgi.multiprocess'
p2937
asbag67
(g88
g69
NtRp2938
(dp2939
g72
(dp2940
g99
g100
ssg81
g2929
sg74
(lp2941
S':'
asbag67
(g88
g69
NtRp2942
(dp2943
g72
(dp2944
sg81
g2929
sg74
(lp2945
g67
(g68
g69
NtRp2946
(dp2947
g72
(dp2948
g80
I3
ssg81
g2942
sg74
(lp2949
g110
asbasbasbag67
(g83
g69
NtRp2950
(dp2951
g72
(dp2952
sg81
g2292
sg74
(lp2953
g67
(g88
g69
NtRp2954
(dp2955
g72
(dp2956
g92
g93
ssg81
g2950
sg74
(lp2957
S'wsgi.multithread'
p2958
asbag67
(g88
g69
NtRp2959
(dp2960
g72
(dp2961
g99
g100
ssg81
g2950
sg74
(lp2962
S':'
asbag67
(g88
g69
NtRp2963
(dp2964
g72
(dp2965
sg81
g2950
sg74
(lp2966
g67
(g68
g69
NtRp2967
(dp2968
g72
(dp2969
g80
I3
ssg81
g2963
sg74
(lp2970
g110
asbasbasbag67
(g83
g69
NtRp2971
(dp2972
g72
(dp2973
sg81
g2292
sg74
(lp2974
g67
(g88
g69
NtRp2975
(dp2976
g72
(dp2977
g92
g93
ssg81
g2971
sg74
(lp2978
S'wsgi.run_once'
p2979
asbag67
(g88
g69
NtRp2980
(dp2981
g72
(dp2982
g99
g100
ssg81
g2971
sg74
(lp2983
S':'
asbag67
(g88
g69
NtRp2984
(dp2985
g72
(dp2986
sg81
g2971
sg74
(lp2987
g67
(g68
g69
NtRp2988
(dp2989
g72
(dp2990
g80
I3
ssg81
g2984
sg74
(lp2991
g110
asbasbasbag67
(g83
g69
NtRp2992
(dp2993
g72
(dp2994
sg81
g2292
sg74
(lp2995
g67
(g88
g69
NtRp2996
(dp2997
g72
(dp2998
g92
g93
ssg81
g2992
sg74
(lp2999
S'wsgi.url_scheme'
p3000
asbag67
(g88
g69
NtRp3001
(dp3002
g72
(dp3003
g99
g100
ssg81
g2992
sg74
(lp3004
S':'
asbag67
(g88
g69
NtRp3005
(dp3006
g72
(dp3007
sg81
g2992
sg74
(lp3008
g67
(g68
g69
NtRp3009
(dp3010
g72
(dp3011
g80
I3
ssg81
g3005
sg74
(lp3012
g1550
asbasbasbag67
(g83
g69
NtRp3013
(dp3014
g72
(dp3015
sg81
g2292
sg74
(lp3016
g67
(g88
g69
NtRp3017
(dp3018
g72
(dp3019
g92
g93
ssg81
g3013
sg74
(lp3020
S'wsgi.version'
p3021
asbag67
(g88
g69
NtRp3022
(dp3023
g72
(dp3024
g99
g100
ssg81
g3013
sg74
(lp3025
S':'
asbag67
(g88
g69
NtRp3026
(dp3027
g72
(dp3028
sg81
g3013
sg74
(lp3029
g67
(g68
g69
NtRp3030
(dp3031
g72
(dp3032
g80
I3
ssg81
g3026
sg74
(lp3033
S'1'
asbasbasbasbasbasbasbasbasbasbasbasbasbsS'frames'
p3034
(lp3035
(dp3036
S'file'
p3037
S'/home/rsoutelino/web2py/gluon/restricted.py'
p3038
sS'dump'
p3039
(dp3040
S'code'
p3041
S"'\\ndef contact():\\n    form = SQLFORM(db.contacts)\\n...m=form)\\nresponse._vars=response._caller(contact)\\n'"
p3042
sS'layer'
p3043
S"'/home/rsoutelino/web2py/applications/rsoutelino/controllers/contact.py'"
p3044
sS'global compile2'
p3045
S'<function compile2>'
p3046
sS'ccode'
p3047
S'undefined'
p3048
ssS'lnum'
p3049
I211
sS'lines'
p3050
(dp3051
I206
S"    environment['__name__'] = '__restricted__'"
p3052
sI207
S'    try:'
p3053
sI208
S'        if isinstance(code, types.CodeType):'
p3054
sI209
S'            ccode = code'
p3055
sI210
S'        else:'
p3056
sI211
S'            ccode = compile2(code, layer)'
p3057
sI212
S'        exec ccode in environment'
p3058
sI213
S'    except HTTP:'
p3059
sI214
S'        raise'
p3060
sI215
S'    except RestrictedError:'
p3061
ssS'call'
p3062
S"(code='\\ndef contact():\\n    form = SQLFORM(db.contacts)\\n...m=form)\\nresponse._vars=response._caller(contact)\\n', environment={'A': <class 'gluon.html.A'>, 'Auth': <class 'gluon.tools.Auth'>, 'B': <class 'gluon.html.B'>, 'BEAUTIFY': <class 'gluon.html.BEAUTIFY'>, 'BODY': <class 'gluon.html.BODY'>, 'BR': <class 'gluon.html.BR'>, 'BUTTON': <class 'gluon.html.BUTTON'>, 'CAT': <class 'gluon.html.CAT'>, 'CENTER': <class 'gluon.html.CENTER'>, 'CLEANUP': <class 'gluon.validators.CLEANUP'>, ...}, layer='/home/rsoutelino/web2py/applications/rsoutelino/controllers/contact.py')"
p3063
sS'func'
p3064
S'restricted'
p3065
sa(dp3066
g3037
S'/home/rsoutelino/web2py/gluon/restricted.py'
p3067
sg3039
(dp3068
S'builtincompile'
p3069
S'<built-in function compile>'
p3070
sS'code'
p3071
S"'\\ndef contact():\\n    form = SQLFORM(db.contacts)\\n...m=form)\\nresponse._vars=response._caller(contact)\\n'"
p3072
sS'code.rstrip'
p3073
S'<built-in method rstrip of str object>'
p3074
sS').replace'
p3075
g3048
sS'layer'
p3076
S"'/home/rsoutelino/web2py/applications/rsoutelino/controllers/contact.py'"
p3077
ssg3049
I194
sg3050
(dp3078
I192
S"    The +'\\n' is necessary else compile fails when code ends in a comment."
p3079
sI193
S'    """'
p3080
sI194
S"    return compile(code.rstrip().replace('\\r\\n', '\\n') + '\\n', layer, 'exec')"
p3081
sI195
S''
sI196
S''
sI197
S"def restricted(code, environment=None, layer='Unknown'):"
p3082
sI198
S'    """'
p3083
sI189
S''
sI190
S'def compile2(code, layer):'
p3084
sI191
S'    """'
p3085
ssg3062
S"(code='\\ndef contact():\\n    form = SQLFORM(db.contacts)\\n...m=form)\\nresponse._vars=response._caller(contact)\\n', layer='/home/rsoutelino/web2py/applications/rsoutelino/controllers/contact.py')"
p3086
sg3064
S'compile2'
p3087
sasS'pyver'
p3088
S'Python 2.7.3: /usr/local/bin/uwsgi'
p3089
sS'session'
p3090
g67
(g68
g69
NtRp3091
(dp3092
g72
(dp3093
sg74
(lp3094
g67
(g76
g69
NtRp3095
(dp3096
g72
(dp3097
g80
I5
ssg81
Nsg74
(lp3098
sbasbsS'etype'
p3099
S"<type 'exceptions.IndentationError'>"
p3100
sS'date'
p3101
S'Thu Feb  7 12:10:05 2013'
p3102
sS'response'
p3103
g67
(g68
g69
NtRp3104
(dp3105
g72
(dp3106
sg74
(lp3107
g67
(g76
g69
NtRp3108
(dp3109
g72
(dp3110
g80
I5
ssg81
Nsg74
(lp3111
g67
(g83
g69
NtRp3112
(dp3113
g72
(dp3114
sg81
g3108
sg74
(lp3115
g67
(g88
g69
NtRp3116
(dp3117
g72
(dp3118
g92
g93
ssg81
g3112
sg74
(lp3119
g165
asbag67
(g88
g69
NtRp3120
(dp3121
g72
(dp3122
g99
g100
ssg81
g3112
sg74
(lp3123
S':'
asbag67
(g88
g69
NtRp3124
(dp3125
g72
(dp3126
sg81
g3112
sg74
(lp3127
g67
(g68
g69
NtRp3128
(dp3129
g72
(dp3130
g80
I5
ssg81
g3124
sg74
(lp3131
S'<cStringIO.StringO object at 0x24131b8>'
p3132
asbasbasbag67
(g83
g69
NtRp3133
(dp3134
g72
(dp3135
sg81
g3108
sg74
(lp3136
g67
(g88
g69
NtRp3137
(dp3138
g72
(dp3139
g92
g93
ssg81
g3133
sg74
(lp3140
g253
asbag67
(g88
g69
NtRp3141
(dp3142
g72
(dp3143
g99
g100
ssg81
g3133
sg74
(lp3144
S':'
asbag67
(g88
g69
NtRp3145
(dp3146
g72
(dp3147
sg81
g3133
sg74
(lp3148
g67
(g68
g69
NtRp3149
(dp3150
g72
(dp3151
g80
I5
ssg81
g3145
sg74
(lp3152
g67
(g76
g69
NtRp3153
(dp3154
g72
(dp3155
g80
I4
ssg81
Nsg74
(lp3156
g67
(g83
g69
NtRp3157
(dp3158
g72
(dp3159
sg81
g3153
sg74
(lp3160
g67
(g88
g69
NtRp3161
(dp3162
g72
(dp3163
g92
g93
ssg81
g3157
sg74
(lp3164
S'session_id_rsoutelino'
p3165
asbag67
(g88
g69
NtRp3166
(dp3167
g72
(dp3168
g99
g100
ssg81
g3157
sg74
(lp3169
S':'
asbag67
(g88
g69
NtRp3170
(dp3171
g72
(dp3172
sg81
g3157
sg74
(lp3173
g67
(g68
g69
NtRp3174
(dp3175
g72
(dp3176
g80
I4
ssg81
g3170
sg74
(lp3177
S'172.30.6.206-3925374d-3851-42a7-ae51-62e486a5e9eb'
p3178
ag67
(g76
g69
NtRp3179
(dp3180
g72
(dp3181
g80
I3
ssg81
Nsg74
(lp3182
g67
(g83
g69
NtRp3183
(dp3184
g72
(dp3185
sg81
g3179
sg74
(lp3186
g67
(g88
g69
NtRp3187
(dp3188
g72
(dp3189
g92
g93
ssg81
g3183
sg74
(lp3190
g304
asbag67
(g88
g69
NtRp3191
(dp3192
g72
(dp3193
g99
g100
ssg81
g3183
sg74
(lp3194
S':'
asbag67
(g88
g69
NtRp3195
(dp3196
g72
(dp3197
sg81
g3183
sg74
(lp3198
g67
(g68
g69
NtRp3199
(dp3200
g72
(dp3201
g80
I3
ssg81
g3195
sg74
(lp3202
S''
asbasbasbag67
(g83
g69
NtRp3203
(dp3204
g72
(dp3205
sg81
g3179
sg74
(lp3206
g67
(g88
g69
NtRp3207
(dp3208
g72
(dp3209
g92
g93
ssg81
g3203
sg74
(lp3210
g325
asbag67
(g88
g69
NtRp3211
(dp3212
g72
(dp3213
g99
g100
ssg81
g3203
sg74
(lp3214
S':'
asbag67
(g88
g69
NtRp3215
(dp3216
g72
(dp3217
sg81
g3203
sg74
(lp3218
g67
(g68
g69
NtRp3219
(dp3220
g72
(dp3221
g80
I3
ssg81
g3215
sg74
(lp3222
S''
asbasbasbag67
(g83
g69
NtRp3223
(dp3224
g72
(dp3225
sg81
g3179
sg74
(lp3226
g67
(g88
g69
NtRp3227
(dp3228
g72
(dp3229
g92
g93
ssg81
g3223
sg74
(lp3230
g346
asbag67
(g88
g69
NtRp3231
(dp3232
g72
(dp3233
g99
g100
ssg81
g3223
sg74
(lp3234
S':'
asbag67
(g88
g69
NtRp3235
(dp3236
g72
(dp3237
sg81
g3223
sg74
(lp3238
g67
(g68
g69
NtRp3239
(dp3240
g72
(dp3241
g80
I3
ssg81
g3235
sg74
(lp3242
S''
asbasbasbag67
(g83
g69
NtRp3243
(dp3244
g72
(dp3245
sg81
g3179
sg74
(lp3246
g67
(g88
g69
NtRp3247
(dp3248
g72
(dp3249
g92
g93
ssg81
g3243
sg74
(lp3250
g367
asbag67
(g88
g69
NtRp3251
(dp3252
g72
(dp3253
g99
g100
ssg81
g3243
sg74
(lp3254
S':'
asbag67
(g88
g69
NtRp3255
(dp3256
g72
(dp3257
sg81
g3243
sg74
(lp3258
g67
(g68
g69
NtRp3259
(dp3260
g72
(dp3261
g80
I3
ssg81
g3255
sg74
(lp3262
S''
asbasbasbag67
(g83
g69
NtRp3263
(dp3264
g72
(dp3265
sg81
g3179
sg74
(lp3266
g67
(g88
g69
NtRp3267
(dp3268
g72
(dp3269
g92
g93
ssg81
g3263
sg74
(lp3270
g388
asbag67
(g88
g69
NtRp3271
(dp3272
g72
(dp3273
g99
g100
ssg81
g3263
sg74
(lp3274
S':'
asbag67
(g88
g69
NtRp3275
(dp3276
g72
(dp3277
sg81
g3263
sg74
(lp3278
g67
(g68
g69
NtRp3279
(dp3280
g72
(dp3281
g80
I3
ssg81
g3275
sg74
(lp3282
S''
asbasbasbag67
(g83
g69
NtRp3283
(dp3284
g72
(dp3285
sg81
g3179
sg74
(lp3286
g67
(g88
g69
NtRp3287
(dp3288
g72
(dp3289
g92
g93
ssg81
g3283
sg74
(lp3290
g409
asbag67
(g88
g69
NtRp3291
(dp3292
g72
(dp3293
g99
g100
ssg81
g3283
sg74
(lp3294
S':'
asbag67
(g88
g69
NtRp3295
(dp3296
g72
(dp3297
sg81
g3283
sg74
(lp3298
g67
(g68
g69
NtRp3299
(dp3300
g72
(dp3301
g80
I3
ssg81
g3295
sg74
(lp3302
S'/'
asbasbasbag67
(g83
g69
NtRp3303
(dp3304
g72
(dp3305
sg81
g3179
sg74
(lp3306
g67
(g88
g69
NtRp3307
(dp3308
g72
(dp3309
g92
g93
ssg81
g3303
sg74
(lp3310
g430
asbag67
(g88
g69
NtRp3311
(dp3312
g72
(dp3313
g99
g100
ssg81
g3303
sg74
(lp3314
S':'
asbag67
(g88
g69
NtRp3315
(dp3316
g72
(dp3317
sg81
g3303
sg74
(lp3318
g67
(g68
g69
NtRp3319
(dp3320
g72
(dp3321
g80
I3
ssg81
g3315
sg74
(lp3322
S''
asbasbasbag67
(g83
g69
NtRp3323
(dp3324
g72
(dp3325
sg81
g3179
sg74
(lp3326
g67
(g88
g69
NtRp3327
(dp3328
g72
(dp3329
g92
g93
ssg81
g3323
sg74
(lp3330
g451
asbag67
(g88
g69
NtRp3331
(dp3332
g72
(dp3333
g99
g100
ssg81
g3323
sg74
(lp3334
S':'
asbag67
(g88
g69
NtRp3335
(dp3336
g72
(dp3337
sg81
g3323
sg74
(lp3338
g67
(g68
g69
NtRp3339
(dp3340
g72
(dp3341
g80
I3
ssg81
g3335
sg74
(lp3342
S''
asbasbasbasbasbasbasbasbasbasbasbag67
(g83
g69
NtRp3343
(dp3344
g72
(dp3345
sg81
g3108
sg74
(lp3346
g67
(g88
g69
NtRp3347
(dp3348
g72
(dp3349
g92
g93
ssg81
g3343
sg74
(lp3350
S'delimiters'
p3351
asbag67
(g88
g69
NtRp3352
(dp3353
g72
(dp3354
g99
g100
ssg81
g3343
sg74
(lp3355
S':'
asbag67
(g88
g69
NtRp3356
(dp3357
g72
(dp3358
sg81
g3343
sg74
(lp3359
g67
(g68
g69
NtRp3360
(dp3361
g72
(dp3362
g80
I5
ssg81
g3356
sg74
(lp3363
g67
(g76
g69
NtRp3364
(dp3365
g72
(dp3366
g80
I4
ssg81
Nsg74
(lp3367
g67
(g83
g69
NtRp3368
(dp3369
g72
(dp3370
sg81
g3364
sg74
(lp3371
g67
(g88
g69
NtRp3372
(dp3373
g72
(dp3374
sg81
g3368
sg74
(lp3375
g67
(g68
g69
NtRp3376
(dp3377
g72
(dp3378
g80
I4
ssg81
g3372
sg74
(lp3379
S'{{'
p3380
asbasbasbag67
(g83
g69
NtRp3381
(dp3382
g72
(dp3383
sg81
g3364
sg74
(lp3384
g67
(g88
g69
NtRp3385
(dp3386
g72
(dp3387
sg81
g3381
sg74
(lp3388
g67
(g68
g69
NtRp3389
(dp3390
g72
(dp3391
g80
I4
ssg81
g3385
sg74
(lp3392
S'}}'
p3393
asbasbasbasbasbasbasbag67
(g83
g69
NtRp3394
(dp3395
g72
(dp3396
sg81
g3108
sg74
(lp3397
g67
(g88
g69
NtRp3398
(dp3399
g72
(dp3400
g92
g93
ssg81
g3394
sg74
(lp3401
S'files'
p3402
asbag67
(g88
g69
NtRp3403
(dp3404
g72
(dp3405
g99
g100
ssg81
g3394
sg74
(lp3406
S':'
asbag67
(g88
g69
NtRp3407
(dp3408
g72
(dp3409
sg81
g3394
sg74
(lp3410
g67
(g68
g69
NtRp3411
(dp3412
g72
(dp3413
g80
I5
ssg81
g3407
sg74
(lp3414
g67
(g76
g69
NtRp3415
(dp3416
g72
(dp3417
g80
I4
ssg81
Nsg74
(lp3418
sbasbasbasbag67
(g83
g69
NtRp3419
(dp3420
g72
(dp3421
sg81
g3108
sg74
(lp3422
g67
(g88
g69
NtRp3423
(dp3424
g72
(dp3425
g92
g93
ssg81
g3419
sg74
(lp3426
S'flash'
p3427
asbag67
(g88
g69
NtRp3428
(dp3429
g72
(dp3430
g99
g100
ssg81
g3419
sg74
(lp3431
S':'
asbag67
(g88
g69
NtRp3432
(dp3433
g72
(dp3434
sg81
g3419
sg74
(lp3435
g67
(g68
g69
NtRp3436
(dp3437
g72
(dp3438
g80
I5
ssg81
g3432
sg74
(lp3439
S''
asbasbasbag67
(g83
g69
NtRp3440
(dp3441
g72
(dp3442
sg81
g3108
sg74
(lp3443
g67
(g88
g69
NtRp3444
(dp3445
g72
(dp3446
g92
g93
ssg81
g3440
sg74
(lp3447
S'generic_patterns'
p3448
asbag67
(g88
g69
NtRp3449
(dp3450
g72
(dp3451
g99
g100
ssg81
g3440
sg74
(lp3452
S':'
asbag67
(g88
g69
NtRp3453
(dp3454
g72
(dp3455
sg81
g3440
sg74
(lp3456
g67
(g68
g69
NtRp3457
(dp3458
g72
(dp3459
g80
I5
ssg81
g3453
sg74
(lp3460
g67
(g76
g69
NtRp3461
(dp3462
g72
(dp3463
g80
I4
ssg81
Nsg74
(lp3464
g67
(g83
g69
NtRp3465
(dp3466
g72
(dp3467
sg81
g3461
sg74
(lp3468
g67
(g88
g69
NtRp3469
(dp3470
g72
(dp3471
sg81
g3465
sg74
(lp3472
g67
(g68
g69
NtRp3473
(dp3474
g72
(dp3475
g80
I4
ssg81
g3469
sg74
(lp3476
S'*'
asbasbasbasbasbasbasbag67
(g83
g69
NtRp3477
(dp3478
g72
(dp3479
sg81
g3108
sg74
(lp3480
g67
(g88
g69
NtRp3481
(dp3482
g72
(dp3483
g92
g93
ssg81
g3477
sg74
(lp3484
S'headers'
p3485
asbag67
(g88
g69
NtRp3486
(dp3487
g72
(dp3488
g99
g100
ssg81
g3477
sg74
(lp3489
S':'
asbag67
(g88
g69
NtRp3490
(dp3491
g72
(dp3492
sg81
g3477
sg74
(lp3493
g67
(g68
g69
NtRp3494
(dp3495
g72
(dp3496
g80
I5
ssg81
g3490
sg74
(lp3497
g67
(g76
g69
NtRp3498
(dp3499
g72
(dp3500
g80
I4
ssg81
Nsg74
(lp3501
g67
(g83
g69
NtRp3502
(dp3503
g72
(dp3504
sg81
g3498
sg74
(lp3505
g67
(g88
g69
NtRp3506
(dp3507
g72
(dp3508
g92
g93
ssg81
g3502
sg74
(lp3509
S'X-Powered-By'
p3510
asbag67
(g88
g69
NtRp3511
(dp3512
g72
(dp3513
g99
g100
ssg81
g3502
sg74
(lp3514
S':'
asbag67
(g88
g69
NtRp3515
(dp3516
g72
(dp3517
sg81
g3502
sg74
(lp3518
g67
(g68
g69
NtRp3519
(dp3520
g72
(dp3521
g80
I4
ssg81
g3515
sg74
(lp3522
S'web2py'
p3523
asbasbasbasbasbasbasbag67
(g83
g69
NtRp3524
(dp3525
g72
(dp3526
sg81
g3108
sg74
(lp3527
g67
(g88
g69
NtRp3528
(dp3529
g72
(dp3530
g92
g93
ssg81
g3524
sg74
(lp3531
S'menu'
p3532
asbag67
(g88
g69
NtRp3533
(dp3534
g72
(dp3535
g99
g100
ssg81
g3524
sg74
(lp3536
S':'
asbag67
(g88
g69
NtRp3537
(dp3538
g72
(dp3539
sg81
g3524
sg74
(lp3540
g67
(g68
g69
NtRp3541
(dp3542
g72
(dp3543
g80
I5
ssg81
g3537
sg74
(lp3544
g67
(g76
g69
NtRp3545
(dp3546
g72
(dp3547
g80
I4
ssg81
Nsg74
(lp3548
sbasbasbasbag67
(g83
g69
NtRp3549
(dp3550
g72
(dp3551
sg81
g3108
sg74
(lp3552
g67
(g88
g69
NtRp3553
(dp3554
g72
(dp3555
g92
g93
ssg81
g3549
sg74
(lp3556
S'meta'
p3557
asbag67
(g88
g69
NtRp3558
(dp3559
g72
(dp3560
g99
g100
ssg81
g3549
sg74
(lp3561
S':'
asbag67
(g88
g69
NtRp3562
(dp3563
g72
(dp3564
sg81
g3549
sg74
(lp3565
g67
(g68
g69
NtRp3566
(dp3567
g72
(dp3568
g80
I5
ssg81
g3562
sg74
(lp3569
g67
(g76
g69
NtRp3570
(dp3571
g72
(dp3572
g80
I4
ssg81
Nsg74
(lp3573
g67
(g83
g69
NtRp3574
(dp3575
g72
(dp3576
sg81
g3570
sg74
(lp3577
g67
(g88
g69
NtRp3578
(dp3579
g72
(dp3580
g92
g93
ssg81
g3574
sg74
(lp3581
S'author'
p3582
asbag67
(g88
g69
NtRp3583
(dp3584
g72
(dp3585
g99
g100
ssg81
g3574
sg74
(lp3586
S':'
asbag67
(g88
g69
NtRp3587
(dp3588
g72
(dp3589
sg81
g3574
sg74
(lp3590
g67
(g68
g69
NtRp3591
(dp3592
g72
(dp3593
g80
I4
ssg81
g3587
sg74
(lp3594
S'Diego Miranda'
p3595
asbasbasbag67
(g83
g69
NtRp3596
(dp3597
g72
(dp3598
sg81
g3570
sg74
(lp3599
g67
(g88
g69
NtRp3600
(dp3601
g72
(dp3602
g92
g93
ssg81
g3596
sg74
(lp3603
S'copyright'
p3604
asbag67
(g88
g69
NtRp3605
(dp3606
g72
(dp3607
g99
g100
ssg81
g3596
sg74
(lp3608
S':'
asbag67
(g88
g69
NtRp3609
(dp3610
g72
(dp3611
sg81
g3596
sg74
(lp3612
g67
(g68
g69
NtRp3613
(dp3614
g72
(dp3615
g80
I4
ssg81
g3609
sg74
(lp3616
S'Copyright 2012'
p3617
asbasbasbag67
(g83
g69
NtRp3618
(dp3619
g72
(dp3620
sg81
g3570
sg74
(lp3621
g67
(g88
g69
NtRp3622
(dp3623
g72
(dp3624
g92
g93
ssg81
g3618
sg74
(lp3625
S'description'
p3626
asbag67
(g88
g69
NtRp3627
(dp3628
g72
(dp3629
g99
g100
ssg81
g3618
sg74
(lp3630
S':'
asbag67
(g88
g69
NtRp3631
(dp3632
g72
(dp3633
sg81
g3618
sg74
(lp3634
g67
(g68
g69
NtRp3635
(dp3636
g72
(dp3637
g80
I4
ssg81
g3631
sg74
(lp3638
S'Rafael App'
p3639
asbasbasbag67
(g83
g69
NtRp3640
(dp3641
g72
(dp3642
sg81
g3570
sg74
(lp3643
g67
(g88
g69
NtRp3644
(dp3645
g72
(dp3646
g92
g93
ssg81
g3640
sg74
(lp3647
S'generator'
p3648
asbag67
(g88
g69
NtRp3649
(dp3650
g72
(dp3651
g99
g100
ssg81
g3640
sg74
(lp3652
S':'
asbag67
(g88
g69
NtRp3653
(dp3654
g72
(dp3655
sg81
g3640
sg74
(lp3656
g67
(g68
g69
NtRp3657
(dp3658
g72
(dp3659
g80
I4
ssg81
g3653
sg74
(lp3660
S'web2py web framework'
p3661
asbasbasbag67
(g83
g69
NtRp3662
(dp3663
g72
(dp3664
sg81
g3570
sg74
(lp3665
g67
(g88
g69
NtRp3666
(dp3667
g72
(dp3668
g92
g93
ssg81
g3662
sg74
(lp3669
S'keywords'
p3670
asbag67
(g88
g69
NtRp3671
(dp3672
g72
(dp3673
g99
g100
ssg81
g3662
sg74
(lp3674
S':'
asbag67
(g88
g69
NtRp3675
(dp3676
g72
(dp3677
sg81
g3662
sg74
(lp3678
g67
(g68
g69
NtRp3679
(dp3680
g72
(dp3681
g80
I4
ssg81
g3675
sg74
(lp3682
S'web2py, python framework'
p3683
asbasbasbasbasbasbasbag67
(g83
g69
NtRp3684
(dp3685
g72
(dp3686
sg81
g3108
sg74
(lp3687
g67
(g88
g69
NtRp3688
(dp3689
g72
(dp3690
g92
g93
ssg81
g3684
sg74
(lp3691
S'models_to_run'
p3692
asbag67
(g88
g69
NtRp3693
(dp3694
g72
(dp3695
g99
g100
ssg81
g3684
sg74
(lp3696
S':'
asbag67
(g88
g69
NtRp3697
(dp3698
g72
(dp3699
sg81
g3684
sg74
(lp3700
g67
(g68
g69
NtRp3701
(dp3702
g72
(dp3703
g80
I5
ssg81
g3697
sg74
(lp3704
g67
(g76
g69
NtRp3705
(dp3706
g72
(dp3707
g80
I4
ssg81
Nsg74
(lp3708
g67
(g83
g69
NtRp3709
(dp3710
g72
(dp3711
sg81
g3705
sg74
(lp3712
g67
(g88
g69
NtRp3713
(dp3714
g72
(dp3715
sg81
g3709
sg74
(lp3716
g67
(g68
g69
NtRp3717
(dp3718
g72
(dp3719
g80
I4
ssg81
g3713
sg74
(lp3720
S'^\\w+\\.py$'
p3721
asbasbasbag67
(g83
g69
NtRp3722
(dp3723
g72
(dp3724
sg81
g3705
sg74
(lp3725
g67
(g88
g69
NtRp3726
(dp3727
g72
(dp3728
sg81
g3722
sg74
(lp3729
g67
(g68
g69
NtRp3730
(dp3731
g72
(dp3732
g80
I4
ssg81
g3726
sg74
(lp3733
S'^contact/\\w+\\.py$'
p3734
asbasbasbag67
(g83
g69
NtRp3735
(dp3736
g72
(dp3737
sg81
g3705
sg74
(lp3738
g67
(g88
g69
NtRp3739
(dp3740
g72
(dp3741
sg81
g3735
sg74
(lp3742
g67
(g68
g69
NtRp3743
(dp3744
g72
(dp3745
g80
I4
ssg81
g3739
sg74
(lp3746
S'^contact/contact/\\w+\\.py$'
p3747
asbasbasbasbasbasbasbag67
(g83
g69
NtRp3748
(dp3749
g72
(dp3750
sg81
g3108
sg74
(lp3751
g67
(g88
g69
NtRp3752
(dp3753
g72
(dp3754
g92
g93
ssg81
g3748
sg74
(lp3755
S'postprocessing'
p3756
asbag67
(g88
g69
NtRp3757
(dp3758
g72
(dp3759
g99
g100
ssg81
g3748
sg74
(lp3760
S':'
asbag67
(g88
g69
NtRp3761
(dp3762
g72
(dp3763
sg81
g3748
sg74
(lp3764
g67
(g68
g69
NtRp3765
(dp3766
g72
(dp3767
g80
I5
ssg81
g3761
sg74
(lp3768
g67
(g76
g69
NtRp3769
(dp3770
g72
(dp3771
g80
I4
ssg81
Nsg74
(lp3772
sbasbasbasbag67
(g83
g69
NtRp3773
(dp3774
g72
(dp3775
sg81
g3108
sg74
(lp3776
g67
(g88
g69
NtRp3777
(dp3778
g72
(dp3779
g92
g93
ssg81
g3773
sg74
(lp3780
S'session_cookie_expires'
p3781
asbag67
(g88
g69
NtRp3782
(dp3783
g72
(dp3784
g99
g100
ssg81
g3773
sg74
(lp3785
S':'
asbag67
(g88
g69
NtRp3786
(dp3787
g72
(dp3788
sg81
g3773
sg74
(lp3789
g67
(g68
g69
NtRp3790
(dp3791
g72
(dp3792
g80
I5
ssg81
g3786
sg74
(lp3793
S'None'
p3794
asbasbasbag67
(g83
g69
NtRp3795
(dp3796
g72
(dp3797
sg81
g3108
sg74
(lp3798
g67
(g88
g69
NtRp3799
(dp3800
g72
(dp3801
g92
g93
ssg81
g3795
sg74
(lp3802
S'session_data_name'
p3803
asbag67
(g88
g69
NtRp3804
(dp3805
g72
(dp3806
g99
g100
ssg81
g3795
sg74
(lp3807
S':'
asbag67
(g88
g69
NtRp3808
(dp3809
g72
(dp3810
sg81
g3795
sg74
(lp3811
g67
(g68
g69
NtRp3812
(dp3813
g72
(dp3814
g80
I5
ssg81
g3808
sg74
(lp3815
S'session_data_rsoutelino'
p3816
asbasbasbag67
(g83
g69
NtRp3817
(dp3818
g72
(dp3819
sg81
g3108
sg74
(lp3820
g67
(g88
g69
NtRp3821
(dp3822
g72
(dp3823
g92
g93
ssg81
g3817
sg74
(lp3824
S'session_filename'
p3825
asbag67
(g88
g69
NtRp3826
(dp3827
g72
(dp3828
g99
g100
ssg81
g3817
sg74
(lp3829
S':'
asbag67
(g88
g69
NtRp3830
(dp3831
g72
(dp3832
sg81
g3817
sg74
(lp3833
g67
(g68
g69
NtRp3834
(dp3835
g72
(dp3836
g80
I5
ssg81
g3830
sg74
(lp3837
S'/home/rsoutelino/web2py/applications/rsoutelino/sessions/172.30.6.206-3925374d-3851-42a7-ae51-62e486a5e9eb'
p3838
asbasbasbag67
(g83
g69
NtRp3839
(dp3840
g72
(dp3841
sg81
g3108
sg74
(lp3842
g67
(g88
g69
NtRp3843
(dp3844
g72
(dp3845
g92
g93
ssg81
g3839
sg74
(lp3846
S'session_id'
p3847
asbag67
(g88
g69
NtRp3848
(dp3849
g72
(dp3850
g99
g100
ssg81
g3839
sg74
(lp3851
S':'
asbag67
(g88
g69
NtRp3852
(dp3853
g72
(dp3854
sg81
g3839
sg74
(lp3855
g67
(g68
g69
NtRp3856
(dp3857
g72
(dp3858
g80
I5
ssg81
g3852
sg74
(lp3859
g3178
asbasbasbag67
(g83
g69
NtRp3860
(dp3861
g72
(dp3862
sg81
g3108
sg74
(lp3863
g67
(g88
g69
NtRp3864
(dp3865
g72
(dp3866
g92
g93
ssg81
g3860
sg74
(lp3867
S'session_id_name'
p3868
asbag67
(g88
g69
NtRp3869
(dp3870
g72
(dp3871
g99
g100
ssg81
g3860
sg74
(lp3872
S':'
asbag67
(g88
g69
NtRp3873
(dp3874
g72
(dp3875
sg81
g3860
sg74
(lp3876
g67
(g68
g69
NtRp3877
(dp3878
g72
(dp3879
g80
I5
ssg81
g3873
sg74
(lp3880
g3165
asbasbasbag67
(g83
g69
NtRp3881
(dp3882
g72
(dp3883
sg81
g3108
sg74
(lp3884
g67
(g88
g69
NtRp3885
(dp3886
g72
(dp3887
g92
g93
ssg81
g3881
sg74
(lp3888
S'session_new'
p3889
asbag67
(g88
g69
NtRp3890
(dp3891
g72
(dp3892
g99
g100
ssg81
g3881
sg74
(lp3893
S':'
asbag67
(g88
g69
NtRp3894
(dp3895
g72
(dp3896
sg81
g3881
sg74
(lp3897
g67
(g68
g69
NtRp3898
(dp3899
g72
(dp3900
g80
I5
ssg81
g3894
sg74
(lp3901
S'True'
p3902
asbasbasbag67
(g83
g69
NtRp3903
(dp3904
g72
(dp3905
sg81
g3108
sg74
(lp3906
g67
(g88
g69
NtRp3907
(dp3908
g72
(dp3909
g92
g93
ssg81
g3903
sg74
(lp3910
S'session_storage_type'
p3911
asbag67
(g88
g69
NtRp3912
(dp3913
g72
(dp3914
g99
g100
ssg81
g3903
sg74
(lp3915
S':'
asbag67
(g88
g69
NtRp3916
(dp3917
g72
(dp3918
sg81
g3903
sg74
(lp3919
g67
(g68
g69
NtRp3920
(dp3921
g72
(dp3922
g80
I5
ssg81
g3916
sg74
(lp3923
g3037
asbasbasbag67
(g83
g69
NtRp3924
(dp3925
g72
(dp3926
sg81
g3108
sg74
(lp3927
g67
(g88
g69
NtRp3928
(dp3929
g72
(dp3930
g92
g93
ssg81
g3924
sg74
(lp3931
S'status'
p3932
asbag67
(g88
g69
NtRp3933
(dp3934
g72
(dp3935
g99
g100
ssg81
g3924
sg74
(lp3936
S':'
asbag67
(g88
g69
NtRp3937
(dp3938
g72
(dp3939
sg81
g3924
sg74
(lp3940
g67
(g68
g69
NtRp3941
(dp3942
g72
(dp3943
g80
I5
ssg81
g3937
sg74
(lp3944
S'200'
p3945
asbasbasbag67
(g83
g69
NtRp3946
(dp3947
g72
(dp3948
sg81
g3108
sg74
(lp3949
g67
(g88
g69
NtRp3950
(dp3951
g72
(dp3952
g92
g93
ssg81
g3946
sg74
(lp3953
S'subtitle'
p3954
asbag67
(g88
g69
NtRp3955
(dp3956
g72
(dp3957
g99
g100
ssg81
g3946
sg74
(lp3958
S':'
asbag67
(g88
g69
NtRp3959
(dp3960
g72
(dp3961
sg81
g3946
sg74
(lp3962
g67
(g68
g69
NtRp3963
(dp3964
g72
(dp3965
g80
I5
ssg81
g3959
sg74
(lp3966
cgluon.languages
lazyT_unpickle
p3967
(S's\x10\x00\x00\x00Rafael Soutelino'
tRp3968
asbasbasbag67
(g83
g69
NtRp3969
(dp3970
g72
(dp3971
sg81
g3108
sg74
(lp3972
g67
(g88
g69
NtRp3973
(dp3974
g72
(dp3975
g92
g93
ssg81
g3969
sg74
(lp3976
S'title'
p3977
asbag67
(g88
g69
NtRp3978
(dp3979
g72
(dp3980
g99
g100
ssg81
g3969
sg74
(lp3981
S':'
asbag67
(g88
g69
NtRp3982
(dp3983
g72
(dp3984
sg81
g3969
sg74
(lp3985
g67
(g68
g69
NtRp3986
(dp3987
g72
(dp3988
g80
I5
ssg81
g3982
sg74
(lp3989
S'Rafael Soutelino: Academic Website'
p3990
asbasbasbag67
(g83
g69
NtRp3991
(dp3992
g72
(dp3993
sg81
g3108
sg74
(lp3994
g67
(g88
g69
NtRp3995
(dp3996
g72
(dp3997
g92
g93
ssg81
g3991
sg74
(lp3998
S'view'
p3999
asbag67
(g88
g69
NtRp4000
(dp4001
g72
(dp4002
g99
g100
ssg81
g3991
sg74
(lp4003
S':'
asbag67
(g88
g69
NtRp4004
(dp4005
g72
(dp4006
sg81
g3991
sg74
(lp4007
g67
(g68
g69
NtRp4008
(dp4009
g72
(dp4010
g80
I5
ssg81
g4004
sg74
(lp4011
S'contact/contact.html'
p4012
asbasbasbasbasbsS'locals'
p4013
(dp4014
g4
S"'/home/rsoutelino/web2py/applications/rsoutelino/controllers/contact.py'"
p4015
sg6
S"'\\ndef contact():\\n    form = SQLFORM(db.contacts)\\n...m=form)\\nresponse._vars=response._caller(contact)\\n'"
p4016
sssS'traceback'
p4017
S'Traceback (most recent call last):\n  File "/home/rsoutelino/web2py/gluon/restricted.py", line 211, in restricted\n    ccode = compile2(code, layer)\n  File "/home/rsoutelino/web2py/gluon/restricted.py", line 194, in compile2\n    return compile(code.rstrip().replace(\'\\r\\n\', \'\\n\') + \'\\n\', layer, \'exec\')\n  File "/home/rsoutelino/web2py/applications/rsoutelino/controllers/contact.py", line 4\n    if form.process(request.args(0)).accepted:\n   ^\nIndentationError: unexpected indent\n'
p4018
s.