(dp1
S'output'
p2
S"<class 'sqlite3.IntegrityError'> column name is not unique"
p3
sS'layer'
p4
S'/home/rsoutelino/web2py/applications/rsoutelino/controllers/contact.py'
p5
sS'code'
p6
S'def contact():\n    form = SQLFORM(db.contacts)\n    if form.process().accepted:\n        message = "%s %s %s" %(forms.vars.name, forms.vars.email, forms.vars.commentary)\n        mail.send(to="rsoutelino@gmail.com", subject="You received a message through rsoutelino.com", reply_to=form.vars.email, message=message)\n        response.flash="success"\n    else:\n        response.flash="try again"\n\treturn dict(form=form)\nresponse._vars=response._caller(contact)\n'
p7
sS'snapshot'
p8
(dp9
S'exception'
p10
(dp11
S'__module__'
p12
S"'sqlite3'"
p13
sS'__getslice__'
p14
S"<method-wrapper '__getslice__' of IntegrityError object>"
p15
sS'__str__'
p16
S"<method-wrapper '__str__' of IntegrityError object>"
p17
sS'__reduce__'
p18
S'<built-in method __reduce__ of IntegrityError object>'
p19
sS'__dict__'
p20
S'{}'
p21
sS'__sizeof__'
p22
S'<built-in method __sizeof__ of IntegrityError object>'
p23
sS'__weakref__'
p24
S'None'
p25
sS'__init__'
p26
S"<method-wrapper '__init__' of IntegrityError object>"
p27
sS'__setattr__'
p28
S"<method-wrapper '__setattr__' of IntegrityError object>"
p29
sS'__reduce_ex__'
p30
S'<built-in method __reduce_ex__ of IntegrityError object>'
p31
sS'__new__'
p32
S'<built-in method __new__ of type object>'
p33
sS'__format__'
p34
S'<built-in method __format__ of IntegrityError object>'
p35
sS'__class__'
p36
S"<class 'sqlite3.IntegrityError'>"
p37
sS'__doc__'
p38
S'None'
p39
sS'__getitem__'
p40
S"<method-wrapper '__getitem__' of IntegrityError object>"
p41
sS'__setstate__'
p42
S'<built-in method __setstate__ of IntegrityError object>'
p43
sS'__getattribute__'
p44
S"<method-wrapper '__getattribute__' of IntegrityError object>"
p45
sS'args'
p46
S"('column name is not unique',)"
p47
sS'__subclasshook__'
p48
S'<built-in method __subclasshook__ of type object>'
p49
sS'__unicode__'
p50
S'<built-in method __unicode__ of IntegrityError object>'
p51
sS'__delattr__'
p52
S"<method-wrapper '__delattr__' of IntegrityError object>"
p53
sS'__repr__'
p54
S"<method-wrapper '__repr__' of IntegrityError object>"
p55
sS'__hash__'
p56
S"<method-wrapper '__hash__' of IntegrityError object>"
p57
ssS'evalue'
p58
S'column name is not unique'
p59
sS'request'
p60
ccopy_reg
_reconstructor
p61
(cgluon.html
BEAUTIFY
p62
c__builtin__
object
p63
NtRp64
(dp65
S'attributes'
p66
(dp67
sS'components'
p68
(lp69
g61
(cgluon.html
TABLE
p70
g63
NtRp71
(dp72
g66
(dp73
S'level'
p74
I5
ssS'parent'
p75
Nsg68
(lp76
g61
(cgluon.html
TR
p77
g63
NtRp78
(dp79
g66
(dp80
sg75
g71
sg68
(lp81
g61
(cgluon.html
TD
p82
g63
NtRp83
(dp84
g66
(dp85
S'_style'
p86
S'font-weight:bold;vertical-align:top'
p87
ssg75
g78
sg68
(lp88
S'ajax'
p89
asbag61
(g82
g63
NtRp90
(dp91
g66
(dp92
S'_valign'
p93
S'top'
p94
ssg75
g78
sg68
(lp95
S':'
asbag61
(g82
g63
NtRp96
(dp97
g66
(dp98
sg75
g78
sg68
(lp99
g61
(g62
g63
NtRp100
(dp101
g66
(dp102
g74
I5
ssg75
g96
sg68
(lp103
S'False'
p104
asbasbasbag61
(g77
g63
NtRp105
(dp106
g66
(dp107
sg75
g71
sg68
(lp108
g61
(g82
g63
NtRp109
(dp110
g66
(dp111
g86
g87
ssg75
g105
sg68
(lp112
S'application'
p113
asbag61
(g82
g63
NtRp114
(dp115
g66
(dp116
g93
g94
ssg75
g105
sg68
(lp117
S':'
asbag61
(g82
g63
NtRp118
(dp119
g66
(dp120
sg75
g105
sg68
(lp121
g61
(g62
g63
NtRp122
(dp123
g66
(dp124
g74
I5
ssg75
g118
sg68
(lp125
S'rsoutelino'
p126
asbasbasbag61
(g77
g63
NtRp127
(dp128
g66
(dp129
sg75
g71
sg68
(lp130
g61
(g82
g63
NtRp131
(dp132
g66
(dp133
g86
g87
ssg75
g127
sg68
(lp134
g46
asbag61
(g82
g63
NtRp135
(dp136
g66
(dp137
g93
g94
ssg75
g127
sg68
(lp138
S':'
asbag61
(g82
g63
NtRp139
(dp140
g66
(dp141
sg75
g127
sg68
(lp142
g61
(g62
g63
NtRp143
(dp144
g66
(dp145
g74
I5
ssg75
g139
sg68
(lp146
g61
(g70
g63
NtRp147
(dp148
g66
(dp149
g74
I4
ssg75
Nsg68
(lp150
sbasbasbasbag61
(g77
g63
NtRp151
(dp152
g66
(dp153
sg75
g71
sg68
(lp154
g61
(g82
g63
NtRp155
(dp156
g66
(dp157
g86
g87
ssg75
g151
sg68
(lp158
S'body'
p159
asbag61
(g82
g63
NtRp160
(dp161
g66
(dp162
g93
g94
ssg75
g151
sg68
(lp163
S':'
asbag61
(g82
g63
NtRp164
(dp165
g66
(dp166
sg75
g151
sg68
(lp167
g61
(g62
g63
NtRp168
(dp169
g66
(dp170
g74
I5
ssg75
g164
sg68
(lp171
S"<open file '<fdopen>', mode 'w+b' at 0x3827300>"
p172
asbasbasbag61
(g77
g63
NtRp173
(dp174
g66
(dp175
sg75
g71
sg68
(lp176
g61
(g82
g63
NtRp177
(dp178
g66
(dp179
g86
g87
ssg75
g173
sg68
(lp180
S'cid'
p181
asbag61
(g82
g63
NtRp182
(dp183
g66
(dp184
g93
g94
ssg75
g173
sg68
(lp185
S':'
asbag61
(g82
g63
NtRp186
(dp187
g66
(dp188
sg75
g173
sg68
(lp189
g61
(g62
g63
NtRp190
(dp191
g66
(dp192
g74
I5
ssg75
g186
sg68
(lp193
S'None'
p194
asbasbasbag61
(g77
g63
NtRp195
(dp196
g66
(dp197
sg75
g71
sg68
(lp198
g61
(g82
g63
NtRp199
(dp200
g66
(dp201
g86
g87
ssg75
g195
sg68
(lp202
S'client'
p203
asbag61
(g82
g63
NtRp204
(dp205
g66
(dp206
g93
g94
ssg75
g195
sg68
(lp207
S':'
asbag61
(g82
g63
NtRp208
(dp209
g66
(dp210
sg75
g195
sg68
(lp211
g61
(g62
g63
NtRp212
(dp213
g66
(dp214
g74
I5
ssg75
g208
sg68
(lp215
S'172.30.6.206'
p216
asbasbasbag61
(g77
g63
NtRp217
(dp218
g66
(dp219
sg75
g71
sg68
(lp220
g61
(g82
g63
NtRp221
(dp222
g66
(dp223
g86
g87
ssg75
g217
sg68
(lp224
S'controller'
p225
asbag61
(g82
g63
NtRp226
(dp227
g66
(dp228
g93
g94
ssg75
g217
sg68
(lp229
S':'
asbag61
(g82
g63
NtRp230
(dp231
g66
(dp232
sg75
g217
sg68
(lp233
g61
(g62
g63
NtRp234
(dp235
g66
(dp236
g74
I5
ssg75
g230
sg68
(lp237
S'contact'
p238
asbasbasbag61
(g77
g63
NtRp239
(dp240
g66
(dp241
sg75
g71
sg68
(lp242
g61
(g82
g63
NtRp243
(dp244
g66
(dp245
g86
g87
ssg75
g239
sg68
(lp246
S'cookies'
p247
asbag61
(g82
g63
NtRp248
(dp249
g66
(dp250
g93
g94
ssg75
g239
sg68
(lp251
S':'
asbag61
(g82
g63
NtRp252
(dp253
g66
(dp254
sg75
g239
sg68
(lp255
g61
(g62
g63
NtRp256
(dp257
g66
(dp258
g74
I5
ssg75
g252
sg68
(lp259
g61
(g70
g63
NtRp260
(dp261
g66
(dp262
g74
I4
ssg75
Nsg68
(lp263
g61
(g77
g63
NtRp264
(dp265
g66
(dp266
sg75
g260
sg68
(lp267
g61
(g82
g63
NtRp268
(dp269
g66
(dp270
g86
g87
ssg75
g264
sg68
(lp271
S'session_id_rsoutelino'
p272
asbag61
(g82
g63
NtRp273
(dp274
g66
(dp275
g93
g94
ssg75
g264
sg68
(lp276
S':'
asbag61
(g82
g63
NtRp277
(dp278
g66
(dp279
sg75
g264
sg68
(lp280
g61
(g62
g63
NtRp281
(dp282
g66
(dp283
g74
I4
ssg75
g277
sg68
(lp284
S'172.30.6.206-5b9039ad-f70c-436f-9f3d-e265648ab174'
p285
ag61
(g70
g63
NtRp286
(dp287
g66
(dp288
g74
I3
ssg75
Nsg68
(lp289
g61
(g77
g63
NtRp290
(dp291
g66
(dp292
sg75
g286
sg68
(lp293
g61
(g82
g63
NtRp294
(dp295
g66
(dp296
g86
g87
ssg75
g290
sg68
(lp297
S'comment'
p298
asbag61
(g82
g63
NtRp299
(dp300
g66
(dp301
g93
g94
ssg75
g290
sg68
(lp302
S':'
asbag61
(g82
g63
NtRp303
(dp304
g66
(dp305
sg75
g290
sg68
(lp306
g61
(g62
g63
NtRp307
(dp308
g66
(dp309
g74
I3
ssg75
g303
sg68
(lp310
S''
asbasbasbag61
(g77
g63
NtRp311
(dp312
g66
(dp313
sg75
g286
sg68
(lp314
g61
(g82
g63
NtRp315
(dp316
g66
(dp317
g86
g87
ssg75
g311
sg68
(lp318
S'domain'
p319
asbag61
(g82
g63
NtRp320
(dp321
g66
(dp322
g93
g94
ssg75
g311
sg68
(lp323
S':'
asbag61
(g82
g63
NtRp324
(dp325
g66
(dp326
sg75
g311
sg68
(lp327
g61
(g62
g63
NtRp328
(dp329
g66
(dp330
g74
I3
ssg75
g324
sg68
(lp331
S''
asbasbasbag61
(g77
g63
NtRp332
(dp333
g66
(dp334
sg75
g286
sg68
(lp335
g61
(g82
g63
NtRp336
(dp337
g66
(dp338
g86
g87
ssg75
g332
sg68
(lp339
S'expires'
p340
asbag61
(g82
g63
NtRp341
(dp342
g66
(dp343
g93
g94
ssg75
g332
sg68
(lp344
S':'
asbag61
(g82
g63
NtRp345
(dp346
g66
(dp347
sg75
g332
sg68
(lp348
g61
(g62
g63
NtRp349
(dp350
g66
(dp351
g74
I3
ssg75
g345
sg68
(lp352
S''
asbasbasbag61
(g77
g63
NtRp353
(dp354
g66
(dp355
sg75
g286
sg68
(lp356
g61
(g82
g63
NtRp357
(dp358
g66
(dp359
g86
g87
ssg75
g353
sg68
(lp360
S'httponly'
p361
asbag61
(g82
g63
NtRp362
(dp363
g66
(dp364
g93
g94
ssg75
g353
sg68
(lp365
S':'
asbag61
(g82
g63
NtRp366
(dp367
g66
(dp368
sg75
g353
sg68
(lp369
g61
(g62
g63
NtRp370
(dp371
g66
(dp372
g74
I3
ssg75
g366
sg68
(lp373
S''
asbasbasbag61
(g77
g63
NtRp374
(dp375
g66
(dp376
sg75
g286
sg68
(lp377
g61
(g82
g63
NtRp378
(dp379
g66
(dp380
g86
g87
ssg75
g374
sg68
(lp381
S'max-age'
p382
asbag61
(g82
g63
NtRp383
(dp384
g66
(dp385
g93
g94
ssg75
g374
sg68
(lp386
S':'
asbag61
(g82
g63
NtRp387
(dp388
g66
(dp389
sg75
g374
sg68
(lp390
g61
(g62
g63
NtRp391
(dp392
g66
(dp393
g74
I3
ssg75
g387
sg68
(lp394
S''
asbasbasbag61
(g77
g63
NtRp395
(dp396
g66
(dp397
sg75
g286
sg68
(lp398
g61
(g82
g63
NtRp399
(dp400
g66
(dp401
g86
g87
ssg75
g395
sg68
(lp402
S'path'
p403
asbag61
(g82
g63
NtRp404
(dp405
g66
(dp406
g93
g94
ssg75
g395
sg68
(lp407
S':'
asbag61
(g82
g63
NtRp408
(dp409
g66
(dp410
sg75
g395
sg68
(lp411
g61
(g62
g63
NtRp412
(dp413
g66
(dp414
g74
I3
ssg75
g408
sg68
(lp415
S''
asbasbasbag61
(g77
g63
NtRp416
(dp417
g66
(dp418
sg75
g286
sg68
(lp419
g61
(g82
g63
NtRp420
(dp421
g66
(dp422
g86
g87
ssg75
g416
sg68
(lp423
S'secure'
p424
asbag61
(g82
g63
NtRp425
(dp426
g66
(dp427
g93
g94
ssg75
g416
sg68
(lp428
S':'
asbag61
(g82
g63
NtRp429
(dp430
g66
(dp431
sg75
g416
sg68
(lp432
g61
(g62
g63
NtRp433
(dp434
g66
(dp435
g74
I3
ssg75
g429
sg68
(lp436
S''
asbasbasbag61
(g77
g63
NtRp437
(dp438
g66
(dp439
sg75
g286
sg68
(lp440
g61
(g82
g63
NtRp441
(dp442
g66
(dp443
g86
g87
ssg75
g437
sg68
(lp444
S'version'
p445
asbag61
(g82
g63
NtRp446
(dp447
g66
(dp448
g93
g94
ssg75
g437
sg68
(lp449
S':'
asbag61
(g82
g63
NtRp450
(dp451
g66
(dp452
sg75
g437
sg68
(lp453
g61
(g62
g63
NtRp454
(dp455
g66
(dp456
g74
I3
ssg75
g450
sg68
(lp457
S''
asbasbasbasbasbasbasbasbasbasbasbag61
(g77
g63
NtRp458
(dp459
g66
(dp460
sg75
g71
sg68
(lp461
g61
(g82
g63
NtRp462
(dp463
g66
(dp464
g86
g87
ssg75
g458
sg68
(lp465
S'env'
p466
asbag61
(g82
g63
NtRp467
(dp468
g66
(dp469
g93
g94
ssg75
g458
sg68
(lp470
S':'
asbag61
(g82
g63
NtRp471
(dp472
g66
(dp473
sg75
g458
sg68
(lp474
g61
(g62
g63
NtRp475
(dp476
g66
(dp477
g74
I5
ssg75
g471
sg68
(lp478
g61
(g70
g63
NtRp479
(dp480
g66
(dp481
g74
I4
ssg75
Nsg68
(lp482
g61
(g77
g63
NtRp483
(dp484
g66
(dp485
sg75
g479
sg68
(lp486
g61
(g82
g63
NtRp487
(dp488
g66
(dp489
g86
g87
ssg75
g483
sg68
(lp490
S'app_folders'
p491
asbag61
(g82
g63
NtRp492
(dp493
g66
(dp494
g93
g94
ssg75
g483
sg68
(lp495
S':'
asbag61
(g82
g63
NtRp496
(dp497
g66
(dp498
sg75
g483
sg68
(lp499
g61
(g62
g63
NtRp500
(dp501
g66
(dp502
g74
I4
ssg75
g496
sg68
(lp503
S"set(['/home/rsoutelino/web2py/applications/rsoutelino/', '/home/rsoutelino/web2py/applications/admin/'])"
p504
asbasbasbag61
(g77
g63
NtRp505
(dp506
g66
(dp507
sg75
g479
sg68
(lp508
g61
(g82
g63
NtRp509
(dp510
g66
(dp511
g86
g87
ssg75
g505
sg68
(lp512
S'applications_parent'
p513
asbag61
(g82
g63
NtRp514
(dp515
g66
(dp516
g93
g94
ssg75
g505
sg68
(lp517
S':'
asbag61
(g82
g63
NtRp518
(dp519
g66
(dp520
sg75
g505
sg68
(lp521
g61
(g62
g63
NtRp522
(dp523
g66
(dp524
g74
I4
ssg75
g518
sg68
(lp525
S'/home/rsoutelino/web2py'
p526
asbasbasbag61
(g77
g63
NtRp527
(dp528
g66
(dp529
sg75
g479
sg68
(lp530
g61
(g82
g63
NtRp531
(dp532
g66
(dp533
g86
g87
ssg75
g527
sg68
(lp534
S'content_length'
p535
asbag61
(g82
g63
NtRp536
(dp537
g66
(dp538
g93
g94
ssg75
g527
sg68
(lp539
S':'
asbag61
(g82
g63
NtRp540
(dp541
g66
(dp542
sg75
g527
sg68
(lp543
g61
(g62
g63
NtRp544
(dp545
g66
(dp546
g74
I4
ssg75
g540
sg68
(lp547
S'819'
p548
asbasbasbag61
(g77
g63
NtRp549
(dp550
g66
(dp551
sg75
g479
sg68
(lp552
g61
(g82
g63
NtRp553
(dp554
g66
(dp555
g86
g87
ssg75
g549
sg68
(lp556
S'content_type'
p557
asbag61
(g82
g63
NtRp558
(dp559
g66
(dp560
g93
g94
ssg75
g549
sg68
(lp561
S':'
asbag61
(g82
g63
NtRp562
(dp563
g66
(dp564
sg75
g549
sg68
(lp565
g61
(g62
g63
NtRp566
(dp567
g66
(dp568
g74
I4
ssg75
g562
sg68
(lp569
S'multipart/form-data; boundary=----WebKitFormBoundarytyfLnB0bij0CeShg'
p570
asbasbasbag61
(g77
g63
NtRp571
(dp572
g66
(dp573
sg75
g479
sg68
(lp574
g61
(g82
g63
NtRp575
(dp576
g66
(dp577
g86
g87
ssg75
g571
sg68
(lp578
S'db_sessions'
p579
asbag61
(g82
g63
NtRp580
(dp581
g66
(dp582
g93
g94
ssg75
g571
sg68
(lp583
S':'
asbag61
(g82
g63
NtRp584
(dp585
g66
(dp586
sg75
g571
sg68
(lp587
g61
(g62
g63
NtRp588
(dp589
g66
(dp590
g74
I4
ssg75
g584
sg68
(lp591
S'set([])'
p592
asbasbasbag61
(g77
g63
NtRp593
(dp594
g66
(dp595
sg75
g479
sg68
(lp596
g61
(g82
g63
NtRp597
(dp598
g66
(dp599
g86
g87
ssg75
g593
sg68
(lp600
S'debugging'
p601
asbag61
(g82
g63
NtRp602
(dp603
g66
(dp604
g93
g94
ssg75
g593
sg68
(lp605
S':'
asbag61
(g82
g63
NtRp606
(dp607
g66
(dp608
sg75
g593
sg68
(lp609
g61
(g62
g63
NtRp610
(dp611
g66
(dp612
g74
I4
ssg75
g606
sg68
(lp613
g104
asbasbasbag61
(g77
g63
NtRp614
(dp615
g66
(dp616
sg75
g479
sg68
(lp617
g61
(g82
g63
NtRp618
(dp619
g66
(dp620
g86
g87
ssg75
g614
sg68
(lp621
S'document_root'
p622
asbag61
(g82
g63
NtRp623
(dp624
g66
(dp625
g93
g94
ssg75
g614
sg68
(lp626
S':'
asbag61
(g82
g63
NtRp627
(dp628
g66
(dp629
sg75
g614
sg68
(lp630
g61
(g62
g63
NtRp631
(dp632
g66
(dp633
g74
I4
ssg75
g627
sg68
(lp634
S'/var/log/nginx/user_logs'
p635
asbasbasbag61
(g77
g63
NtRp636
(dp637
g66
(dp638
sg75
g479
sg68
(lp639
g61
(g82
g63
NtRp640
(dp641
g66
(dp642
g86
g87
ssg75
g636
sg68
(lp643
S'gluon_parent'
p644
asbag61
(g82
g63
NtRp645
(dp646
g66
(dp647
g93
g94
ssg75
g636
sg68
(lp648
S':'
asbag61
(g82
g63
NtRp649
(dp650
g66
(dp651
sg75
g636
sg68
(lp652
g61
(g62
g63
NtRp653
(dp654
g66
(dp655
g74
I4
ssg75
g649
sg68
(lp656
g526
asbasbasbag61
(g77
g63
NtRp657
(dp658
g66
(dp659
sg75
g479
sg68
(lp660
g61
(g82
g63
NtRp661
(dp662
g66
(dp663
g86
g87
ssg75
g657
sg68
(lp664
S'http_accept'
p665
asbag61
(g82
g63
NtRp666
(dp667
g66
(dp668
g93
g94
ssg75
g657
sg68
(lp669
S':'
asbag61
(g82
g63
NtRp670
(dp671
g66
(dp672
sg75
g657
sg68
(lp673
g61
(g62
g63
NtRp674
(dp675
g66
(dp676
g74
I4
ssg75
g670
sg68
(lp677
S'text/html,application/xhtml+xml,application/xml;q=0.9,*/*;q=0.8'
p678
asbasbasbag61
(g77
g63
NtRp679
(dp680
g66
(dp681
sg75
g479
sg68
(lp682
g61
(g82
g63
NtRp683
(dp684
g66
(dp685
g86
g87
ssg75
g679
sg68
(lp686
S'http_accept_charset'
p687
asbag61
(g82
g63
NtRp688
(dp689
g66
(dp690
g93
g94
ssg75
g679
sg68
(lp691
S':'
asbag61
(g82
g63
NtRp692
(dp693
g66
(dp694
sg75
g679
sg68
(lp695
g61
(g62
g63
NtRp696
(dp697
g66
(dp698
g74
I4
ssg75
g692
sg68
(lp699
S'ISO-8859-1,utf-8;q=0.7,*;q=0.3'
p700
asbasbasbag61
(g77
g63
NtRp701
(dp702
g66
(dp703
sg75
g479
sg68
(lp704
g61
(g82
g63
NtRp705
(dp706
g66
(dp707
g86
g87
ssg75
g701
sg68
(lp708
S'http_accept_encoding'
p709
asbag61
(g82
g63
NtRp710
(dp711
g66
(dp712
g93
g94
ssg75
g701
sg68
(lp713
S':'
asbag61
(g82
g63
NtRp714
(dp715
g66
(dp716
sg75
g701
sg68
(lp717
g61
(g62
g63
NtRp718
(dp719
g66
(dp720
g74
I4
ssg75
g714
sg68
(lp721
S'gzip,deflate,sdch'
p722
asbasbasbag61
(g77
g63
NtRp723
(dp724
g66
(dp725
sg75
g479
sg68
(lp726
g61
(g82
g63
NtRp727
(dp728
g66
(dp729
g86
g87
ssg75
g723
sg68
(lp730
S'http_accept_language'
p731
asbag61
(g82
g63
NtRp732
(dp733
g66
(dp734
g93
g94
ssg75
g723
sg68
(lp735
S':'
asbag61
(g82
g63
NtRp736
(dp737
g66
(dp738
sg75
g723
sg68
(lp739
g61
(g62
g63
NtRp740
(dp741
g66
(dp742
g74
I4
ssg75
g736
sg68
(lp743
S'en-US,en;q=0.8'
p744
asbasbasbag61
(g77
g63
NtRp745
(dp746
g66
(dp747
sg75
g479
sg68
(lp748
g61
(g82
g63
NtRp749
(dp750
g66
(dp751
g86
g87
ssg75
g745
sg68
(lp752
S'http_cache_control'
p753
asbag61
(g82
g63
NtRp754
(dp755
g66
(dp756
g93
g94
ssg75
g745
sg68
(lp757
S':'
asbag61
(g82
g63
NtRp758
(dp759
g66
(dp760
sg75
g745
sg68
(lp761
g61
(g62
g63
NtRp762
(dp763
g66
(dp764
g74
I4
ssg75
g758
sg68
(lp765
S'max-age=0'
p766
asbasbasbag61
(g77
g63
NtRp767
(dp768
g66
(dp769
sg75
g479
sg68
(lp770
g61
(g82
g63
NtRp771
(dp772
g66
(dp773
g86
g87
ssg75
g767
sg68
(lp774
S'http_connection'
p775
asbag61
(g82
g63
NtRp776
(dp777
g66
(dp778
g93
g94
ssg75
g767
sg68
(lp779
S':'
asbag61
(g82
g63
NtRp780
(dp781
g66
(dp782
sg75
g767
sg68
(lp783
g61
(g62
g63
NtRp784
(dp785
g66
(dp786
g74
I4
ssg75
g780
sg68
(lp787
S'Keep-Alive'
p788
asbasbasbag61
(g77
g63
NtRp789
(dp790
g66
(dp791
sg75
g479
sg68
(lp792
g61
(g82
g63
NtRp793
(dp794
g66
(dp795
g86
g87
ssg75
g789
sg68
(lp796
S'http_content_length'
p797
asbag61
(g82
g63
NtRp798
(dp799
g66
(dp800
g93
g94
ssg75
g789
sg68
(lp801
S':'
asbag61
(g82
g63
NtRp802
(dp803
g66
(dp804
sg75
g789
sg68
(lp805
g61
(g62
g63
NtRp806
(dp807
g66
(dp808
g74
I4
ssg75
g802
sg68
(lp809
S'819'
p810
asbasbasbag61
(g77
g63
NtRp811
(dp812
g66
(dp813
sg75
g479
sg68
(lp814
g61
(g82
g63
NtRp815
(dp816
g66
(dp817
g86
g87
ssg75
g811
sg68
(lp818
S'http_content_type'
p819
asbag61
(g82
g63
NtRp820
(dp821
g66
(dp822
g93
g94
ssg75
g811
sg68
(lp823
S':'
asbag61
(g82
g63
NtRp824
(dp825
g66
(dp826
sg75
g811
sg68
(lp827
g61
(g62
g63
NtRp828
(dp829
g66
(dp830
g74
I4
ssg75
g824
sg68
(lp831
S'multipart/form-data; boundary=----WebKitFormBoundarytyfLnB0bij0CeShg'
p832
asbasbasbag61
(g77
g63
NtRp833
(dp834
g66
(dp835
sg75
g479
sg68
(lp836
g61
(g82
g63
NtRp837
(dp838
g66
(dp839
g86
g87
ssg75
g833
sg68
(lp840
S'http_cookie'
p841
asbag61
(g82
g63
NtRp842
(dp843
g66
(dp844
g93
g94
ssg75
g833
sg68
(lp845
S':'
asbag61
(g82
g63
NtRp846
(dp847
g66
(dp848
sg75
g833
sg68
(lp849
g61
(g62
g63
NtRp850
(dp851
g66
(dp852
g74
I4
ssg75
g846
sg68
(lp853
S'session_id_rsoutelino=172.30.6.206-5b9039ad-f70c-436f-9f3d-e265648ab174'
p854
asbasbasbag61
(g77
g63
NtRp855
(dp856
g66
(dp857
sg75
g479
sg68
(lp858
g61
(g82
g63
NtRp859
(dp860
g66
(dp861
g86
g87
ssg75
g855
sg68
(lp862
S'http_host'
p863
asbag61
(g82
g63
NtRp864
(dp865
g66
(dp866
g93
g94
ssg75
g855
sg68
(lp867
S':'
asbag61
(g82
g63
NtRp868
(dp869
g66
(dp870
sg75
g855
sg68
(lp871
g61
(g62
g63
NtRp872
(dp873
g66
(dp874
g74
I4
ssg75
g868
sg68
(lp875
S'www.rsoutelino.com'
p876
asbasbasbag61
(g77
g63
NtRp877
(dp878
g66
(dp879
sg75
g479
sg68
(lp880
g61
(g82
g63
NtRp881
(dp882
g66
(dp883
g86
g87
ssg75
g877
sg68
(lp884
S'http_origin'
p885
asbag61
(g82
g63
NtRp886
(dp887
g66
(dp888
g93
g94
ssg75
g877
sg68
(lp889
S':'
asbag61
(g82
g63
NtRp890
(dp891
g66
(dp892
sg75
g877
sg68
(lp893
g61
(g62
g63
NtRp894
(dp895
g66
(dp896
g74
I4
ssg75
g890
sg68
(lp897
S'http://www.rsoutelino.com'
p898
asbasbasbag61
(g77
g63
NtRp899
(dp900
g66
(dp901
sg75
g479
sg68
(lp902
g61
(g82
g63
NtRp903
(dp904
g66
(dp905
g86
g87
ssg75
g899
sg68
(lp906
S'http_referer'
p907
asbag61
(g82
g63
NtRp908
(dp909
g66
(dp910
g93
g94
ssg75
g899
sg68
(lp911
S':'
asbag61
(g82
g63
NtRp912
(dp913
g66
(dp914
sg75
g899
sg68
(lp915
g61
(g62
g63
NtRp916
(dp917
g66
(dp918
g74
I4
ssg75
g912
sg68
(lp919
S'http://www.rsoutelino.com/rsoutelino/contact/contact'
p920
asbasbasbag61
(g77
g63
NtRp921
(dp922
g66
(dp923
sg75
g479
sg68
(lp924
g61
(g82
g63
NtRp925
(dp926
g66
(dp927
g86
g87
ssg75
g921
sg68
(lp928
S'http_user_agent'
p929
asbag61
(g82
g63
NtRp930
(dp931
g66
(dp932
g93
g94
ssg75
g921
sg68
(lp933
S':'
asbag61
(g82
g63
NtRp934
(dp935
g66
(dp936
sg75
g921
sg68
(lp937
g61
(g62
g63
NtRp938
(dp939
g66
(dp940
g74
I4
ssg75
g934
sg68
(lp941
S'Mozilla/5.0 (X11; Linux x86_64) AppleWebKit/537.17 (KHTML, like Gecko) Chrome/24.0.1312.57 Safari/537.17'
p942
asbasbasbag61
(g77
g63
NtRp943
(dp944
g66
(dp945
sg75
g479
sg68
(lp946
g61
(g82
g63
NtRp947
(dp948
g66
(dp949
g86
g87
ssg75
g943
sg68
(lp950
S'http_via'
p951
asbag61
(g82
g63
NtRp952
(dp953
g66
(dp954
g93
g94
ssg75
g943
sg68
(lp955
S':'
asbag61
(g82
g63
NtRp956
(dp957
g66
(dp958
sg75
g943
sg68
(lp959
g61
(g62
g63
NtRp960
(dp961
g66
(dp962
g74
I4
ssg75
g956
sg68
(lp963
S'1.1 10.6.32.12 (McAfee Web Gateway 7.2.0.4.0.14188)'
p964
asbasbasbag61
(g77
g63
NtRp965
(dp966
g66
(dp967
sg75
g479
sg68
(lp968
g61
(g82
g63
NtRp969
(dp970
g66
(dp971
g86
g87
ssg75
g965
sg68
(lp972
S'http_x_forwarded_for'
p973
asbag61
(g82
g63
NtRp974
(dp975
g66
(dp976
g93
g94
ssg75
g965
sg68
(lp977
S':'
asbag61
(g82
g63
NtRp978
(dp979
g66
(dp980
sg75
g965
sg68
(lp981
g61
(g62
g63
NtRp982
(dp983
g66
(dp984
g74
I4
ssg75
g978
sg68
(lp985
g216
asbasbasbag61
(g77
g63
NtRp986
(dp987
g66
(dp988
sg75
g479
sg68
(lp989
g61
(g82
g63
NtRp990
(dp991
g66
(dp992
g86
g87
ssg75
g986
sg68
(lp993
S'is_jython'
p994
asbag61
(g82
g63
NtRp995
(dp996
g66
(dp997
g93
g94
ssg75
g986
sg68
(lp998
S':'
asbag61
(g82
g63
NtRp999
(dp1000
g66
(dp1001
sg75
g986
sg68
(lp1002
g61
(g62
g63
NtRp1003
(dp1004
g66
(dp1005
g74
I4
ssg75
g999
sg68
(lp1006
g104
asbasbasbag61
(g77
g63
NtRp1007
(dp1008
g66
(dp1009
sg75
g479
sg68
(lp1010
g61
(g82
g63
NtRp1011
(dp1012
g66
(dp1013
g86
g87
ssg75
g1007
sg68
(lp1014
S'is_pypy'
p1015
asbag61
(g82
g63
NtRp1016
(dp1017
g66
(dp1018
g93
g94
ssg75
g1007
sg68
(lp1019
S':'
asbag61
(g82
g63
NtRp1020
(dp1021
g66
(dp1022
sg75
g1007
sg68
(lp1023
g61
(g62
g63
NtRp1024
(dp1025
g66
(dp1026
g74
I4
ssg75
g1020
sg68
(lp1027
g104
asbasbasbag61
(g77
g63
NtRp1028
(dp1029
g66
(dp1030
sg75
g479
sg68
(lp1031
g61
(g82
g63
NtRp1032
(dp1033
g66
(dp1034
g86
g87
ssg75
g1028
sg68
(lp1035
S'local_hosts'
p1036
asbag61
(g82
g63
NtRp1037
(dp1038
g66
(dp1039
g93
g94
ssg75
g1028
sg68
(lp1040
S':'
asbag61
(g82
g63
NtRp1041
(dp1042
g66
(dp1043
sg75
g1028
sg68
(lp1044
g61
(g62
g63
NtRp1045
(dp1046
g66
(dp1047
g74
I4
ssg75
g1041
sg68
(lp1048
g61
(g70
g63
NtRp1049
(dp1050
g66
(dp1051
g74
I3
ssg75
Nsg68
(lp1052
g61
(g77
g63
NtRp1053
(dp1054
g66
(dp1055
sg75
g1049
sg68
(lp1056
g61
(g82
g63
NtRp1057
(dp1058
g66
(dp1059
sg75
g1053
sg68
(lp1060
g61
(g62
g63
NtRp1061
(dp1062
g66
(dp1063
g74
I3
ssg75
g1057
sg68
(lp1064
S'127.0.0.1'
p1065
asbasbasbag61
(g77
g63
NtRp1066
(dp1067
g66
(dp1068
sg75
g1049
sg68
(lp1069
g61
(g82
g63
NtRp1070
(dp1071
g66
(dp1072
sg75
g1066
sg68
(lp1073
g61
(g62
g63
NtRp1074
(dp1075
g66
(dp1076
g74
I3
ssg75
g1070
sg68
(lp1077
S'::ffff:127.0.0.1'
p1078
asbasbasbag61
(g77
g63
NtRp1079
(dp1080
g66
(dp1081
sg75
g1049
sg68
(lp1082
g61
(g82
g63
NtRp1083
(dp1084
g66
(dp1085
sg75
g1079
sg68
(lp1086
g61
(g62
g63
NtRp1087
(dp1088
g66
(dp1089
g74
I3
ssg75
g1083
sg68
(lp1090
S'hansel-liveweb'
p1091
asbasbasbasbasbasbasbag61
(g77
g63
NtRp1092
(dp1093
g66
(dp1094
sg75
g479
sg68
(lp1095
g61
(g82
g63
NtRp1096
(dp1097
g66
(dp1098
g86
g87
ssg75
g1092
sg68
(lp1099
S'path_info'
p1100
asbag61
(g82
g63
NtRp1101
(dp1102
g66
(dp1103
g93
g94
ssg75
g1092
sg68
(lp1104
S':'
asbag61
(g82
g63
NtRp1105
(dp1106
g66
(dp1107
sg75
g1092
sg68
(lp1108
g61
(g62
g63
NtRp1109
(dp1110
g66
(dp1111
g74
I4
ssg75
g1105
sg68
(lp1112
S'/rsoutelino/contact/contact'
p1113
asbasbasbag61
(g77
g63
NtRp1114
(dp1115
g66
(dp1116
sg75
g479
sg68
(lp1117
g61
(g82
g63
NtRp1118
(dp1119
g66
(dp1120
g86
g87
ssg75
g1114
sg68
(lp1121
S'query_string'
p1122
asbag61
(g82
g63
NtRp1123
(dp1124
g66
(dp1125
g93
g94
ssg75
g1114
sg68
(lp1126
S':'
asbag61
(g82
g63
NtRp1127
(dp1128
g66
(dp1129
sg75
g1114
sg68
(lp1130
g61
(g62
g63
NtRp1131
(dp1132
g66
(dp1133
g74
I4
ssg75
g1127
sg68
(lp1134
S''
asbasbasbag61
(g77
g63
NtRp1135
(dp1136
g66
(dp1137
sg75
g479
sg68
(lp1138
g61
(g82
g63
NtRp1139
(dp1140
g66
(dp1141
g86
g87
ssg75
g1135
sg68
(lp1142
S'remote_addr'
p1143
asbag61
(g82
g63
NtRp1144
(dp1145
g66
(dp1146
g93
g94
ssg75
g1135
sg68
(lp1147
S':'
asbag61
(g82
g63
NtRp1148
(dp1149
g66
(dp1150
sg75
g1135
sg68
(lp1151
g61
(g62
g63
NtRp1152
(dp1153
g66
(dp1154
g74
I4
ssg75
g1148
sg68
(lp1155
S'189.125.114.245'
p1156
asbasbasbag61
(g77
g63
NtRp1157
(dp1158
g66
(dp1159
sg75
g479
sg68
(lp1160
g61
(g82
g63
NtRp1161
(dp1162
g66
(dp1163
g86
g87
ssg75
g1157
sg68
(lp1164
S'remote_port'
p1165
asbag61
(g82
g63
NtRp1166
(dp1167
g66
(dp1168
g93
g94
ssg75
g1157
sg68
(lp1169
S':'
asbag61
(g82
g63
NtRp1170
(dp1171
g66
(dp1172
sg75
g1157
sg68
(lp1173
g61
(g62
g63
NtRp1174
(dp1175
g66
(dp1176
g74
I4
ssg75
g1170
sg68
(lp1177
S'45438'
p1178
asbasbasbag61
(g77
g63
NtRp1179
(dp1180
g66
(dp1181
sg75
g479
sg68
(lp1182
g61
(g82
g63
NtRp1183
(dp1184
g66
(dp1185
g86
g87
ssg75
g1179
sg68
(lp1186
S'request_method'
p1187
asbag61
(g82
g63
NtRp1188
(dp1189
g66
(dp1190
g93
g94
ssg75
g1179
sg68
(lp1191
S':'
asbag61
(g82
g63
NtRp1192
(dp1193
g66
(dp1194
sg75
g1179
sg68
(lp1195
g61
(g62
g63
NtRp1196
(dp1197
g66
(dp1198
g74
I4
ssg75
g1192
sg68
(lp1199
S'POST'
p1200
asbasbasbag61
(g77
g63
NtRp1201
(dp1202
g66
(dp1203
sg75
g479
sg68
(lp1204
g61
(g82
g63
NtRp1205
(dp1206
g66
(dp1207
g86
g87
ssg75
g1201
sg68
(lp1208
S'request_uri'
p1209
asbag61
(g82
g63
NtRp1210
(dp1211
g66
(dp1212
g93
g94
ssg75
g1201
sg68
(lp1213
S':'
asbag61
(g82
g63
NtRp1214
(dp1215
g66
(dp1216
sg75
g1201
sg68
(lp1217
g61
(g62
g63
NtRp1218
(dp1219
g66
(dp1220
g74
I4
ssg75
g1214
sg68
(lp1221
S'/rsoutelino/contact/contact'
p1222
asbasbasbag61
(g77
g63
NtRp1223
(dp1224
g66
(dp1225
sg75
g479
sg68
(lp1226
g61
(g82
g63
NtRp1227
(dp1228
g66
(dp1229
g86
g87
ssg75
g1223
sg68
(lp1230
S'script_name'
p1231
asbag61
(g82
g63
NtRp1232
(dp1233
g66
(dp1234
g93
g94
ssg75
g1223
sg68
(lp1235
S':'
asbag61
(g82
g63
NtRp1236
(dp1237
g66
(dp1238
sg75
g1223
sg68
(lp1239
g61
(g62
g63
NtRp1240
(dp1241
g66
(dp1242
g74
I4
ssg75
g1236
sg68
(lp1243
S''
asbasbasbag61
(g77
g63
NtRp1244
(dp1245
g66
(dp1246
sg75
g479
sg68
(lp1247
g61
(g82
g63
NtRp1248
(dp1249
g66
(dp1250
g86
g87
ssg75
g1244
sg68
(lp1251
S'server_name'
p1252
asbag61
(g82
g63
NtRp1253
(dp1254
g66
(dp1255
g93
g94
ssg75
g1244
sg68
(lp1256
S':'
asbag61
(g82
g63
NtRp1257
(dp1258
g66
(dp1259
sg75
g1244
sg68
(lp1260
g61
(g62
g63
NtRp1261
(dp1262
g66
(dp1263
g74
I4
ssg75
g1257
sg68
(lp1264
S'~(?<domain>.+)$'
p1265
asbasbasbag61
(g77
g63
NtRp1266
(dp1267
g66
(dp1268
sg75
g479
sg68
(lp1269
g61
(g82
g63
NtRp1270
(dp1271
g66
(dp1272
g86
g87
ssg75
g1266
sg68
(lp1273
S'server_port'
p1274
asbag61
(g82
g63
NtRp1275
(dp1276
g66
(dp1277
g93
g94
ssg75
g1266
sg68
(lp1278
S':'
asbag61
(g82
g63
NtRp1279
(dp1280
g66
(dp1281
sg75
g1266
sg68
(lp1282
g61
(g62
g63
NtRp1283
(dp1284
g66
(dp1285
g74
I4
ssg75
g1279
sg68
(lp1286
S'80'
p1287
asbasbasbag61
(g77
g63
NtRp1288
(dp1289
g66
(dp1290
sg75
g479
sg68
(lp1291
g61
(g82
g63
NtRp1292
(dp1293
g66
(dp1294
g86
g87
ssg75
g1288
sg68
(lp1295
S'server_protocol'
p1296
asbag61
(g82
g63
NtRp1297
(dp1298
g66
(dp1299
g93
g94
ssg75
g1288
sg68
(lp1300
S':'
asbag61
(g82
g63
NtRp1301
(dp1302
g66
(dp1303
sg75
g1288
sg68
(lp1304
g61
(g62
g63
NtRp1305
(dp1306
g66
(dp1307
g74
I4
ssg75
g1301
sg68
(lp1308
S'HTTP/1.1'
p1309
asbasbasbag61
(g77
g63
NtRp1310
(dp1311
g66
(dp1312
sg75
g479
sg68
(lp1313
g61
(g82
g63
NtRp1314
(dp1315
g66
(dp1316
g86
g87
ssg75
g1310
sg68
(lp1317
S'uwsgi_node'
p1318
asbag61
(g82
g63
NtRp1319
(dp1320
g66
(dp1321
g93
g94
ssg75
g1310
sg68
(lp1322
S':'
asbag61
(g82
g63
NtRp1323
(dp1324
g66
(dp1325
sg75
g1310
sg68
(lp1326
g61
(g62
g63
NtRp1327
(dp1328
g66
(dp1329
g74
I4
ssg75
g1323
sg68
(lp1330
S'hansel-liveweb'
p1331
asbasbasbag61
(g77
g63
NtRp1332
(dp1333
g66
(dp1334
sg75
g479
sg68
(lp1335
g61
(g82
g63
NtRp1336
(dp1337
g66
(dp1338
g86
g87
ssg75
g1332
sg68
(lp1339
S'uwsgi_version'
p1340
asbag61
(g82
g63
NtRp1341
(dp1342
g66
(dp1343
g93
g94
ssg75
g1332
sg68
(lp1344
S':'
asbag61
(g82
g63
NtRp1345
(dp1346
g66
(dp1347
sg75
g1332
sg68
(lp1348
g61
(g62
g63
NtRp1349
(dp1350
g66
(dp1351
g74
I4
ssg75
g1345
sg68
(lp1352
S'1.4.4'
p1353
asbasbasbag61
(g77
g63
NtRp1354
(dp1355
g66
(dp1356
sg75
g479
sg68
(lp1357
g61
(g82
g63
NtRp1358
(dp1359
g66
(dp1360
g86
g87
ssg75
g1354
sg68
(lp1361
S'web2py_path'
p1362
asbag61
(g82
g63
NtRp1363
(dp1364
g66
(dp1365
g93
g94
ssg75
g1354
sg68
(lp1366
S':'
asbag61
(g82
g63
NtRp1367
(dp1368
g66
(dp1369
sg75
g1354
sg68
(lp1370
g61
(g62
g63
NtRp1371
(dp1372
g66
(dp1373
g74
I4
ssg75
g1367
sg68
(lp1374
g526
asbasbasbag61
(g77
g63
NtRp1375
(dp1376
g66
(dp1377
sg75
g479
sg68
(lp1378
g61
(g82
g63
NtRp1379
(dp1380
g66
(dp1381
g86
g87
ssg75
g1375
sg68
(lp1382
S'web2py_version'
p1383
asbag61
(g82
g63
NtRp1384
(dp1385
g66
(dp1386
g93
g94
ssg75
g1375
sg68
(lp1387
S':'
asbag61
(g82
g63
NtRp1388
(dp1389
g66
(dp1390
sg75
g1375
sg68
(lp1391
g61
(g62
g63
NtRp1392
(dp1393
g66
(dp1394
g74
I4
ssg75
g1388
sg68
(lp1395
g61
(g70
g63
NtRp1396
(dp1397
g66
(dp1398
g74
I3
ssg75
Nsg68
(lp1399
g61
(g77
g63
NtRp1400
(dp1401
g66
(dp1402
sg75
g1396
sg68
(lp1403
g61
(g82
g63
NtRp1404
(dp1405
g66
(dp1406
sg75
g1400
sg68
(lp1407
g61
(g62
g63
NtRp1408
(dp1409
g66
(dp1410
g74
I3
ssg75
g1404
sg68
(lp1411
S'2'
asbasbasbag61
(g77
g63
NtRp1412
(dp1413
g66
(dp1414
sg75
g1396
sg68
(lp1415
g61
(g82
g63
NtRp1416
(dp1417
g66
(dp1418
sg75
g1412
sg68
(lp1419
g61
(g62
g63
NtRp1420
(dp1421
g66
(dp1422
g74
I3
ssg75
g1416
sg68
(lp1423
S'2'
asbasbasbag61
(g77
g63
NtRp1424
(dp1425
g66
(dp1426
sg75
g1396
sg68
(lp1427
g61
(g82
g63
NtRp1428
(dp1429
g66
(dp1430
sg75
g1424
sg68
(lp1431
g61
(g62
g63
NtRp1432
(dp1433
g66
(dp1434
g74
I3
ssg75
g1428
sg68
(lp1435
S'1'
asbasbasbag61
(g77
g63
NtRp1436
(dp1437
g66
(dp1438
sg75
g1396
sg68
(lp1439
g61
(g82
g63
NtRp1440
(dp1441
g66
(dp1442
sg75
g1436
sg68
(lp1443
g61
(g62
g63
NtRp1444
(dp1445
g66
(dp1446
g74
I3
ssg75
g1440
sg68
(lp1447
S'datetime.datetime(2012, 10, 21, 16, 57, 4)'
p1448
asbasbasbag61
(g77
g63
NtRp1449
(dp1450
g66
(dp1451
sg75
g1396
sg68
(lp1452
g61
(g82
g63
NtRp1453
(dp1454
g66
(dp1455
sg75
g1449
sg68
(lp1456
g61
(g62
g63
NtRp1457
(dp1458
g66
(dp1459
g74
I3
ssg75
g1453
sg68
(lp1460
S'stable'
p1461
asbasbasbasbasbasbasbag61
(g77
g63
NtRp1462
(dp1463
g66
(dp1464
sg75
g479
sg68
(lp1465
g61
(g82
g63
NtRp1466
(dp1467
g66
(dp1468
g86
g87
ssg75
g1462
sg68
(lp1469
S'wsgi_errors'
p1470
asbag61
(g82
g63
NtRp1471
(dp1472
g66
(dp1473
g93
g94
ssg75
g1462
sg68
(lp1474
S':'
asbag61
(g82
g63
NtRp1475
(dp1476
g66
(dp1477
sg75
g1462
sg68
(lp1478
g61
(g62
g63
NtRp1479
(dp1480
g66
(dp1481
g74
I4
ssg75
g1475
sg68
(lp1482
S'<uwsgi_file__bin_user_wsgi_wrapper.ErrorLogWrapper object at 0x2b07ed0>'
p1483
asbasbasbag61
(g77
g63
NtRp1484
(dp1485
g66
(dp1486
sg75
g479
sg68
(lp1487
g61
(g82
g63
NtRp1488
(dp1489
g66
(dp1490
g86
g87
ssg75
g1484
sg68
(lp1491
S'wsgi_file_wrapper'
p1492
asbag61
(g82
g63
NtRp1493
(dp1494
g66
(dp1495
g93
g94
ssg75
g1484
sg68
(lp1496
S':'
asbag61
(g82
g63
NtRp1497
(dp1498
g66
(dp1499
sg75
g1484
sg68
(lp1500
g61
(g62
g63
NtRp1501
(dp1502
g66
(dp1503
g74
I4
ssg75
g1497
sg68
(lp1504
S'<built-in function uwsgi_sendfile>'
p1505
asbasbasbag61
(g77
g63
NtRp1506
(dp1507
g66
(dp1508
sg75
g479
sg68
(lp1509
g61
(g82
g63
NtRp1510
(dp1511
g66
(dp1512
g86
g87
ssg75
g1506
sg68
(lp1513
S'wsgi_input'
p1514
asbag61
(g82
g63
NtRp1515
(dp1516
g66
(dp1517
g93
g94
ssg75
g1506
sg68
(lp1518
S':'
asbag61
(g82
g63
NtRp1519
(dp1520
g66
(dp1521
sg75
g1506
sg68
(lp1522
g61
(g62
g63
NtRp1523
(dp1524
g66
(dp1525
g74
I4
ssg75
g1519
sg68
(lp1526
S'<uwsgi._Input object at 0x3a86d40>'
p1527
asbasbasbag61
(g77
g63
NtRp1528
(dp1529
g66
(dp1530
sg75
g479
sg68
(lp1531
g61
(g82
g63
NtRp1532
(dp1533
g66
(dp1534
g86
g87
ssg75
g1528
sg68
(lp1535
S'wsgi_multiprocess'
p1536
asbag61
(g82
g63
NtRp1537
(dp1538
g66
(dp1539
g93
g94
ssg75
g1528
sg68
(lp1540
S':'
asbag61
(g82
g63
NtRp1541
(dp1542
g66
(dp1543
sg75
g1528
sg68
(lp1544
g61
(g62
g63
NtRp1545
(dp1546
g66
(dp1547
g74
I4
ssg75
g1541
sg68
(lp1548
g104
asbasbasbag61
(g77
g63
NtRp1549
(dp1550
g66
(dp1551
sg75
g479
sg68
(lp1552
g61
(g82
g63
NtRp1553
(dp1554
g66
(dp1555
g86
g87
ssg75
g1549
sg68
(lp1556
S'wsgi_multithread'
p1557
asbag61
(g82
g63
NtRp1558
(dp1559
g66
(dp1560
g93
g94
ssg75
g1549
sg68
(lp1561
S':'
asbag61
(g82
g63
NtRp1562
(dp1563
g66
(dp1564
sg75
g1549
sg68
(lp1565
g61
(g62
g63
NtRp1566
(dp1567
g66
(dp1568
g74
I4
ssg75
g1562
sg68
(lp1569
g104
asbasbasbag61
(g77
g63
NtRp1570
(dp1571
g66
(dp1572
sg75
g479
sg68
(lp1573
g61
(g82
g63
NtRp1574
(dp1575
g66
(dp1576
g86
g87
ssg75
g1570
sg68
(lp1577
S'wsgi_run_once'
p1578
asbag61
(g82
g63
NtRp1579
(dp1580
g66
(dp1581
g93
g94
ssg75
g1570
sg68
(lp1582
S':'
asbag61
(g82
g63
NtRp1583
(dp1584
g66
(dp1585
sg75
g1570
sg68
(lp1586
g61
(g62
g63
NtRp1587
(dp1588
g66
(dp1589
g74
I4
ssg75
g1583
sg68
(lp1590
g104
asbasbasbag61
(g77
g63
NtRp1591
(dp1592
g66
(dp1593
sg75
g479
sg68
(lp1594
g61
(g82
g63
NtRp1595
(dp1596
g66
(dp1597
g86
g87
ssg75
g1591
sg68
(lp1598
S'wsgi_url_scheme'
p1599
asbag61
(g82
g63
NtRp1600
(dp1601
g66
(dp1602
g93
g94
ssg75
g1591
sg68
(lp1603
S':'
asbag61
(g82
g63
NtRp1604
(dp1605
g66
(dp1606
sg75
g1591
sg68
(lp1607
g61
(g62
g63
NtRp1608
(dp1609
g66
(dp1610
g74
I4
ssg75
g1604
sg68
(lp1611
S'http'
p1612
asbasbasbag61
(g77
g63
NtRp1613
(dp1614
g66
(dp1615
sg75
g479
sg68
(lp1616
g61
(g82
g63
NtRp1617
(dp1618
g66
(dp1619
g86
g87
ssg75
g1613
sg68
(lp1620
S'wsgi_version'
p1621
asbag61
(g82
g63
NtRp1622
(dp1623
g66
(dp1624
g93
g94
ssg75
g1613
sg68
(lp1625
S':'
asbag61
(g82
g63
NtRp1626
(dp1627
g66
(dp1628
sg75
g1613
sg68
(lp1629
g61
(g62
g63
NtRp1630
(dp1631
g66
(dp1632
g74
I4
ssg75
g1626
sg68
(lp1633
g61
(g70
g63
NtRp1634
(dp1635
g66
(dp1636
g74
I3
ssg75
Nsg68
(lp1637
g61
(g77
g63
NtRp1638
(dp1639
g66
(dp1640
sg75
g1634
sg68
(lp1641
g61
(g82
g63
NtRp1642
(dp1643
g66
(dp1644
sg75
g1638
sg68
(lp1645
g61
(g62
g63
NtRp1646
(dp1647
g66
(dp1648
g74
I3
ssg75
g1642
sg68
(lp1649
S'1'
asbasbasbag61
(g77
g63
NtRp1650
(dp1651
g66
(dp1652
sg75
g1634
sg68
(lp1653
g61
(g82
g63
NtRp1654
(dp1655
g66
(dp1656
sg75
g1650
sg68
(lp1657
g61
(g62
g63
NtRp1658
(dp1659
g66
(dp1660
g74
I3
ssg75
g1654
sg68
(lp1661
S'0'
asbasbasbasbasbasbasbasbasbasbasbag61
(g77
g63
NtRp1662
(dp1663
g66
(dp1664
sg75
g71
sg68
(lp1665
g61
(g82
g63
NtRp1666
(dp1667
g66
(dp1668
g86
g87
ssg75
g1662
sg68
(lp1669
S'extension'
p1670
asbag61
(g82
g63
NtRp1671
(dp1672
g66
(dp1673
g93
g94
ssg75
g1662
sg68
(lp1674
S':'
asbag61
(g82
g63
NtRp1675
(dp1676
g66
(dp1677
sg75
g1662
sg68
(lp1678
g61
(g62
g63
NtRp1679
(dp1680
g66
(dp1681
g74
I5
ssg75
g1675
sg68
(lp1682
S'html'
p1683
asbasbasbag61
(g77
g63
NtRp1684
(dp1685
g66
(dp1686
sg75
g71
sg68
(lp1687
g61
(g82
g63
NtRp1688
(dp1689
g66
(dp1690
g86
g87
ssg75
g1684
sg68
(lp1691
S'folder'
p1692
asbag61
(g82
g63
NtRp1693
(dp1694
g66
(dp1695
g93
g94
ssg75
g1684
sg68
(lp1696
S':'
asbag61
(g82
g63
NtRp1697
(dp1698
g66
(dp1699
sg75
g1684
sg68
(lp1700
g61
(g62
g63
NtRp1701
(dp1702
g66
(dp1703
g74
I5
ssg75
g1697
sg68
(lp1704
S'/home/rsoutelino/web2py/applications/rsoutelino/'
p1705
asbasbasbag61
(g77
g63
NtRp1706
(dp1707
g66
(dp1708
sg75
g71
sg68
(lp1709
g61
(g82
g63
NtRp1710
(dp1711
g66
(dp1712
g86
g87
ssg75
g1706
sg68
(lp1713
S'function'
p1714
asbag61
(g82
g63
NtRp1715
(dp1716
g66
(dp1717
g93
g94
ssg75
g1706
sg68
(lp1718
S':'
asbag61
(g82
g63
NtRp1719
(dp1720
g66
(dp1721
sg75
g1706
sg68
(lp1722
g61
(g62
g63
NtRp1723
(dp1724
g66
(dp1725
g74
I5
ssg75
g1719
sg68
(lp1726
S'contact'
p1727
asbasbasbag61
(g77
g63
NtRp1728
(dp1729
g66
(dp1730
sg75
g71
sg68
(lp1731
g61
(g82
g63
NtRp1732
(dp1733
g66
(dp1734
g86
g87
ssg75
g1728
sg68
(lp1735
S'get_vars'
p1736
asbag61
(g82
g63
NtRp1737
(dp1738
g66
(dp1739
g93
g94
ssg75
g1728
sg68
(lp1740
S':'
asbag61
(g82
g63
NtRp1741
(dp1742
g66
(dp1743
sg75
g1728
sg68
(lp1744
g61
(g62
g63
NtRp1745
(dp1746
g66
(dp1747
g74
I5
ssg75
g1741
sg68
(lp1748
g61
(g70
g63
NtRp1749
(dp1750
g66
(dp1751
g74
I4
ssg75
Nsg68
(lp1752
sbasbasbasbag61
(g77
g63
NtRp1753
(dp1754
g66
(dp1755
sg75
g71
sg68
(lp1756
g61
(g82
g63
NtRp1757
(dp1758
g66
(dp1759
g86
g87
ssg75
g1753
sg68
(lp1760
S'global_settings'
p1761
asbag61
(g82
g63
NtRp1762
(dp1763
g66
(dp1764
g93
g94
ssg75
g1753
sg68
(lp1765
S':'
asbag61
(g82
g63
NtRp1766
(dp1767
g66
(dp1768
sg75
g1753
sg68
(lp1769
g61
(g62
g63
NtRp1770
(dp1771
g66
(dp1772
g74
I5
ssg75
g1766
sg68
(lp1773
g61
(g70
g63
NtRp1774
(dp1775
g66
(dp1776
g74
I4
ssg75
Nsg68
(lp1777
g61
(g77
g63
NtRp1778
(dp1779
g66
(dp1780
sg75
g1774
sg68
(lp1781
g61
(g82
g63
NtRp1782
(dp1783
g66
(dp1784
g86
g87
ssg75
g1778
sg68
(lp1785
g491
asbag61
(g82
g63
NtRp1786
(dp1787
g66
(dp1788
g93
g94
ssg75
g1778
sg68
(lp1789
S':'
asbag61
(g82
g63
NtRp1790
(dp1791
g66
(dp1792
sg75
g1778
sg68
(lp1793
g61
(g62
g63
NtRp1794
(dp1795
g66
(dp1796
g74
I4
ssg75
g1790
sg68
(lp1797
S"set(['/home/rsoutelino/web2py/applications/rsoutelino/', '/home/rsoutelino/web2py/applications/admin/'])"
p1798
asbasbasbag61
(g77
g63
NtRp1799
(dp1800
g66
(dp1801
sg75
g1774
sg68
(lp1802
g61
(g82
g63
NtRp1803
(dp1804
g66
(dp1805
g86
g87
ssg75
g1799
sg68
(lp1806
g513
asbag61
(g82
g63
NtRp1807
(dp1808
g66
(dp1809
g93
g94
ssg75
g1799
sg68
(lp1810
S':'
asbag61
(g82
g63
NtRp1811
(dp1812
g66
(dp1813
sg75
g1799
sg68
(lp1814
g61
(g62
g63
NtRp1815
(dp1816
g66
(dp1817
g74
I4
ssg75
g1811
sg68
(lp1818
g526
asbasbasbag61
(g77
g63
NtRp1819
(dp1820
g66
(dp1821
sg75
g1774
sg68
(lp1822
g61
(g82
g63
NtRp1823
(dp1824
g66
(dp1825
g86
g87
ssg75
g1819
sg68
(lp1826
g579
asbag61
(g82
g63
NtRp1827
(dp1828
g66
(dp1829
g93
g94
ssg75
g1819
sg68
(lp1830
S':'
asbag61
(g82
g63
NtRp1831
(dp1832
g66
(dp1833
sg75
g1819
sg68
(lp1834
g61
(g62
g63
NtRp1835
(dp1836
g66
(dp1837
g74
I4
ssg75
g1831
sg68
(lp1838
S'set([])'
p1839
asbasbasbag61
(g77
g63
NtRp1840
(dp1841
g66
(dp1842
sg75
g1774
sg68
(lp1843
g61
(g82
g63
NtRp1844
(dp1845
g66
(dp1846
g86
g87
ssg75
g1840
sg68
(lp1847
g601
asbag61
(g82
g63
NtRp1848
(dp1849
g66
(dp1850
g93
g94
ssg75
g1840
sg68
(lp1851
S':'
asbag61
(g82
g63
NtRp1852
(dp1853
g66
(dp1854
sg75
g1840
sg68
(lp1855
g61
(g62
g63
NtRp1856
(dp1857
g66
(dp1858
g74
I4
ssg75
g1852
sg68
(lp1859
g104
asbasbasbag61
(g77
g63
NtRp1860
(dp1861
g66
(dp1862
sg75
g1774
sg68
(lp1863
g61
(g82
g63
NtRp1864
(dp1865
g66
(dp1866
g86
g87
ssg75
g1860
sg68
(lp1867
g644
asbag61
(g82
g63
NtRp1868
(dp1869
g66
(dp1870
g93
g94
ssg75
g1860
sg68
(lp1871
S':'
asbag61
(g82
g63
NtRp1872
(dp1873
g66
(dp1874
sg75
g1860
sg68
(lp1875
g61
(g62
g63
NtRp1876
(dp1877
g66
(dp1878
g74
I4
ssg75
g1872
sg68
(lp1879
g526
asbasbasbag61
(g77
g63
NtRp1880
(dp1881
g66
(dp1882
sg75
g1774
sg68
(lp1883
g61
(g82
g63
NtRp1884
(dp1885
g66
(dp1886
g86
g87
ssg75
g1880
sg68
(lp1887
g994
asbag61
(g82
g63
NtRp1888
(dp1889
g66
(dp1890
g93
g94
ssg75
g1880
sg68
(lp1891
S':'
asbag61
(g82
g63
NtRp1892
(dp1893
g66
(dp1894
sg75
g1880
sg68
(lp1895
g61
(g62
g63
NtRp1896
(dp1897
g66
(dp1898
g74
I4
ssg75
g1892
sg68
(lp1899
g104
asbasbasbag61
(g77
g63
NtRp1900
(dp1901
g66
(dp1902
sg75
g1774
sg68
(lp1903
g61
(g82
g63
NtRp1904
(dp1905
g66
(dp1906
g86
g87
ssg75
g1900
sg68
(lp1907
g1015
asbag61
(g82
g63
NtRp1908
(dp1909
g66
(dp1910
g93
g94
ssg75
g1900
sg68
(lp1911
S':'
asbag61
(g82
g63
NtRp1912
(dp1913
g66
(dp1914
sg75
g1900
sg68
(lp1915
g61
(g62
g63
NtRp1916
(dp1917
g66
(dp1918
g74
I4
ssg75
g1912
sg68
(lp1919
g104
asbasbasbag61
(g77
g63
NtRp1920
(dp1921
g66
(dp1922
sg75
g1774
sg68
(lp1923
g61
(g82
g63
NtRp1924
(dp1925
g66
(dp1926
g86
g87
ssg75
g1920
sg68
(lp1927
g1036
asbag61
(g82
g63
NtRp1928
(dp1929
g66
(dp1930
g93
g94
ssg75
g1920
sg68
(lp1931
S':'
asbag61
(g82
g63
NtRp1932
(dp1933
g66
(dp1934
sg75
g1920
sg68
(lp1935
g61
(g62
g63
NtRp1936
(dp1937
g66
(dp1938
g74
I4
ssg75
g1932
sg68
(lp1939
g61
(g70
g63
NtRp1940
(dp1941
g66
(dp1942
g74
I3
ssg75
Nsg68
(lp1943
g61
(g77
g63
NtRp1944
(dp1945
g66
(dp1946
sg75
g1940
sg68
(lp1947
g61
(g82
g63
NtRp1948
(dp1949
g66
(dp1950
sg75
g1944
sg68
(lp1951
g61
(g62
g63
NtRp1952
(dp1953
g66
(dp1954
g74
I3
ssg75
g1948
sg68
(lp1955
g1065
asbasbasbag61
(g77
g63
NtRp1956
(dp1957
g66
(dp1958
sg75
g1940
sg68
(lp1959
g61
(g82
g63
NtRp1960
(dp1961
g66
(dp1962
sg75
g1956
sg68
(lp1963
g61
(g62
g63
NtRp1964
(dp1965
g66
(dp1966
g74
I3
ssg75
g1960
sg68
(lp1967
g1078
asbasbasbag61
(g77
g63
NtRp1968
(dp1969
g66
(dp1970
sg75
g1940
sg68
(lp1971
g61
(g82
g63
NtRp1972
(dp1973
g66
(dp1974
sg75
g1968
sg68
(lp1975
g61
(g62
g63
NtRp1976
(dp1977
g66
(dp1978
g74
I3
ssg75
g1972
sg68
(lp1979
g1091
asbasbasbasbasbasbasbag61
(g77
g63
NtRp1980
(dp1981
g66
(dp1982
sg75
g1774
sg68
(lp1983
g61
(g82
g63
NtRp1984
(dp1985
g66
(dp1986
g86
g87
ssg75
g1980
sg68
(lp1987
g1383
asbag61
(g82
g63
NtRp1988
(dp1989
g66
(dp1990
g93
g94
ssg75
g1980
sg68
(lp1991
S':'
asbag61
(g82
g63
NtRp1992
(dp1993
g66
(dp1994
sg75
g1980
sg68
(lp1995
g61
(g62
g63
NtRp1996
(dp1997
g66
(dp1998
g74
I4
ssg75
g1992
sg68
(lp1999
g61
(g70
g63
NtRp2000
(dp2001
g66
(dp2002
g74
I3
ssg75
Nsg68
(lp2003
g61
(g77
g63
NtRp2004
(dp2005
g66
(dp2006
sg75
g2000
sg68
(lp2007
g61
(g82
g63
NtRp2008
(dp2009
g66
(dp2010
sg75
g2004
sg68
(lp2011
g61
(g62
g63
NtRp2012
(dp2013
g66
(dp2014
g74
I3
ssg75
g2008
sg68
(lp2015
S'2'
asbasbasbag61
(g77
g63
NtRp2016
(dp2017
g66
(dp2018
sg75
g2000
sg68
(lp2019
g61
(g82
g63
NtRp2020
(dp2021
g66
(dp2022
sg75
g2016
sg68
(lp2023
g61
(g62
g63
NtRp2024
(dp2025
g66
(dp2026
g74
I3
ssg75
g2020
sg68
(lp2027
S'2'
asbasbasbag61
(g77
g63
NtRp2028
(dp2029
g66
(dp2030
sg75
g2000
sg68
(lp2031
g61
(g82
g63
NtRp2032
(dp2033
g66
(dp2034
sg75
g2028
sg68
(lp2035
g61
(g62
g63
NtRp2036
(dp2037
g66
(dp2038
g74
I3
ssg75
g2032
sg68
(lp2039
S'1'
asbasbasbag61
(g77
g63
NtRp2040
(dp2041
g66
(dp2042
sg75
g2000
sg68
(lp2043
g61
(g82
g63
NtRp2044
(dp2045
g66
(dp2046
sg75
g2040
sg68
(lp2047
g61
(g62
g63
NtRp2048
(dp2049
g66
(dp2050
g74
I3
ssg75
g2044
sg68
(lp2051
S'datetime.datetime(2012, 10, 21, 16, 57, 4)'
p2052
asbasbasbag61
(g77
g63
NtRp2053
(dp2054
g66
(dp2055
sg75
g2000
sg68
(lp2056
g61
(g82
g63
NtRp2057
(dp2058
g66
(dp2059
sg75
g2053
sg68
(lp2060
g61
(g62
g63
NtRp2061
(dp2062
g66
(dp2063
g74
I3
ssg75
g2057
sg68
(lp2064
g1461
asbasbasbasbasbasbasbasbasbasbasbag61
(g77
g63
NtRp2065
(dp2066
g66
(dp2067
sg75
g71
sg68
(lp2068
g61
(g82
g63
NtRp2069
(dp2070
g66
(dp2071
g86
g87
ssg75
g2065
sg68
(lp2072
S'is_https'
p2073
asbag61
(g82
g63
NtRp2074
(dp2075
g66
(dp2076
g93
g94
ssg75
g2065
sg68
(lp2077
S':'
asbag61
(g82
g63
NtRp2078
(dp2079
g66
(dp2080
sg75
g2065
sg68
(lp2081
g61
(g62
g63
NtRp2082
(dp2083
g66
(dp2084
g74
I5
ssg75
g2078
sg68
(lp2085
g104
asbasbasbag61
(g77
g63
NtRp2086
(dp2087
g66
(dp2088
sg75
g71
sg68
(lp2089
g61
(g82
g63
NtRp2090
(dp2091
g66
(dp2092
g86
g87
ssg75
g2086
sg68
(lp2093
S'is_local'
p2094
asbag61
(g82
g63
NtRp2095
(dp2096
g66
(dp2097
g93
g94
ssg75
g2086
sg68
(lp2098
S':'
asbag61
(g82
g63
NtRp2099
(dp2100
g66
(dp2101
sg75
g2086
sg68
(lp2102
g61
(g62
g63
NtRp2103
(dp2104
g66
(dp2105
g74
I5
ssg75
g2099
sg68
(lp2106
g104
asbasbasbag61
(g77
g63
NtRp2107
(dp2108
g66
(dp2109
sg75
g71
sg68
(lp2110
g61
(g82
g63
NtRp2111
(dp2112
g66
(dp2113
g86
g87
ssg75
g2107
sg68
(lp2114
S'is_restful'
p2115
asbag61
(g82
g63
NtRp2116
(dp2117
g66
(dp2118
g93
g94
ssg75
g2107
sg68
(lp2119
S':'
asbag61
(g82
g63
NtRp2120
(dp2121
g66
(dp2122
sg75
g2107
sg68
(lp2123
g61
(g62
g63
NtRp2124
(dp2125
g66
(dp2126
g74
I5
ssg75
g2120
sg68
(lp2127
g104
asbasbasbag61
(g77
g63
NtRp2128
(dp2129
g66
(dp2130
sg75
g71
sg68
(lp2131
g61
(g82
g63
NtRp2132
(dp2133
g66
(dp2134
g86
g87
ssg75
g2128
sg68
(lp2135
S'now'
p2136
asbag61
(g82
g63
NtRp2137
(dp2138
g66
(dp2139
g93
g94
ssg75
g2128
sg68
(lp2140
S':'
asbag61
(g82
g63
NtRp2141
(dp2142
g66
(dp2143
sg75
g2128
sg68
(lp2144
g61
(g62
g63
NtRp2145
(dp2146
g66
(dp2147
g74
I5
ssg75
g2141
sg68
(lp2148
S'datetime.datetime(2013, 2, 7, 12, 13, 55, 601033)'
p2149
asbasbasbag61
(g77
g63
NtRp2150
(dp2151
g66
(dp2152
sg75
g71
sg68
(lp2153
g61
(g82
g63
NtRp2154
(dp2155
g66
(dp2156
g86
g87
ssg75
g2150
sg68
(lp2157
S'post_vars'
p2158
asbag61
(g82
g63
NtRp2159
(dp2160
g66
(dp2161
g93
g94
ssg75
g2150
sg68
(lp2162
S':'
asbag61
(g82
g63
NtRp2163
(dp2164
g66
(dp2165
sg75
g2150
sg68
(lp2166
g61
(g62
g63
NtRp2167
(dp2168
g66
(dp2169
g74
I5
ssg75
g2163
sg68
(lp2170
g61
(g70
g63
NtRp2171
(dp2172
g66
(dp2173
g74
I4
ssg75
Nsg68
(lp2174
g61
(g77
g63
NtRp2175
(dp2176
g66
(dp2177
sg75
g2171
sg68
(lp2178
g61
(g82
g63
NtRp2179
(dp2180
g66
(dp2181
g86
g87
ssg75
g2175
sg68
(lp2182
S'adress'
p2183
asbag61
(g82
g63
NtRp2184
(dp2185
g66
(dp2186
g93
g94
ssg75
g2175
sg68
(lp2187
S':'
asbag61
(g82
g63
NtRp2188
(dp2189
g66
(dp2190
sg75
g2175
sg68
(lp2191
g61
(g62
g63
NtRp2192
(dp2193
g66
(dp2194
g74
I4
ssg75
g2188
sg68
(lp2195
S'not your business'
p2196
asbasbasbag61
(g77
g63
NtRp2197
(dp2198
g66
(dp2199
sg75
g2171
sg68
(lp2200
g61
(g82
g63
NtRp2201
(dp2202
g66
(dp2203
g86
g87
ssg75
g2197
sg68
(lp2204
S'commentary'
p2205
asbag61
(g82
g63
NtRp2206
(dp2207
g66
(dp2208
g93
g94
ssg75
g2197
sg68
(lp2209
S':'
asbag61
(g82
g63
NtRp2210
(dp2211
g66
(dp2212
sg75
g2197
sg68
(lp2213
g61
(g62
g63
NtRp2214
(dp2215
g66
(dp2216
g74
I4
ssg75
g2210
sg68
(lp2217
S'Fuck you'
p2218
asbasbasbag61
(g77
g63
NtRp2219
(dp2220
g66
(dp2221
sg75
g2171
sg68
(lp2222
g61
(g82
g63
NtRp2223
(dp2224
g66
(dp2225
g86
g87
ssg75
g2219
sg68
(lp2226
S'email'
p2227
asbag61
(g82
g63
NtRp2228
(dp2229
g66
(dp2230
g93
g94
ssg75
g2219
sg68
(lp2231
S':'
asbag61
(g82
g63
NtRp2232
(dp2233
g66
(dp2234
sg75
g2219
sg68
(lp2235
g61
(g62
g63
NtRp2236
(dp2237
g66
(dp2238
g74
I4
ssg75
g2232
sg68
(lp2239
S'rsoutelino@gmail.com'
p2240
asbasbasbag61
(g77
g63
NtRp2241
(dp2242
g66
(dp2243
sg75
g2171
sg68
(lp2244
g61
(g82
g63
NtRp2245
(dp2246
g66
(dp2247
g86
g87
ssg75
g2241
sg68
(lp2248
S'name'
p2249
asbag61
(g82
g63
NtRp2250
(dp2251
g66
(dp2252
g93
g94
ssg75
g2241
sg68
(lp2253
S':'
asbag61
(g82
g63
NtRp2254
(dp2255
g66
(dp2256
sg75
g2241
sg68
(lp2257
g61
(g62
g63
NtRp2258
(dp2259
g66
(dp2260
g74
I4
ssg75
g2254
sg68
(lp2261
S'Rafael Soutelino'
p2262
asbasbasbag61
(g77
g63
NtRp2263
(dp2264
g66
(dp2265
sg75
g2171
sg68
(lp2266
g61
(g82
g63
NtRp2267
(dp2268
g66
(dp2269
g86
g87
ssg75
g2263
sg68
(lp2270
S'tel'
p2271
asbag61
(g82
g63
NtRp2272
(dp2273
g66
(dp2274
g93
g94
ssg75
g2263
sg68
(lp2275
S':'
asbag61
(g82
g63
NtRp2276
(dp2277
g66
(dp2278
sg75
g2263
sg68
(lp2279
g61
(g62
g63
NtRp2280
(dp2281
g66
(dp2282
g74
I4
ssg75
g2276
sg68
(lp2283
S'123456778'
p2284
asbasbasbasbasbasbasbag61
(g77
g63
NtRp2285
(dp2286
g66
(dp2287
sg75
g71
sg68
(lp2288
g61
(g82
g63
NtRp2289
(dp2290
g66
(dp2291
g86
g87
ssg75
g2285
sg68
(lp2292
S'raw_args'
p2293
asbag61
(g82
g63
NtRp2294
(dp2295
g66
(dp2296
g93
g94
ssg75
g2285
sg68
(lp2297
S':'
asbag61
(g82
g63
NtRp2298
(dp2299
g66
(dp2300
sg75
g2285
sg68
(lp2301
g61
(g62
g63
NtRp2302
(dp2303
g66
(dp2304
g74
I5
ssg75
g2298
sg68
(lp2305
S''
asbasbasbag61
(g77
g63
NtRp2306
(dp2307
g66
(dp2308
sg75
g71
sg68
(lp2309
g61
(g82
g63
NtRp2310
(dp2311
g66
(dp2312
g86
g87
ssg75
g2306
sg68
(lp2313
S'raw_extension'
p2314
asbag61
(g82
g63
NtRp2315
(dp2316
g66
(dp2317
g93
g94
ssg75
g2306
sg68
(lp2318
S':'
asbag61
(g82
g63
NtRp2319
(dp2320
g66
(dp2321
sg75
g2306
sg68
(lp2322
g61
(g62
g63
NtRp2323
(dp2324
g66
(dp2325
g74
I5
ssg75
g2319
sg68
(lp2326
S'None'
p2327
asbasbasbag61
(g77
g63
NtRp2328
(dp2329
g66
(dp2330
sg75
g71
sg68
(lp2331
g61
(g82
g63
NtRp2332
(dp2333
g66
(dp2334
g86
g87
ssg75
g2328
sg68
(lp2335
S'url'
p2336
asbag61
(g82
g63
NtRp2337
(dp2338
g66
(dp2339
g93
g94
ssg75
g2328
sg68
(lp2340
S':'
asbag61
(g82
g63
NtRp2341
(dp2342
g66
(dp2343
sg75
g2328
sg68
(lp2344
g61
(g62
g63
NtRp2345
(dp2346
g66
(dp2347
g74
I5
ssg75
g2341
sg68
(lp2348
g1113
asbasbasbag61
(g77
g63
NtRp2349
(dp2350
g66
(dp2351
sg75
g71
sg68
(lp2352
g61
(g82
g63
NtRp2353
(dp2354
g66
(dp2355
g86
g87
ssg75
g2349
sg68
(lp2356
S'utcnow'
p2357
asbag61
(g82
g63
NtRp2358
(dp2359
g66
(dp2360
g93
g94
ssg75
g2349
sg68
(lp2361
S':'
asbag61
(g82
g63
NtRp2362
(dp2363
g66
(dp2364
sg75
g2349
sg68
(lp2365
g61
(g62
g63
NtRp2366
(dp2367
g66
(dp2368
g74
I5
ssg75
g2362
sg68
(lp2369
S'datetime.datetime(2013, 2, 7, 12, 13, 55, 601064)'
p2370
asbasbasbag61
(g77
g63
NtRp2371
(dp2372
g66
(dp2373
sg75
g71
sg68
(lp2374
g61
(g82
g63
NtRp2375
(dp2376
g66
(dp2377
g86
g87
ssg75
g2371
sg68
(lp2378
S'uuid'
p2379
asbag61
(g82
g63
NtRp2380
(dp2381
g66
(dp2382
g93
g94
ssg75
g2371
sg68
(lp2383
S':'
asbag61
(g82
g63
NtRp2384
(dp2385
g66
(dp2386
sg75
g2371
sg68
(lp2387
g61
(g62
g63
NtRp2388
(dp2389
g66
(dp2390
g74
I5
ssg75
g2384
sg68
(lp2391
S'rsoutelino/172.30.6.206.2013-02-07.12-13-55.49d45bb5-7c32-4e74-92bf-10bfd817bd1d'
p2392
asbasbasbag61
(g77
g63
NtRp2393
(dp2394
g66
(dp2395
sg75
g71
sg68
(lp2396
g61
(g82
g63
NtRp2397
(dp2398
g66
(dp2399
g86
g87
ssg75
g2393
sg68
(lp2400
S'vars'
p2401
asbag61
(g82
g63
NtRp2402
(dp2403
g66
(dp2404
g93
g94
ssg75
g2393
sg68
(lp2405
S':'
asbag61
(g82
g63
NtRp2406
(dp2407
g66
(dp2408
sg75
g2393
sg68
(lp2409
g61
(g62
g63
NtRp2410
(dp2411
g66
(dp2412
g74
I5
ssg75
g2406
sg68
(lp2413
g61
(g70
g63
NtRp2414
(dp2415
g66
(dp2416
g74
I4
ssg75
Nsg68
(lp2417
g61
(g77
g63
NtRp2418
(dp2419
g66
(dp2420
sg75
g2414
sg68
(lp2421
g61
(g82
g63
NtRp2422
(dp2423
g66
(dp2424
g86
g87
ssg75
g2418
sg68
(lp2425
g2183
asbag61
(g82
g63
NtRp2426
(dp2427
g66
(dp2428
g93
g94
ssg75
g2418
sg68
(lp2429
S':'
asbag61
(g82
g63
NtRp2430
(dp2431
g66
(dp2432
sg75
g2418
sg68
(lp2433
g61
(g62
g63
NtRp2434
(dp2435
g66
(dp2436
g74
I4
ssg75
g2430
sg68
(lp2437
g2196
asbasbasbag61
(g77
g63
NtRp2438
(dp2439
g66
(dp2440
sg75
g2414
sg68
(lp2441
g61
(g82
g63
NtRp2442
(dp2443
g66
(dp2444
g86
g87
ssg75
g2438
sg68
(lp2445
g2205
asbag61
(g82
g63
NtRp2446
(dp2447
g66
(dp2448
g93
g94
ssg75
g2438
sg68
(lp2449
S':'
asbag61
(g82
g63
NtRp2450
(dp2451
g66
(dp2452
sg75
g2438
sg68
(lp2453
g61
(g62
g63
NtRp2454
(dp2455
g66
(dp2456
g74
I4
ssg75
g2450
sg68
(lp2457
g2218
asbasbasbag61
(g77
g63
NtRp2458
(dp2459
g66
(dp2460
sg75
g2414
sg68
(lp2461
g61
(g82
g63
NtRp2462
(dp2463
g66
(dp2464
g86
g87
ssg75
g2458
sg68
(lp2465
g2227
asbag61
(g82
g63
NtRp2466
(dp2467
g66
(dp2468
g93
g94
ssg75
g2458
sg68
(lp2469
S':'
asbag61
(g82
g63
NtRp2470
(dp2471
g66
(dp2472
sg75
g2458
sg68
(lp2473
g61
(g62
g63
NtRp2474
(dp2475
g66
(dp2476
g74
I4
ssg75
g2470
sg68
(lp2477
g2240
asbasbasbag61
(g77
g63
NtRp2478
(dp2479
g66
(dp2480
sg75
g2414
sg68
(lp2481
g61
(g82
g63
NtRp2482
(dp2483
g66
(dp2484
g86
g87
ssg75
g2478
sg68
(lp2485
g2249
asbag61
(g82
g63
NtRp2486
(dp2487
g66
(dp2488
g93
g94
ssg75
g2478
sg68
(lp2489
S':'
asbag61
(g82
g63
NtRp2490
(dp2491
g66
(dp2492
sg75
g2478
sg68
(lp2493
g61
(g62
g63
NtRp2494
(dp2495
g66
(dp2496
g74
I4
ssg75
g2490
sg68
(lp2497
g2262
asbasbasbag61
(g77
g63
NtRp2498
(dp2499
g66
(dp2500
sg75
g2414
sg68
(lp2501
g61
(g82
g63
NtRp2502
(dp2503
g66
(dp2504
g86
g87
ssg75
g2498
sg68
(lp2505
g2271
asbag61
(g82
g63
NtRp2506
(dp2507
g66
(dp2508
g93
g94
ssg75
g2498
sg68
(lp2509
S':'
asbag61
(g82
g63
NtRp2510
(dp2511
g66
(dp2512
sg75
g2498
sg68
(lp2513
g61
(g62
g63
NtRp2514
(dp2515
g66
(dp2516
g74
I4
ssg75
g2510
sg68
(lp2517
g2284
asbasbasbasbasbasbasbag61
(g77
g63
NtRp2518
(dp2519
g66
(dp2520
sg75
g71
sg68
(lp2521
g61
(g82
g63
NtRp2522
(dp2523
g66
(dp2524
g86
g87
ssg75
g2518
sg68
(lp2525
S'wsgi'
p2526
asbag61
(g82
g63
NtRp2527
(dp2528
g66
(dp2529
g93
g94
ssg75
g2518
sg68
(lp2530
S':'
asbag61
(g82
g63
NtRp2531
(dp2532
g66
(dp2533
sg75
g2518
sg68
(lp2534
g61
(g62
g63
NtRp2535
(dp2536
g66
(dp2537
g74
I5
ssg75
g2531
sg68
(lp2538
g61
(g70
g63
NtRp2539
(dp2540
g66
(dp2541
g74
I4
ssg75
Nsg68
(lp2542
g61
(g77
g63
NtRp2543
(dp2544
g66
(dp2545
sg75
g2539
sg68
(lp2546
g61
(g82
g63
NtRp2547
(dp2548
g66
(dp2549
g86
g87
ssg75
g2543
sg68
(lp2550
S'environ'
p2551
asbag61
(g82
g63
NtRp2552
(dp2553
g66
(dp2554
g93
g94
ssg75
g2543
sg68
(lp2555
S':'
asbag61
(g82
g63
NtRp2556
(dp2557
g66
(dp2558
sg75
g2543
sg68
(lp2559
g61
(g62
g63
NtRp2560
(dp2561
g66
(dp2562
g74
I4
ssg75
g2556
sg68
(lp2563
g61
(g70
g63
NtRp2564
(dp2565
g66
(dp2566
g74
I3
ssg75
Nsg68
(lp2567
g61
(g77
g63
NtRp2568
(dp2569
g66
(dp2570
sg75
g2564
sg68
(lp2571
g61
(g82
g63
NtRp2572
(dp2573
g66
(dp2574
g86
g87
ssg75
g2568
sg68
(lp2575
S'CONTENT_LENGTH'
p2576
asbag61
(g82
g63
NtRp2577
(dp2578
g66
(dp2579
g93
g94
ssg75
g2568
sg68
(lp2580
S':'
asbag61
(g82
g63
NtRp2581
(dp2582
g66
(dp2583
sg75
g2568
sg68
(lp2584
g61
(g62
g63
NtRp2585
(dp2586
g66
(dp2587
g74
I3
ssg75
g2581
sg68
(lp2588
g548
asbasbasbag61
(g77
g63
NtRp2589
(dp2590
g66
(dp2591
sg75
g2564
sg68
(lp2592
g61
(g82
g63
NtRp2593
(dp2594
g66
(dp2595
g86
g87
ssg75
g2589
sg68
(lp2596
S'CONTENT_TYPE'
p2597
asbag61
(g82
g63
NtRp2598
(dp2599
g66
(dp2600
g93
g94
ssg75
g2589
sg68
(lp2601
S':'
asbag61
(g82
g63
NtRp2602
(dp2603
g66
(dp2604
sg75
g2589
sg68
(lp2605
g61
(g62
g63
NtRp2606
(dp2607
g66
(dp2608
g74
I3
ssg75
g2602
sg68
(lp2609
g570
asbasbasbag61
(g77
g63
NtRp2610
(dp2611
g66
(dp2612
sg75
g2564
sg68
(lp2613
g61
(g82
g63
NtRp2614
(dp2615
g66
(dp2616
g86
g87
ssg75
g2610
sg68
(lp2617
S'DOCUMENT_ROOT'
p2618
asbag61
(g82
g63
NtRp2619
(dp2620
g66
(dp2621
g93
g94
ssg75
g2610
sg68
(lp2622
S':'
asbag61
(g82
g63
NtRp2623
(dp2624
g66
(dp2625
sg75
g2610
sg68
(lp2626
g61
(g62
g63
NtRp2627
(dp2628
g66
(dp2629
g74
I3
ssg75
g2623
sg68
(lp2630
g635
asbasbasbag61
(g77
g63
NtRp2631
(dp2632
g66
(dp2633
sg75
g2564
sg68
(lp2634
g61
(g82
g63
NtRp2635
(dp2636
g66
(dp2637
g86
g87
ssg75
g2631
sg68
(lp2638
S'HTTP_ACCEPT'
p2639
asbag61
(g82
g63
NtRp2640
(dp2641
g66
(dp2642
g93
g94
ssg75
g2631
sg68
(lp2643
S':'
asbag61
(g82
g63
NtRp2644
(dp2645
g66
(dp2646
sg75
g2631
sg68
(lp2647
g61
(g62
g63
NtRp2648
(dp2649
g66
(dp2650
g74
I3
ssg75
g2644
sg68
(lp2651
g678
asbasbasbag61
(g77
g63
NtRp2652
(dp2653
g66
(dp2654
sg75
g2564
sg68
(lp2655
g61
(g82
g63
NtRp2656
(dp2657
g66
(dp2658
g86
g87
ssg75
g2652
sg68
(lp2659
S'HTTP_ACCEPT_CHARSET'
p2660
asbag61
(g82
g63
NtRp2661
(dp2662
g66
(dp2663
g93
g94
ssg75
g2652
sg68
(lp2664
S':'
asbag61
(g82
g63
NtRp2665
(dp2666
g66
(dp2667
sg75
g2652
sg68
(lp2668
g61
(g62
g63
NtRp2669
(dp2670
g66
(dp2671
g74
I3
ssg75
g2665
sg68
(lp2672
g700
asbasbasbag61
(g77
g63
NtRp2673
(dp2674
g66
(dp2675
sg75
g2564
sg68
(lp2676
g61
(g82
g63
NtRp2677
(dp2678
g66
(dp2679
g86
g87
ssg75
g2673
sg68
(lp2680
S'HTTP_ACCEPT_ENCODING'
p2681
asbag61
(g82
g63
NtRp2682
(dp2683
g66
(dp2684
g93
g94
ssg75
g2673
sg68
(lp2685
S':'
asbag61
(g82
g63
NtRp2686
(dp2687
g66
(dp2688
sg75
g2673
sg68
(lp2689
g61
(g62
g63
NtRp2690
(dp2691
g66
(dp2692
g74
I3
ssg75
g2686
sg68
(lp2693
g722
asbasbasbag61
(g77
g63
NtRp2694
(dp2695
g66
(dp2696
sg75
g2564
sg68
(lp2697
g61
(g82
g63
NtRp2698
(dp2699
g66
(dp2700
g86
g87
ssg75
g2694
sg68
(lp2701
S'HTTP_ACCEPT_LANGUAGE'
p2702
asbag61
(g82
g63
NtRp2703
(dp2704
g66
(dp2705
g93
g94
ssg75
g2694
sg68
(lp2706
S':'
asbag61
(g82
g63
NtRp2707
(dp2708
g66
(dp2709
sg75
g2694
sg68
(lp2710
g61
(g62
g63
NtRp2711
(dp2712
g66
(dp2713
g74
I3
ssg75
g2707
sg68
(lp2714
g744
asbasbasbag61
(g77
g63
NtRp2715
(dp2716
g66
(dp2717
sg75
g2564
sg68
(lp2718
g61
(g82
g63
NtRp2719
(dp2720
g66
(dp2721
g86
g87
ssg75
g2715
sg68
(lp2722
S'HTTP_CACHE_CONTROL'
p2723
asbag61
(g82
g63
NtRp2724
(dp2725
g66
(dp2726
g93
g94
ssg75
g2715
sg68
(lp2727
S':'
asbag61
(g82
g63
NtRp2728
(dp2729
g66
(dp2730
sg75
g2715
sg68
(lp2731
g61
(g62
g63
NtRp2732
(dp2733
g66
(dp2734
g74
I3
ssg75
g2728
sg68
(lp2735
g766
asbasbasbag61
(g77
g63
NtRp2736
(dp2737
g66
(dp2738
sg75
g2564
sg68
(lp2739
g61
(g82
g63
NtRp2740
(dp2741
g66
(dp2742
g86
g87
ssg75
g2736
sg68
(lp2743
S'HTTP_CONNECTION'
p2744
asbag61
(g82
g63
NtRp2745
(dp2746
g66
(dp2747
g93
g94
ssg75
g2736
sg68
(lp2748
S':'
asbag61
(g82
g63
NtRp2749
(dp2750
g66
(dp2751
sg75
g2736
sg68
(lp2752
g61
(g62
g63
NtRp2753
(dp2754
g66
(dp2755
g74
I3
ssg75
g2749
sg68
(lp2756
g788
asbasbasbag61
(g77
g63
NtRp2757
(dp2758
g66
(dp2759
sg75
g2564
sg68
(lp2760
g61
(g82
g63
NtRp2761
(dp2762
g66
(dp2763
g86
g87
ssg75
g2757
sg68
(lp2764
S'HTTP_CONTENT_LENGTH'
p2765
asbag61
(g82
g63
NtRp2766
(dp2767
g66
(dp2768
g93
g94
ssg75
g2757
sg68
(lp2769
S':'
asbag61
(g82
g63
NtRp2770
(dp2771
g66
(dp2772
sg75
g2757
sg68
(lp2773
g61
(g62
g63
NtRp2774
(dp2775
g66
(dp2776
g74
I3
ssg75
g2770
sg68
(lp2777
g810
asbasbasbag61
(g77
g63
NtRp2778
(dp2779
g66
(dp2780
sg75
g2564
sg68
(lp2781
g61
(g82
g63
NtRp2782
(dp2783
g66
(dp2784
g86
g87
ssg75
g2778
sg68
(lp2785
S'HTTP_CONTENT_TYPE'
p2786
asbag61
(g82
g63
NtRp2787
(dp2788
g66
(dp2789
g93
g94
ssg75
g2778
sg68
(lp2790
S':'
asbag61
(g82
g63
NtRp2791
(dp2792
g66
(dp2793
sg75
g2778
sg68
(lp2794
g61
(g62
g63
NtRp2795
(dp2796
g66
(dp2797
g74
I3
ssg75
g2791
sg68
(lp2798
g832
asbasbasbag61
(g77
g63
NtRp2799
(dp2800
g66
(dp2801
sg75
g2564
sg68
(lp2802
g61
(g82
g63
NtRp2803
(dp2804
g66
(dp2805
g86
g87
ssg75
g2799
sg68
(lp2806
S'HTTP_COOKIE'
p2807
asbag61
(g82
g63
NtRp2808
(dp2809
g66
(dp2810
g93
g94
ssg75
g2799
sg68
(lp2811
S':'
asbag61
(g82
g63
NtRp2812
(dp2813
g66
(dp2814
sg75
g2799
sg68
(lp2815
g61
(g62
g63
NtRp2816
(dp2817
g66
(dp2818
g74
I3
ssg75
g2812
sg68
(lp2819
g854
asbasbasbag61
(g77
g63
NtRp2820
(dp2821
g66
(dp2822
sg75
g2564
sg68
(lp2823
g61
(g82
g63
NtRp2824
(dp2825
g66
(dp2826
g86
g87
ssg75
g2820
sg68
(lp2827
S'HTTP_HOST'
p2828
asbag61
(g82
g63
NtRp2829
(dp2830
g66
(dp2831
g93
g94
ssg75
g2820
sg68
(lp2832
S':'
asbag61
(g82
g63
NtRp2833
(dp2834
g66
(dp2835
sg75
g2820
sg68
(lp2836
g61
(g62
g63
NtRp2837
(dp2838
g66
(dp2839
g74
I3
ssg75
g2833
sg68
(lp2840
g876
asbasbasbag61
(g77
g63
NtRp2841
(dp2842
g66
(dp2843
sg75
g2564
sg68
(lp2844
g61
(g82
g63
NtRp2845
(dp2846
g66
(dp2847
g86
g87
ssg75
g2841
sg68
(lp2848
S'HTTP_ORIGIN'
p2849
asbag61
(g82
g63
NtRp2850
(dp2851
g66
(dp2852
g93
g94
ssg75
g2841
sg68
(lp2853
S':'
asbag61
(g82
g63
NtRp2854
(dp2855
g66
(dp2856
sg75
g2841
sg68
(lp2857
g61
(g62
g63
NtRp2858
(dp2859
g66
(dp2860
g74
I3
ssg75
g2854
sg68
(lp2861
g898
asbasbasbag61
(g77
g63
NtRp2862
(dp2863
g66
(dp2864
sg75
g2564
sg68
(lp2865
g61
(g82
g63
NtRp2866
(dp2867
g66
(dp2868
g86
g87
ssg75
g2862
sg68
(lp2869
S'HTTP_REFERER'
p2870
asbag61
(g82
g63
NtRp2871
(dp2872
g66
(dp2873
g93
g94
ssg75
g2862
sg68
(lp2874
S':'
asbag61
(g82
g63
NtRp2875
(dp2876
g66
(dp2877
sg75
g2862
sg68
(lp2878
g61
(g62
g63
NtRp2879
(dp2880
g66
(dp2881
g74
I3
ssg75
g2875
sg68
(lp2882
g920
asbasbasbag61
(g77
g63
NtRp2883
(dp2884
g66
(dp2885
sg75
g2564
sg68
(lp2886
g61
(g82
g63
NtRp2887
(dp2888
g66
(dp2889
g86
g87
ssg75
g2883
sg68
(lp2890
S'HTTP_USER_AGENT'
p2891
asbag61
(g82
g63
NtRp2892
(dp2893
g66
(dp2894
g93
g94
ssg75
g2883
sg68
(lp2895
S':'
asbag61
(g82
g63
NtRp2896
(dp2897
g66
(dp2898
sg75
g2883
sg68
(lp2899
g61
(g62
g63
NtRp2900
(dp2901
g66
(dp2902
g74
I3
ssg75
g2896
sg68
(lp2903
g942
asbasbasbag61
(g77
g63
NtRp2904
(dp2905
g66
(dp2906
sg75
g2564
sg68
(lp2907
g61
(g82
g63
NtRp2908
(dp2909
g66
(dp2910
g86
g87
ssg75
g2904
sg68
(lp2911
S'HTTP_VIA'
p2912
asbag61
(g82
g63
NtRp2913
(dp2914
g66
(dp2915
g93
g94
ssg75
g2904
sg68
(lp2916
S':'
asbag61
(g82
g63
NtRp2917
(dp2918
g66
(dp2919
sg75
g2904
sg68
(lp2920
g61
(g62
g63
NtRp2921
(dp2922
g66
(dp2923
g74
I3
ssg75
g2917
sg68
(lp2924
g964
asbasbasbag61
(g77
g63
NtRp2925
(dp2926
g66
(dp2927
sg75
g2564
sg68
(lp2928
g61
(g82
g63
NtRp2929
(dp2930
g66
(dp2931
g86
g87
ssg75
g2925
sg68
(lp2932
S'HTTP_X_FORWARDED_FOR'
p2933
asbag61
(g82
g63
NtRp2934
(dp2935
g66
(dp2936
g93
g94
ssg75
g2925
sg68
(lp2937
S':'
asbag61
(g82
g63
NtRp2938
(dp2939
g66
(dp2940
sg75
g2925
sg68
(lp2941
g61
(g62
g63
NtRp2942
(dp2943
g66
(dp2944
g74
I3
ssg75
g2938
sg68
(lp2945
g216
asbasbasbag61
(g77
g63
NtRp2946
(dp2947
g66
(dp2948
sg75
g2564
sg68
(lp2949
g61
(g82
g63
NtRp2950
(dp2951
g66
(dp2952
g86
g87
ssg75
g2946
sg68
(lp2953
S'PATH_INFO'
p2954
asbag61
(g82
g63
NtRp2955
(dp2956
g66
(dp2957
g93
g94
ssg75
g2946
sg68
(lp2958
S':'
asbag61
(g82
g63
NtRp2959
(dp2960
g66
(dp2961
sg75
g2946
sg68
(lp2962
g61
(g62
g63
NtRp2963
(dp2964
g66
(dp2965
g74
I3
ssg75
g2959
sg68
(lp2966
g1113
asbasbasbag61
(g77
g63
NtRp2967
(dp2968
g66
(dp2969
sg75
g2564
sg68
(lp2970
g61
(g82
g63
NtRp2971
(dp2972
g66
(dp2973
g86
g87
ssg75
g2967
sg68
(lp2974
S'QUERY_STRING'
p2975
asbag61
(g82
g63
NtRp2976
(dp2977
g66
(dp2978
g93
g94
ssg75
g2967
sg68
(lp2979
S':'
asbag61
(g82
g63
NtRp2980
(dp2981
g66
(dp2982
sg75
g2967
sg68
(lp2983
g61
(g62
g63
NtRp2984
(dp2985
g66
(dp2986
g74
I3
ssg75
g2980
sg68
(lp2987
S''
asbasbasbag61
(g77
g63
NtRp2988
(dp2989
g66
(dp2990
sg75
g2564
sg68
(lp2991
g61
(g82
g63
NtRp2992
(dp2993
g66
(dp2994
g86
g87
ssg75
g2988
sg68
(lp2995
S'REMOTE_ADDR'
p2996
asbag61
(g82
g63
NtRp2997
(dp2998
g66
(dp2999
g93
g94
ssg75
g2988
sg68
(lp3000
S':'
asbag61
(g82
g63
NtRp3001
(dp3002
g66
(dp3003
sg75
g2988
sg68
(lp3004
g61
(g62
g63
NtRp3005
(dp3006
g66
(dp3007
g74
I3
ssg75
g3001
sg68
(lp3008
g1156
asbasbasbag61
(g77
g63
NtRp3009
(dp3010
g66
(dp3011
sg75
g2564
sg68
(lp3012
g61
(g82
g63
NtRp3013
(dp3014
g66
(dp3015
g86
g87
ssg75
g3009
sg68
(lp3016
S'REMOTE_PORT'
p3017
asbag61
(g82
g63
NtRp3018
(dp3019
g66
(dp3020
g93
g94
ssg75
g3009
sg68
(lp3021
S':'
asbag61
(g82
g63
NtRp3022
(dp3023
g66
(dp3024
sg75
g3009
sg68
(lp3025
g61
(g62
g63
NtRp3026
(dp3027
g66
(dp3028
g74
I3
ssg75
g3022
sg68
(lp3029
g1178
asbasbasbag61
(g77
g63
NtRp3030
(dp3031
g66
(dp3032
sg75
g2564
sg68
(lp3033
g61
(g82
g63
NtRp3034
(dp3035
g66
(dp3036
g86
g87
ssg75
g3030
sg68
(lp3037
S'REQUEST_METHOD'
p3038
asbag61
(g82
g63
NtRp3039
(dp3040
g66
(dp3041
g93
g94
ssg75
g3030
sg68
(lp3042
S':'
asbag61
(g82
g63
NtRp3043
(dp3044
g66
(dp3045
sg75
g3030
sg68
(lp3046
g61
(g62
g63
NtRp3047
(dp3048
g66
(dp3049
g74
I3
ssg75
g3043
sg68
(lp3050
g1200
asbasbasbag61
(g77
g63
NtRp3051
(dp3052
g66
(dp3053
sg75
g2564
sg68
(lp3054
g61
(g82
g63
NtRp3055
(dp3056
g66
(dp3057
g86
g87
ssg75
g3051
sg68
(lp3058
S'REQUEST_URI'
p3059
asbag61
(g82
g63
NtRp3060
(dp3061
g66
(dp3062
g93
g94
ssg75
g3051
sg68
(lp3063
S':'
asbag61
(g82
g63
NtRp3064
(dp3065
g66
(dp3066
sg75
g3051
sg68
(lp3067
g61
(g62
g63
NtRp3068
(dp3069
g66
(dp3070
g74
I3
ssg75
g3064
sg68
(lp3071
g1222
asbasbasbag61
(g77
g63
NtRp3072
(dp3073
g66
(dp3074
sg75
g2564
sg68
(lp3075
g61
(g82
g63
NtRp3076
(dp3077
g66
(dp3078
g86
g87
ssg75
g3072
sg68
(lp3079
S'SCRIPT_NAME'
p3080
asbag61
(g82
g63
NtRp3081
(dp3082
g66
(dp3083
g93
g94
ssg75
g3072
sg68
(lp3084
S':'
asbag61
(g82
g63
NtRp3085
(dp3086
g66
(dp3087
sg75
g3072
sg68
(lp3088
g61
(g62
g63
NtRp3089
(dp3090
g66
(dp3091
g74
I3
ssg75
g3085
sg68
(lp3092
S''
asbasbasbag61
(g77
g63
NtRp3093
(dp3094
g66
(dp3095
sg75
g2564
sg68
(lp3096
g61
(g82
g63
NtRp3097
(dp3098
g66
(dp3099
g86
g87
ssg75
g3093
sg68
(lp3100
S'SERVER_NAME'
p3101
asbag61
(g82
g63
NtRp3102
(dp3103
g66
(dp3104
g93
g94
ssg75
g3093
sg68
(lp3105
S':'
asbag61
(g82
g63
NtRp3106
(dp3107
g66
(dp3108
sg75
g3093
sg68
(lp3109
g61
(g62
g63
NtRp3110
(dp3111
g66
(dp3112
g74
I3
ssg75
g3106
sg68
(lp3113
g1265
asbasbasbag61
(g77
g63
NtRp3114
(dp3115
g66
(dp3116
sg75
g2564
sg68
(lp3117
g61
(g82
g63
NtRp3118
(dp3119
g66
(dp3120
g86
g87
ssg75
g3114
sg68
(lp3121
S'SERVER_PORT'
p3122
asbag61
(g82
g63
NtRp3123
(dp3124
g66
(dp3125
g93
g94
ssg75
g3114
sg68
(lp3126
S':'
asbag61
(g82
g63
NtRp3127
(dp3128
g66
(dp3129
sg75
g3114
sg68
(lp3130
g61
(g62
g63
NtRp3131
(dp3132
g66
(dp3133
g74
I3
ssg75
g3127
sg68
(lp3134
g1287
asbasbasbag61
(g77
g63
NtRp3135
(dp3136
g66
(dp3137
sg75
g2564
sg68
(lp3138
g61
(g82
g63
NtRp3139
(dp3140
g66
(dp3141
g86
g87
ssg75
g3135
sg68
(lp3142
S'SERVER_PROTOCOL'
p3143
asbag61
(g82
g63
NtRp3144
(dp3145
g66
(dp3146
g93
g94
ssg75
g3135
sg68
(lp3147
S':'
asbag61
(g82
g63
NtRp3148
(dp3149
g66
(dp3150
sg75
g3135
sg68
(lp3151
g61
(g62
g63
NtRp3152
(dp3153
g66
(dp3154
g74
I3
ssg75
g3148
sg68
(lp3155
g1309
asbasbasbag61
(g77
g63
NtRp3156
(dp3157
g66
(dp3158
sg75
g2564
sg68
(lp3159
g61
(g82
g63
NtRp3160
(dp3161
g66
(dp3162
g86
g87
ssg75
g3156
sg68
(lp3163
S'uwsgi.node'
p3164
asbag61
(g82
g63
NtRp3165
(dp3166
g66
(dp3167
g93
g94
ssg75
g3156
sg68
(lp3168
S':'
asbag61
(g82
g63
NtRp3169
(dp3170
g66
(dp3171
sg75
g3156
sg68
(lp3172
g61
(g62
g63
NtRp3173
(dp3174
g66
(dp3175
g74
I3
ssg75
g3169
sg68
(lp3176
g1331
asbasbasbag61
(g77
g63
NtRp3177
(dp3178
g66
(dp3179
sg75
g2564
sg68
(lp3180
g61
(g82
g63
NtRp3181
(dp3182
g66
(dp3183
g86
g87
ssg75
g3177
sg68
(lp3184
S'uwsgi.version'
p3185
asbag61
(g82
g63
NtRp3186
(dp3187
g66
(dp3188
g93
g94
ssg75
g3177
sg68
(lp3189
S':'
asbag61
(g82
g63
NtRp3190
(dp3191
g66
(dp3192
sg75
g3177
sg68
(lp3193
g61
(g62
g63
NtRp3194
(dp3195
g66
(dp3196
g74
I3
ssg75
g3190
sg68
(lp3197
g1353
asbasbasbag61
(g77
g63
NtRp3198
(dp3199
g66
(dp3200
sg75
g2564
sg68
(lp3201
g61
(g82
g63
NtRp3202
(dp3203
g66
(dp3204
g86
g87
ssg75
g3198
sg68
(lp3205
S'wsgi.errors'
p3206
asbag61
(g82
g63
NtRp3207
(dp3208
g66
(dp3209
g93
g94
ssg75
g3198
sg68
(lp3210
S':'
asbag61
(g82
g63
NtRp3211
(dp3212
g66
(dp3213
sg75
g3198
sg68
(lp3214
g61
(g62
g63
NtRp3215
(dp3216
g66
(dp3217
g74
I3
ssg75
g3211
sg68
(lp3218
S'<uwsgi_file__bin_user_wsgi_wrapper.ErrorLogWrapper object at 0x2b07ed0>'
p3219
asbasbasbag61
(g77
g63
NtRp3220
(dp3221
g66
(dp3222
sg75
g2564
sg68
(lp3223
g61
(g82
g63
NtRp3224
(dp3225
g66
(dp3226
g86
g87
ssg75
g3220
sg68
(lp3227
S'wsgi.file_wrapper'
p3228
asbag61
(g82
g63
NtRp3229
(dp3230
g66
(dp3231
g93
g94
ssg75
g3220
sg68
(lp3232
S':'
asbag61
(g82
g63
NtRp3233
(dp3234
g66
(dp3235
sg75
g3220
sg68
(lp3236
g61
(g62
g63
NtRp3237
(dp3238
g66
(dp3239
g74
I3
ssg75
g3233
sg68
(lp3240
S'<built-in function uwsgi_sendfile>'
p3241
asbasbasbag61
(g77
g63
NtRp3242
(dp3243
g66
(dp3244
sg75
g2564
sg68
(lp3245
g61
(g82
g63
NtRp3246
(dp3247
g66
(dp3248
g86
g87
ssg75
g3242
sg68
(lp3249
S'wsgi.input'
p3250
asbag61
(g82
g63
NtRp3251
(dp3252
g66
(dp3253
g93
g94
ssg75
g3242
sg68
(lp3254
S':'
asbag61
(g82
g63
NtRp3255
(dp3256
g66
(dp3257
sg75
g3242
sg68
(lp3258
g61
(g62
g63
NtRp3259
(dp3260
g66
(dp3261
g74
I3
ssg75
g3255
sg68
(lp3262
S"<open file '<fdopen>', mode 'w+b' at 0x3827300>"
p3263
asbasbasbag61
(g77
g63
NtRp3264
(dp3265
g66
(dp3266
sg75
g2564
sg68
(lp3267
g61
(g82
g63
NtRp3268
(dp3269
g66
(dp3270
g86
g87
ssg75
g3264
sg68
(lp3271
S'wsgi.multiprocess'
p3272
asbag61
(g82
g63
NtRp3273
(dp3274
g66
(dp3275
g93
g94
ssg75
g3264
sg68
(lp3276
S':'
asbag61
(g82
g63
NtRp3277
(dp3278
g66
(dp3279
sg75
g3264
sg68
(lp3280
g61
(g62
g63
NtRp3281
(dp3282
g66
(dp3283
g74
I3
ssg75
g3277
sg68
(lp3284
g104
asbasbasbag61
(g77
g63
NtRp3285
(dp3286
g66
(dp3287
sg75
g2564
sg68
(lp3288
g61
(g82
g63
NtRp3289
(dp3290
g66
(dp3291
g86
g87
ssg75
g3285
sg68
(lp3292
S'wsgi.multithread'
p3293
asbag61
(g82
g63
NtRp3294
(dp3295
g66
(dp3296
g93
g94
ssg75
g3285
sg68
(lp3297
S':'
asbag61
(g82
g63
NtRp3298
(dp3299
g66
(dp3300
sg75
g3285
sg68
(lp3301
g61
(g62
g63
NtRp3302
(dp3303
g66
(dp3304
g74
I3
ssg75
g3298
sg68
(lp3305
g104
asbasbasbag61
(g77
g63
NtRp3306
(dp3307
g66
(dp3308
sg75
g2564
sg68
(lp3309
g61
(g82
g63
NtRp3310
(dp3311
g66
(dp3312
g86
g87
ssg75
g3306
sg68
(lp3313
S'wsgi.run_once'
p3314
asbag61
(g82
g63
NtRp3315
(dp3316
g66
(dp3317
g93
g94
ssg75
g3306
sg68
(lp3318
S':'
asbag61
(g82
g63
NtRp3319
(dp3320
g66
(dp3321
sg75
g3306
sg68
(lp3322
g61
(g62
g63
NtRp3323
(dp3324
g66
(dp3325
g74
I3
ssg75
g3319
sg68
(lp3326
g104
asbasbasbag61
(g77
g63
NtRp3327
(dp3328
g66
(dp3329
sg75
g2564
sg68
(lp3330
g61
(g82
g63
NtRp3331
(dp3332
g66
(dp3333
g86
g87
ssg75
g3327
sg68
(lp3334
S'wsgi.url_scheme'
p3335
asbag61
(g82
g63
NtRp3336
(dp3337
g66
(dp3338
g93
g94
ssg75
g3327
sg68
(lp3339
S':'
asbag61
(g82
g63
NtRp3340
(dp3341
g66
(dp3342
sg75
g3327
sg68
(lp3343
g61
(g62
g63
NtRp3344
(dp3345
g66
(dp3346
g74
I3
ssg75
g3340
sg68
(lp3347
g1612
asbasbasbag61
(g77
g63
NtRp3348
(dp3349
g66
(dp3350
sg75
g2564
sg68
(lp3351
g61
(g82
g63
NtRp3352
(dp3353
g66
(dp3354
g86
g87
ssg75
g3348
sg68
(lp3355
S'wsgi.version'
p3356
asbag61
(g82
g63
NtRp3357
(dp3358
g66
(dp3359
g93
g94
ssg75
g3348
sg68
(lp3360
S':'
asbag61
(g82
g63
NtRp3361
(dp3362
g66
(dp3363
sg75
g3348
sg68
(lp3364
g61
(g62
g63
NtRp3365
(dp3366
g66
(dp3367
g74
I3
ssg75
g3361
sg68
(lp3368
S'1'
asbasbasbasbasbasbasbasbasbasbasbasbasbsS'frames'
p3369
(lp3370
(dp3371
S'file'
p3372
S'/home/rsoutelino/web2py/gluon/restricted.py'
p3373
sS'dump'
p3374
(dp3375
S'environment'
p3376
S"{'A': <class 'gluon.html.A'>, 'Auth': <class 'gluon.tools.Auth'>, 'B': <class 'gluon.html.B'>, 'BEAUTIFY': <class 'gluon.html.BEAUTIFY'>, 'BODY': <class 'gluon.html.BODY'>, 'BR': <class 'gluon.html.BR'>, 'BUTTON': <class 'gluon.html.BUTTON'>, 'CAT': <class 'gluon.html.CAT'>, 'CENTER': <class 'gluon.html.CENTER'>, 'CLEANUP': <class 'gluon.validators.CLEANUP'>, ...}"
p3377
sS'ccode'
p3378
S'<code object <module> at 0x36046b0, file "/home/...tions/rsoutelino/controllers/contact.py", line 1>'
p3379
ssS'lnum'
p3380
I212
sS'lines'
p3381
(dp3382
I207
S'    try:'
p3383
sI208
S'        if isinstance(code, types.CodeType):'
p3384
sI209
S'            ccode = code'
p3385
sI210
S'        else:'
p3386
sI211
S'            ccode = compile2(code, layer)'
p3387
sI212
S'        exec ccode in environment'
p3388
sI213
S'    except HTTP:'
p3389
sI214
S'        raise'
p3390
sI215
S'    except RestrictedError:'
p3391
sI216
S'        # do not encapsulate (obfuscate) the original RestrictedError'
p3392
ssS'call'
p3393
S"(code='def contact():\\n    form = SQLFORM(db.contacts)\\n ...m=form)\\nresponse._vars=response._caller(contact)\\n', environment={'A': <class 'gluon.html.A'>, 'Auth': <class 'gluon.tools.Auth'>, 'B': <class 'gluon.html.B'>, 'BEAUTIFY': <class 'gluon.html.BEAUTIFY'>, 'BODY': <class 'gluon.html.BODY'>, 'BR': <class 'gluon.html.BR'>, 'BUTTON': <class 'gluon.html.BUTTON'>, 'CAT': <class 'gluon.html.CAT'>, 'CENTER': <class 'gluon.html.CENTER'>, 'CLEANUP': <class 'gluon.validators.CLEANUP'>, ...}, layer='/home/rsoutelino/web2py/applications/rsoutelino/controllers/contact.py')"
p3394
sS'func'
p3395
S'restricted'
p3396
sa(dp3397
g3372
S'/home/rsoutelino/web2py/applications/rsoutelino/controllers/contact.py'
p3398
sg3374
(dp3399
sg3380
I10
sg3381
(dp3400
I1
S'def contact():'
p3401
sI2
S'    form = SQLFORM(db.contacts)'
p3402
sI3
S'    if form.process().accepted:'
p3403
sI4
S'        message = "%s %s %s" %(forms.vars.name, forms.vars.email, forms.vars.commentary)'
p3404
sI5
S'        mail.send(to="rsoutelino@gmail.com", subject="You received a message through rsoutelino.com", reply_to=form.vars.email, message=message)'
p3405
sI6
S'        response.flash="success"'
p3406
sI7
S'    else:'
p3407
sI8
S'        response.flash="try again"'
p3408
sI9
S'\treturn dict(form=form)'
p3409
ssg3393
S'()'
p3410
sg3395
S'<module>'
p3411
sa(dp3412
g3372
S'/home/rsoutelino/web2py/gluon/globals.py'
p3413
sg3374
(dp3414
S'self'
p3415
S'undefined'
p3416
sS'f'
S'<function contact>'
p3417
ssg3380
I188
sg3381
(dp3418
I192
S''
sI183
S'        self.menu = []             # used by the default view layout'
p3419
sI184
S'        self.files = []            # used by web2py_ajax.html'
p3420
sI185
S'        self.generic_patterns = []  # patterns to allow generic views'
p3421
sI186
S"        self.delimiters = ('{{', '}}')"
p3422
sI187
S'        self._vars = None'
p3423
sI188
S'        self._caller = lambda f: f()'
p3424
sI189
S'        self._view_environment = None'
p3425
sI190
S'        self._custom_commit = None'
p3426
sI191
S'        self._custom_rollback = None'
p3427
ssg3393
S'(f=<function contact>)'
p3428
sg3395
S'<lambda>'
p3429
sa(dp3430
g3372
S'/home/rsoutelino/web2py/applications/rsoutelino/controllers/contact.py'
p3431
sg3374
(dp3432
S'form.process'
p3433
S'<bound method SQLFORM.process of <gluon.sqlhtml.SQLFORM object>>'
p3434
sS').accepted'
p3435
g3416
sS'form'
p3436
S'<gluon.sqlhtml.SQLFORM object>'
p3437
ssg3380
I3
sg3381
(dp3438
I1
S'def contact():'
p3439
sI2
S'    form = SQLFORM(db.contacts)'
p3440
sI3
S'    if form.process().accepted:'
p3441
sI4
S'        message = "%s %s %s" %(forms.vars.name, forms.vars.email, forms.vars.commentary)'
p3442
sI5
S'        mail.send(to="rsoutelino@gmail.com", subject="You received a message through rsoutelino.com", reply_to=form.vars.email, message=message)'
p3443
sI6
S'        response.flash="success"'
p3444
sI7
S'    else:'
p3445
sI8
S'        response.flash="try again"'
p3446
sI9
S'\treturn dict(form=form)'
p3447
ssg3393
S'()'
p3448
sg3395
S'contact'
p3449
sa(dp3450
g3372
S'/home/rsoutelino/web2py/gluon/html.py'
p3451
sg3374
(dp3452
S'self'
p3453
S'<gluon.sqlhtml.SQLFORM object>'
p3454
sS'self.validate'
p3455
S'<bound method SQLFORM.validate of <gluon.sqlhtml.SQLFORM object>>'
p3456
sS'kwargs'
p3457
S"{'dbio': True}"
p3458
ssg3380
I2170
sg3381
(dp3459
I2165
S'        def action():'
p3460
sI2166
S'            return dict(form=SQLFORM(db.table).process(onsuccess=my_callback)'
p3461
sI2167
S'        """'
p3462
sI2168
S"        kwargs['dbio'] = kwargs.get('dbio', True)"
p3463
sI2169
S'                                    # necessary for SQLHTML forms'
p3464
sI2170
S'        self.validate(**kwargs)'
p3465
sI2171
S'        return self'
p3466
sI2172
S''
sI2173
S'    REDIRECT_JS = "window.location=\'%s\';return false"'
p3467
sI2174
S''
ssg3393
S"(self=<gluon.sqlhtml.SQLFORM object>, **kwargs={'dbio': True})"
p3468
sg3395
S'process'
p3469
sa(dp3470
g3372
S'/home/rsoutelino/web2py/gluon/html.py'
p3471
sg3374
(dp3472
S'self'
p3473
S'<gluon.sqlhtml.SQLFORM object>'
p3474
sS'self.accepts'
p3475
S'<bound method SQLFORM.accepts of <gluon.sqlhtml.SQLFORM object>>'
p3476
sS'kwargs'
p3477
S"{'dbio': True, 'request_vars': <Storage {'tel': '123456778', 'name': 'Rafael So... your business', '_formname': 'contacts/create'}>, 'session': <Storage {'_session_hash': 'aa383e840b92faca527a...reate]': '14bac15b-9a8b-4b5a-b9fa-25cb98d9ba06'}>}"
p3478
ssg3380
I2109
sg3381
(dp3479
I2112
S'                    current.session.flash = message_onsuccess'
p3480
sI2113
S'                else:'
p3481
sI2104
S"        for key in ('message_onsuccess', 'message_onfailure', 'onsuccess',"
p3482
sI2105
S"                    'onfailure', 'next', 'message_onchange', 'onchange'):"
p3483
sI2106
S'            if key in kwargs:'
p3484
sI2107
S'                del kwargs[key]'
p3485
sI2108
S''
sI2109
S'        if self.accepts(**kwargs):'
p3486
sI2110
S"            if onsuccess == 'flash':"
p3487
sI2111
S'                if next:'
p3488
ssg3393
S"(self=<gluon.sqlhtml.SQLFORM object>, **kwargs={'dbio': True, 'request_vars': <Storage {'tel': '123456778', 'name': 'Rafael So... your business', '_formname': 'contacts/create'}>, 'session': <Storage {'_session_hash': 'aa383e840b92faca527a...reate]': '14bac15b-9a8b-4b5a-b9fa-25cb98d9ba06'}>})"
p3489
sg3395
S'validate'
p3490
sa(dp3491
g3372
S'/home/rsoutelino/web2py/gluon/sqlhtml.py'
p3492
sg3374
(dp3493
S'self.vars.id'
p3494
S'None'
p3495
sS'fields'
p3496
S"{'adress': 'not your business', 'commentary': 'Fuck you', 'email': 'rsoutelino@gmail.com', 'name': 'Rafael Soutelino', 'tel': '123456778'}"
p3497
sS'self'
p3498
S'<gluon.sqlhtml.SQLFORM object>'
p3499
sS'self.vars'
p3500
S"<Storage {'adress': 'not your business', 'commen...ael Soutelino', 'email': 'rsoutelino@gmail.com'}>"
p3501
sS'self.table.insert'
p3502
S'<bound method Table.insert of <Table contacts (id,name,email,tel,adress,commentary)>>'
p3503
sS'self.table'
p3504
S'<Table contacts (id,name,email,tel,adress,commentary)>'
p3505
ssg3380
I1475
sg3381
(dp3506
I1472
S'                        self.table._db(self.table._id == self.record['
p3507
sI1473
S'                                       self.id_field_name]).update(**fields)'
p3508
sI1474
S'                else:'
p3509
sI1475
S'                    self.vars.id = self.table.insert(**fields)'
p3510
sI1476
S'        self.accepted = ret'
p3511
sI1477
S'        return ret'
p3512
sI1478
S''
sI1479
S'    AUTOTYPES = {'
p3513
sI1470
S'                    self.vars.id = self.record[self.id_field_name]'
p3514
sI1471
S'                    if fields:'
p3515
ssg3393
S"(self=<gluon.sqlhtml.SQLFORM object>, request_vars=<Storage {'tel': '123456778', 'name': 'Rafael So... your business', '_formname': 'contacts/create'}>, session=<Storage {'_session_hash': 'aa383e840b92faca527a...reate]': '14bac15b-9a8b-4b5a-b9fa-25cb98d9ba06'}>, formname='contacts/create', keepvalues=False, onvalidation=None, dbio=True, hideerror=False, detect_record_change=False, **kwargs={})"
p3516
sg3395
S'accepts'
p3517
sa(dp3518
g3372
S'/home/rsoutelino/web2py/gluon/dal.py'
p3519
sg3374
(dp3520
S'self._listify'
p3521
S'<bound method Table._listify of <Table contacts (id,name,email,tel,adress,commentary)>>'
p3522
sS'fields'
p3523
S"{'adress': 'not your business', 'commentary': 'Fuck you', 'email': 'rsoutelino@gmail.com', 'name': 'Rafael Soutelino', 'tel': '123456778'}"
p3524
sS'self'
p3525
S'<Table contacts (id,name,email,tel,adress,commentary)>'
p3526
sS'ret'
p3527
g3416
sS'self._db._adapter'
p3528
S'<gluon.dal.SQLiteAdapter object>'
p3529
sS'self._db._adapter.insert'
p3530
S'<bound method SQLiteAdapter.insert of <gluon.dal.SQLiteAdapter object>>'
p3531
sS'self._db'
p3532
S'<DAL uri="sqlite://contacts.sqlite">'
p3533
ssg3380
I7806
sg3381
(dp3534
I7808
S'            fields = Row(fields)'
p3535
sI7809
S'            [f(fields,ret) for f in self._after_insert]'
p3536
sI7810
S'        return ret'
p3537
sI7801
S'        return self._db._adapter._insert(self,self._listify(fields))'
p3538
sI7802
S''
sI7803
S'    def insert(self, **fields):'
p3539
sI7804
S'        self._attempt_upload(fields)'
p3540
sI7805
S'        if any(f(fields) for f in self._before_insert): return 0'
p3541
sI7806
S'        ret =  self._db._adapter.insert(self,self._listify(fields))'
p3542
sI7807
S'        if ret and self._after_insert:'
p3543
ssg3393
S"(self=<Table contacts (id,name,email,tel,adress,commentary)>, **fields={'adress': 'not your business', 'commentary': 'Fuck you', 'email': 'rsoutelino@gmail.com', 'name': 'Rafael Soutelino', 'tel': '123456778'})"
p3544
sg3395
S'insert'
p3545
sa(dp3546
g3372
S'/home/rsoutelino/web2py/gluon/dal.py'
p3547
sg3374
(dp3548
S'e'
S"IntegrityError('column name is not unique',)"
p3549
ssg3380
I1161
sg3381
(dp3550
I1156
S'        try:'
p3551
sI1157
S'            self.execute(query)'
p3552
sI1158
S'        except Exception, e:'
p3553
sI1159
S'            if isinstance(e,self.integrity_error_class()):'
p3554
sI1160
S'                return None'
p3555
sI1161
S'            raise e'
p3556
sI1162
S"        if hasattr(table,'_primarykey'):"
p3557
sI1163
S'            return dict([(k[0].name, k[1]) for k in fields \\'
p3558
sI1164
S'                             if k[0].name in table._primarykey])'
p3559
sI1165
S'        id = self.lastrowid(table)'
p3560
ssg3393
S"(self=<gluon.dal.SQLiteAdapter object>, table=<Table contacts (id,name,email,tel,adress,commentary)>, fields=[(<gluon.dal.Field object>, 'Fuck you'), (<gluon.dal.Field object>, 'rsoutelino@gmail.com'), (<gluon.dal.Field object>, '123456778'), (<gluon.dal.Field object>, 'Rafael Soutelino'), (<gluon.dal.Field object>, 'not your business')])"
p3561
sg3395
g3545
sasS'pyver'
p3562
S'Python 2.7.3: /usr/local/bin/uwsgi'
p3563
sS'session'
p3564
g61
(g62
g63
NtRp3565
(dp3566
g66
(dp3567
sg68
(lp3568
g61
(g70
g63
NtRp3569
(dp3570
g66
(dp3571
g74
I5
ssg75
Nsg68
(lp3572
sbasbsS'etype'
p3573
S"<class 'sqlite3.IntegrityError'>"
p3574
sS'date'
p3575
S'Thu Feb  7 12:13:55 2013'
p3576
sS'response'
p3577
g61
(g62
g63
NtRp3578
(dp3579
g66
(dp3580
sg68
(lp3581
g61
(g70
g63
NtRp3582
(dp3583
g66
(dp3584
g74
I5
ssg75
Nsg68
(lp3585
g61
(g77
g63
NtRp3586
(dp3587
g66
(dp3588
sg75
g3582
sg68
(lp3589
g61
(g82
g63
NtRp3590
(dp3591
g66
(dp3592
g86
g87
ssg75
g3586
sg68
(lp3593
g159
asbag61
(g82
g63
NtRp3594
(dp3595
g66
(dp3596
g93
g94
ssg75
g3586
sg68
(lp3597
S':'
asbag61
(g82
g63
NtRp3598
(dp3599
g66
(dp3600
sg75
g3586
sg68
(lp3601
g61
(g62
g63
NtRp3602
(dp3603
g66
(dp3604
g74
I5
ssg75
g3598
sg68
(lp3605
S'<cStringIO.StringO object at 0x3848538>'
p3606
asbasbasbag61
(g77
g63
NtRp3607
(dp3608
g66
(dp3609
sg75
g3582
sg68
(lp3610
g61
(g82
g63
NtRp3611
(dp3612
g66
(dp3613
g86
g87
ssg75
g3607
sg68
(lp3614
g247
asbag61
(g82
g63
NtRp3615
(dp3616
g66
(dp3617
g93
g94
ssg75
g3607
sg68
(lp3618
S':'
asbag61
(g82
g63
NtRp3619
(dp3620
g66
(dp3621
sg75
g3607
sg68
(lp3622
g61
(g62
g63
NtRp3623
(dp3624
g66
(dp3625
g74
I5
ssg75
g3619
sg68
(lp3626
g61
(g70
g63
NtRp3627
(dp3628
g66
(dp3629
g74
I4
ssg75
Nsg68
(lp3630
g61
(g77
g63
NtRp3631
(dp3632
g66
(dp3633
sg75
g3627
sg68
(lp3634
g61
(g82
g63
NtRp3635
(dp3636
g66
(dp3637
g86
g87
ssg75
g3631
sg68
(lp3638
S'session_id_rsoutelino'
p3639
asbag61
(g82
g63
NtRp3640
(dp3641
g66
(dp3642
g93
g94
ssg75
g3631
sg68
(lp3643
S':'
asbag61
(g82
g63
NtRp3644
(dp3645
g66
(dp3646
sg75
g3631
sg68
(lp3647
g61
(g62
g63
NtRp3648
(dp3649
g66
(dp3650
g74
I4
ssg75
g3644
sg68
(lp3651
g285
ag61
(g70
g63
NtRp3652
(dp3653
g66
(dp3654
g74
I3
ssg75
Nsg68
(lp3655
g61
(g77
g63
NtRp3656
(dp3657
g66
(dp3658
sg75
g3652
sg68
(lp3659
g61
(g82
g63
NtRp3660
(dp3661
g66
(dp3662
g86
g87
ssg75
g3656
sg68
(lp3663
g298
asbag61
(g82
g63
NtRp3664
(dp3665
g66
(dp3666
g93
g94
ssg75
g3656
sg68
(lp3667
S':'
asbag61
(g82
g63
NtRp3668
(dp3669
g66
(dp3670
sg75
g3656
sg68
(lp3671
g61
(g62
g63
NtRp3672
(dp3673
g66
(dp3674
g74
I3
ssg75
g3668
sg68
(lp3675
S''
asbasbasbag61
(g77
g63
NtRp3676
(dp3677
g66
(dp3678
sg75
g3652
sg68
(lp3679
g61
(g82
g63
NtRp3680
(dp3681
g66
(dp3682
g86
g87
ssg75
g3676
sg68
(lp3683
g319
asbag61
(g82
g63
NtRp3684
(dp3685
g66
(dp3686
g93
g94
ssg75
g3676
sg68
(lp3687
S':'
asbag61
(g82
g63
NtRp3688
(dp3689
g66
(dp3690
sg75
g3676
sg68
(lp3691
g61
(g62
g63
NtRp3692
(dp3693
g66
(dp3694
g74
I3
ssg75
g3688
sg68
(lp3695
S''
asbasbasbag61
(g77
g63
NtRp3696
(dp3697
g66
(dp3698
sg75
g3652
sg68
(lp3699
g61
(g82
g63
NtRp3700
(dp3701
g66
(dp3702
g86
g87
ssg75
g3696
sg68
(lp3703
g340
asbag61
(g82
g63
NtRp3704
(dp3705
g66
(dp3706
g93
g94
ssg75
g3696
sg68
(lp3707
S':'
asbag61
(g82
g63
NtRp3708
(dp3709
g66
(dp3710
sg75
g3696
sg68
(lp3711
g61
(g62
g63
NtRp3712
(dp3713
g66
(dp3714
g74
I3
ssg75
g3708
sg68
(lp3715
S''
asbasbasbag61
(g77
g63
NtRp3716
(dp3717
g66
(dp3718
sg75
g3652
sg68
(lp3719
g61
(g82
g63
NtRp3720
(dp3721
g66
(dp3722
g86
g87
ssg75
g3716
sg68
(lp3723
g361
asbag61
(g82
g63
NtRp3724
(dp3725
g66
(dp3726
g93
g94
ssg75
g3716
sg68
(lp3727
S':'
asbag61
(g82
g63
NtRp3728
(dp3729
g66
(dp3730
sg75
g3716
sg68
(lp3731
g61
(g62
g63
NtRp3732
(dp3733
g66
(dp3734
g74
I3
ssg75
g3728
sg68
(lp3735
S''
asbasbasbag61
(g77
g63
NtRp3736
(dp3737
g66
(dp3738
sg75
g3652
sg68
(lp3739
g61
(g82
g63
NtRp3740
(dp3741
g66
(dp3742
g86
g87
ssg75
g3736
sg68
(lp3743
g382
asbag61
(g82
g63
NtRp3744
(dp3745
g66
(dp3746
g93
g94
ssg75
g3736
sg68
(lp3747
S':'
asbag61
(g82
g63
NtRp3748
(dp3749
g66
(dp3750
sg75
g3736
sg68
(lp3751
g61
(g62
g63
NtRp3752
(dp3753
g66
(dp3754
g74
I3
ssg75
g3748
sg68
(lp3755
S''
asbasbasbag61
(g77
g63
NtRp3756
(dp3757
g66
(dp3758
sg75
g3652
sg68
(lp3759
g61
(g82
g63
NtRp3760
(dp3761
g66
(dp3762
g86
g87
ssg75
g3756
sg68
(lp3763
g403
asbag61
(g82
g63
NtRp3764
(dp3765
g66
(dp3766
g93
g94
ssg75
g3756
sg68
(lp3767
S':'
asbag61
(g82
g63
NtRp3768
(dp3769
g66
(dp3770
sg75
g3756
sg68
(lp3771
g61
(g62
g63
NtRp3772
(dp3773
g66
(dp3774
g74
I3
ssg75
g3768
sg68
(lp3775
S'/'
asbasbasbag61
(g77
g63
NtRp3776
(dp3777
g66
(dp3778
sg75
g3652
sg68
(lp3779
g61
(g82
g63
NtRp3780
(dp3781
g66
(dp3782
g86
g87
ssg75
g3776
sg68
(lp3783
g424
asbag61
(g82
g63
NtRp3784
(dp3785
g66
(dp3786
g93
g94
ssg75
g3776
sg68
(lp3787
S':'
asbag61
(g82
g63
NtRp3788
(dp3789
g66
(dp3790
sg75
g3776
sg68
(lp3791
g61
(g62
g63
NtRp3792
(dp3793
g66
(dp3794
g74
I3
ssg75
g3788
sg68
(lp3795
S''
asbasbasbag61
(g77
g63
NtRp3796
(dp3797
g66
(dp3798
sg75
g3652
sg68
(lp3799
g61
(g82
g63
NtRp3800
(dp3801
g66
(dp3802
g86
g87
ssg75
g3796
sg68
(lp3803
g445
asbag61
(g82
g63
NtRp3804
(dp3805
g66
(dp3806
g93
g94
ssg75
g3796
sg68
(lp3807
S':'
asbag61
(g82
g63
NtRp3808
(dp3809
g66
(dp3810
sg75
g3796
sg68
(lp3811
g61
(g62
g63
NtRp3812
(dp3813
g66
(dp3814
g74
I3
ssg75
g3808
sg68
(lp3815
S''
asbasbasbasbasbasbasbasbasbasbasbag61
(g77
g63
NtRp3816
(dp3817
g66
(dp3818
sg75
g3582
sg68
(lp3819
g61
(g82
g63
NtRp3820
(dp3821
g66
(dp3822
g86
g87
ssg75
g3816
sg68
(lp3823
S'delimiters'
p3824
asbag61
(g82
g63
NtRp3825
(dp3826
g66
(dp3827
g93
g94
ssg75
g3816
sg68
(lp3828
S':'
asbag61
(g82
g63
NtRp3829
(dp3830
g66
(dp3831
sg75
g3816
sg68
(lp3832
g61
(g62
g63
NtRp3833
(dp3834
g66
(dp3835
g74
I5
ssg75
g3829
sg68
(lp3836
g61
(g70
g63
NtRp3837
(dp3838
g66
(dp3839
g74
I4
ssg75
Nsg68
(lp3840
g61
(g77
g63
NtRp3841
(dp3842
g66
(dp3843
sg75
g3837
sg68
(lp3844
g61
(g82
g63
NtRp3845
(dp3846
g66
(dp3847
sg75
g3841
sg68
(lp3848
g61
(g62
g63
NtRp3849
(dp3850
g66
(dp3851
g74
I4
ssg75
g3845
sg68
(lp3852
S'{{'
p3853
asbasbasbag61
(g77
g63
NtRp3854
(dp3855
g66
(dp3856
sg75
g3837
sg68
(lp3857
g61
(g82
g63
NtRp3858
(dp3859
g66
(dp3860
sg75
g3854
sg68
(lp3861
g61
(g62
g63
NtRp3862
(dp3863
g66
(dp3864
g74
I4
ssg75
g3858
sg68
(lp3865
S'}}'
p3866
asbasbasbasbasbasbasbag61
(g77
g63
NtRp3867
(dp3868
g66
(dp3869
sg75
g3582
sg68
(lp3870
g61
(g82
g63
NtRp3871
(dp3872
g66
(dp3873
g86
g87
ssg75
g3867
sg68
(lp3874
S'files'
p3875
asbag61
(g82
g63
NtRp3876
(dp3877
g66
(dp3878
g93
g94
ssg75
g3867
sg68
(lp3879
S':'
asbag61
(g82
g63
NtRp3880
(dp3881
g66
(dp3882
sg75
g3867
sg68
(lp3883
g61
(g62
g63
NtRp3884
(dp3885
g66
(dp3886
g74
I5
ssg75
g3880
sg68
(lp3887
g61
(g70
g63
NtRp3888
(dp3889
g66
(dp3890
g74
I4
ssg75
Nsg68
(lp3891
sbasbasbasbag61
(g77
g63
NtRp3892
(dp3893
g66
(dp3894
sg75
g3582
sg68
(lp3895
g61
(g82
g63
NtRp3896
(dp3897
g66
(dp3898
g86
g87
ssg75
g3892
sg68
(lp3899
S'flash'
p3900
asbag61
(g82
g63
NtRp3901
(dp3902
g66
(dp3903
g93
g94
ssg75
g3892
sg68
(lp3904
S':'
asbag61
(g82
g63
NtRp3905
(dp3906
g66
(dp3907
sg75
g3892
sg68
(lp3908
g61
(g62
g63
NtRp3909
(dp3910
g66
(dp3911
g74
I5
ssg75
g3905
sg68
(lp3912
S''
asbasbasbag61
(g77
g63
NtRp3913
(dp3914
g66
(dp3915
sg75
g3582
sg68
(lp3916
g61
(g82
g63
NtRp3917
(dp3918
g66
(dp3919
g86
g87
ssg75
g3913
sg68
(lp3920
S'generic_patterns'
p3921
asbag61
(g82
g63
NtRp3922
(dp3923
g66
(dp3924
g93
g94
ssg75
g3913
sg68
(lp3925
S':'
asbag61
(g82
g63
NtRp3926
(dp3927
g66
(dp3928
sg75
g3913
sg68
(lp3929
g61
(g62
g63
NtRp3930
(dp3931
g66
(dp3932
g74
I5
ssg75
g3926
sg68
(lp3933
g61
(g70
g63
NtRp3934
(dp3935
g66
(dp3936
g74
I4
ssg75
Nsg68
(lp3937
g61
(g77
g63
NtRp3938
(dp3939
g66
(dp3940
sg75
g3934
sg68
(lp3941
g61
(g82
g63
NtRp3942
(dp3943
g66
(dp3944
sg75
g3938
sg68
(lp3945
g61
(g62
g63
NtRp3946
(dp3947
g66
(dp3948
g74
I4
ssg75
g3942
sg68
(lp3949
S'*'
asbasbasbasbasbasbasbag61
(g77
g63
NtRp3950
(dp3951
g66
(dp3952
sg75
g3582
sg68
(lp3953
g61
(g82
g63
NtRp3954
(dp3955
g66
(dp3956
g86
g87
ssg75
g3950
sg68
(lp3957
S'headers'
p3958
asbag61
(g82
g63
NtRp3959
(dp3960
g66
(dp3961
g93
g94
ssg75
g3950
sg68
(lp3962
S':'
asbag61
(g82
g63
NtRp3963
(dp3964
g66
(dp3965
sg75
g3950
sg68
(lp3966
g61
(g62
g63
NtRp3967
(dp3968
g66
(dp3969
g74
I5
ssg75
g3963
sg68
(lp3970
g61
(g70
g63
NtRp3971
(dp3972
g66
(dp3973
g74
I4
ssg75
Nsg68
(lp3974
g61
(g77
g63
NtRp3975
(dp3976
g66
(dp3977
sg75
g3971
sg68
(lp3978
g61
(g82
g63
NtRp3979
(dp3980
g66
(dp3981
g86
g87
ssg75
g3975
sg68
(lp3982
S'X-Powered-By'
p3983
asbag61
(g82
g63
NtRp3984
(dp3985
g66
(dp3986
g93
g94
ssg75
g3975
sg68
(lp3987
S':'
asbag61
(g82
g63
NtRp3988
(dp3989
g66
(dp3990
sg75
g3975
sg68
(lp3991
g61
(g62
g63
NtRp3992
(dp3993
g66
(dp3994
g74
I4
ssg75
g3988
sg68
(lp3995
S'web2py'
p3996
asbasbasbasbasbasbasbag61
(g77
g63
NtRp3997
(dp3998
g66
(dp3999
sg75
g3582
sg68
(lp4000
g61
(g82
g63
NtRp4001
(dp4002
g66
(dp4003
g86
g87
ssg75
g3997
sg68
(lp4004
S'menu'
p4005
asbag61
(g82
g63
NtRp4006
(dp4007
g66
(dp4008
g93
g94
ssg75
g3997
sg68
(lp4009
S':'
asbag61
(g82
g63
NtRp4010
(dp4011
g66
(dp4012
sg75
g3997
sg68
(lp4013
g61
(g62
g63
NtRp4014
(dp4015
g66
(dp4016
g74
I5
ssg75
g4010
sg68
(lp4017
g61
(g70
g63
NtRp4018
(dp4019
g66
(dp4020
g74
I4
ssg75
Nsg68
(lp4021
sbasbasbasbag61
(g77
g63
NtRp4022
(dp4023
g66
(dp4024
sg75
g3582
sg68
(lp4025
g61
(g82
g63
NtRp4026
(dp4027
g66
(dp4028
g86
g87
ssg75
g4022
sg68
(lp4029
S'meta'
p4030
asbag61
(g82
g63
NtRp4031
(dp4032
g66
(dp4033
g93
g94
ssg75
g4022
sg68
(lp4034
S':'
asbag61
(g82
g63
NtRp4035
(dp4036
g66
(dp4037
sg75
g4022
sg68
(lp4038
g61
(g62
g63
NtRp4039
(dp4040
g66
(dp4041
g74
I5
ssg75
g4035
sg68
(lp4042
g61
(g70
g63
NtRp4043
(dp4044
g66
(dp4045
g74
I4
ssg75
Nsg68
(lp4046
g61
(g77
g63
NtRp4047
(dp4048
g66
(dp4049
sg75
g4043
sg68
(lp4050
g61
(g82
g63
NtRp4051
(dp4052
g66
(dp4053
g86
g87
ssg75
g4047
sg68
(lp4054
S'author'
p4055
asbag61
(g82
g63
NtRp4056
(dp4057
g66
(dp4058
g93
g94
ssg75
g4047
sg68
(lp4059
S':'
asbag61
(g82
g63
NtRp4060
(dp4061
g66
(dp4062
sg75
g4047
sg68
(lp4063
g61
(g62
g63
NtRp4064
(dp4065
g66
(dp4066
g74
I4
ssg75
g4060
sg68
(lp4067
S'Diego Miranda'
p4068
asbasbasbag61
(g77
g63
NtRp4069
(dp4070
g66
(dp4071
sg75
g4043
sg68
(lp4072
g61
(g82
g63
NtRp4073
(dp4074
g66
(dp4075
g86
g87
ssg75
g4069
sg68
(lp4076
S'copyright'
p4077
asbag61
(g82
g63
NtRp4078
(dp4079
g66
(dp4080
g93
g94
ssg75
g4069
sg68
(lp4081
S':'
asbag61
(g82
g63
NtRp4082
(dp4083
g66
(dp4084
sg75
g4069
sg68
(lp4085
g61
(g62
g63
NtRp4086
(dp4087
g66
(dp4088
g74
I4
ssg75
g4082
sg68
(lp4089
S'Copyright 2012'
p4090
asbasbasbag61
(g77
g63
NtRp4091
(dp4092
g66
(dp4093
sg75
g4043
sg68
(lp4094
g61
(g82
g63
NtRp4095
(dp4096
g66
(dp4097
g86
g87
ssg75
g4091
sg68
(lp4098
S'description'
p4099
asbag61
(g82
g63
NtRp4100
(dp4101
g66
(dp4102
g93
g94
ssg75
g4091
sg68
(lp4103
S':'
asbag61
(g82
g63
NtRp4104
(dp4105
g66
(dp4106
sg75
g4091
sg68
(lp4107
g61
(g62
g63
NtRp4108
(dp4109
g66
(dp4110
g74
I4
ssg75
g4104
sg68
(lp4111
S'Rafael App'
p4112
asbasbasbag61
(g77
g63
NtRp4113
(dp4114
g66
(dp4115
sg75
g4043
sg68
(lp4116
g61
(g82
g63
NtRp4117
(dp4118
g66
(dp4119
g86
g87
ssg75
g4113
sg68
(lp4120
S'generator'
p4121
asbag61
(g82
g63
NtRp4122
(dp4123
g66
(dp4124
g93
g94
ssg75
g4113
sg68
(lp4125
S':'
asbag61
(g82
g63
NtRp4126
(dp4127
g66
(dp4128
sg75
g4113
sg68
(lp4129
g61
(g62
g63
NtRp4130
(dp4131
g66
(dp4132
g74
I4
ssg75
g4126
sg68
(lp4133
S'web2py web framework'
p4134
asbasbasbag61
(g77
g63
NtRp4135
(dp4136
g66
(dp4137
sg75
g4043
sg68
(lp4138
g61
(g82
g63
NtRp4139
(dp4140
g66
(dp4141
g86
g87
ssg75
g4135
sg68
(lp4142
S'keywords'
p4143
asbag61
(g82
g63
NtRp4144
(dp4145
g66
(dp4146
g93
g94
ssg75
g4135
sg68
(lp4147
S':'
asbag61
(g82
g63
NtRp4148
(dp4149
g66
(dp4150
sg75
g4135
sg68
(lp4151
g61
(g62
g63
NtRp4152
(dp4153
g66
(dp4154
g74
I4
ssg75
g4148
sg68
(lp4155
S'web2py, python framework'
p4156
asbasbasbasbasbasbasbag61
(g77
g63
NtRp4157
(dp4158
g66
(dp4159
sg75
g3582
sg68
(lp4160
g61
(g82
g63
NtRp4161
(dp4162
g66
(dp4163
g86
g87
ssg75
g4157
sg68
(lp4164
S'models_to_run'
p4165
asbag61
(g82
g63
NtRp4166
(dp4167
g66
(dp4168
g93
g94
ssg75
g4157
sg68
(lp4169
S':'
asbag61
(g82
g63
NtRp4170
(dp4171
g66
(dp4172
sg75
g4157
sg68
(lp4173
g61
(g62
g63
NtRp4174
(dp4175
g66
(dp4176
g74
I5
ssg75
g4170
sg68
(lp4177
g61
(g70
g63
NtRp4178
(dp4179
g66
(dp4180
g74
I4
ssg75
Nsg68
(lp4181
g61
(g77
g63
NtRp4182
(dp4183
g66
(dp4184
sg75
g4178
sg68
(lp4185
g61
(g82
g63
NtRp4186
(dp4187
g66
(dp4188
sg75
g4182
sg68
(lp4189
g61
(g62
g63
NtRp4190
(dp4191
g66
(dp4192
g74
I4
ssg75
g4186
sg68
(lp4193
S'^\\w+\\.py$'
p4194
asbasbasbag61
(g77
g63
NtRp4195
(dp4196
g66
(dp4197
sg75
g4178
sg68
(lp4198
g61
(g82
g63
NtRp4199
(dp4200
g66
(dp4201
sg75
g4195
sg68
(lp4202
g61
(g62
g63
NtRp4203
(dp4204
g66
(dp4205
g74
I4
ssg75
g4199
sg68
(lp4206
S'^contact/\\w+\\.py$'
p4207
asbasbasbag61
(g77
g63
NtRp4208
(dp4209
g66
(dp4210
sg75
g4178
sg68
(lp4211
g61
(g82
g63
NtRp4212
(dp4213
g66
(dp4214
sg75
g4208
sg68
(lp4215
g61
(g62
g63
NtRp4216
(dp4217
g66
(dp4218
g74
I4
ssg75
g4212
sg68
(lp4219
S'^contact/contact/\\w+\\.py$'
p4220
asbasbasbasbasbasbasbag61
(g77
g63
NtRp4221
(dp4222
g66
(dp4223
sg75
g3582
sg68
(lp4224
g61
(g82
g63
NtRp4225
(dp4226
g66
(dp4227
g86
g87
ssg75
g4221
sg68
(lp4228
S'postprocessing'
p4229
asbag61
(g82
g63
NtRp4230
(dp4231
g66
(dp4232
g93
g94
ssg75
g4221
sg68
(lp4233
S':'
asbag61
(g82
g63
NtRp4234
(dp4235
g66
(dp4236
sg75
g4221
sg68
(lp4237
g61
(g62
g63
NtRp4238
(dp4239
g66
(dp4240
g74
I5
ssg75
g4234
sg68
(lp4241
g61
(g70
g63
NtRp4242
(dp4243
g66
(dp4244
g74
I4
ssg75
Nsg68
(lp4245
sbasbasbasbag61
(g77
g63
NtRp4246
(dp4247
g66
(dp4248
sg75
g3582
sg68
(lp4249
g61
(g82
g63
NtRp4250
(dp4251
g66
(dp4252
g86
g87
ssg75
g4246
sg68
(lp4253
S'session_cookie_expires'
p4254
asbag61
(g82
g63
NtRp4255
(dp4256
g66
(dp4257
g93
g94
ssg75
g4246
sg68
(lp4258
S':'
asbag61
(g82
g63
NtRp4259
(dp4260
g66
(dp4261
sg75
g4246
sg68
(lp4262
g61
(g62
g63
NtRp4263
(dp4264
g66
(dp4265
g74
I5
ssg75
g4259
sg68
(lp4266
S'None'
p4267
asbasbasbag61
(g77
g63
NtRp4268
(dp4269
g66
(dp4270
sg75
g3582
sg68
(lp4271
g61
(g82
g63
NtRp4272
(dp4273
g66
(dp4274
g86
g87
ssg75
g4268
sg68
(lp4275
S'session_data_name'
p4276
asbag61
(g82
g63
NtRp4277
(dp4278
g66
(dp4279
g93
g94
ssg75
g4268
sg68
(lp4280
S':'
asbag61
(g82
g63
NtRp4281
(dp4282
g66
(dp4283
sg75
g4268
sg68
(lp4284
g61
(g62
g63
NtRp4285
(dp4286
g66
(dp4287
g74
I5
ssg75
g4281
sg68
(lp4288
S'session_data_rsoutelino'
p4289
asbasbasbag61
(g77
g63
NtRp4290
(dp4291
g66
(dp4292
sg75
g3582
sg68
(lp4293
g61
(g82
g63
NtRp4294
(dp4295
g66
(dp4296
g86
g87
ssg75
g4290
sg68
(lp4297
S'session_file'
p4298
asbag61
(g82
g63
NtRp4299
(dp4300
g66
(dp4301
g93
g94
ssg75
g4290
sg68
(lp4302
S':'
asbag61
(g82
g63
NtRp4303
(dp4304
g66
(dp4305
sg75
g4290
sg68
(lp4306
g61
(g62
g63
NtRp4307
(dp4308
g66
(dp4309
g74
I5
ssg75
g4303
sg68
(lp4310
S"<open file '/home/rsoutelino/web2py/applications/rsoutelino/sessions/172.30.6.206-5b9039ad-f70c-436f-9f3d-e265648ab174', mode 'rb+' at 0x3827420>"
p4311
asbasbasbag61
(g77
g63
NtRp4312
(dp4313
g66
(dp4314
sg75
g3582
sg68
(lp4315
g61
(g82
g63
NtRp4316
(dp4317
g66
(dp4318
g86
g87
ssg75
g4312
sg68
(lp4319
S'session_filename'
p4320
asbag61
(g82
g63
NtRp4321
(dp4322
g66
(dp4323
g93
g94
ssg75
g4312
sg68
(lp4324
S':'
asbag61
(g82
g63
NtRp4325
(dp4326
g66
(dp4327
sg75
g4312
sg68
(lp4328
g61
(g62
g63
NtRp4329
(dp4330
g66
(dp4331
g74
I5
ssg75
g4325
sg68
(lp4332
S'/home/rsoutelino/web2py/applications/rsoutelino/sessions/172.30.6.206-5b9039ad-f70c-436f-9f3d-e265648ab174'
p4333
asbasbasbag61
(g77
g63
NtRp4334
(dp4335
g66
(dp4336
sg75
g3582
sg68
(lp4337
g61
(g82
g63
NtRp4338
(dp4339
g66
(dp4340
g86
g87
ssg75
g4334
sg68
(lp4341
S'session_id'
p4342
asbag61
(g82
g63
NtRp4343
(dp4344
g66
(dp4345
g93
g94
ssg75
g4334
sg68
(lp4346
S':'
asbag61
(g82
g63
NtRp4347
(dp4348
g66
(dp4349
sg75
g4334
sg68
(lp4350
g61
(g62
g63
NtRp4351
(dp4352
g66
(dp4353
g74
I5
ssg75
g4347
sg68
(lp4354
g285
asbasbasbag61
(g77
g63
NtRp4355
(dp4356
g66
(dp4357
sg75
g3582
sg68
(lp4358
g61
(g82
g63
NtRp4359
(dp4360
g66
(dp4361
g86
g87
ssg75
g4355
sg68
(lp4362
S'session_id_name'
p4363
asbag61
(g82
g63
NtRp4364
(dp4365
g66
(dp4366
g93
g94
ssg75
g4355
sg68
(lp4367
S':'
asbag61
(g82
g63
NtRp4368
(dp4369
g66
(dp4370
sg75
g4355
sg68
(lp4371
g61
(g62
g63
NtRp4372
(dp4373
g66
(dp4374
g74
I5
ssg75
g4368
sg68
(lp4375
g3639
asbasbasbag61
(g77
g63
NtRp4376
(dp4377
g66
(dp4378
sg75
g3582
sg68
(lp4379
g61
(g82
g63
NtRp4380
(dp4381
g66
(dp4382
g86
g87
ssg75
g4376
sg68
(lp4383
S'session_locked'
p4384
asbag61
(g82
g63
NtRp4385
(dp4386
g66
(dp4387
g93
g94
ssg75
g4376
sg68
(lp4388
S':'
asbag61
(g82
g63
NtRp4389
(dp4390
g66
(dp4391
sg75
g4376
sg68
(lp4392
g61
(g62
g63
NtRp4393
(dp4394
g66
(dp4395
g74
I5
ssg75
g4389
sg68
(lp4396
S'True'
p4397
asbasbasbag61
(g77
g63
NtRp4398
(dp4399
g66
(dp4400
sg75
g3582
sg68
(lp4401
g61
(g82
g63
NtRp4402
(dp4403
g66
(dp4404
g86
g87
ssg75
g4398
sg68
(lp4405
S'session_new'
p4406
asbag61
(g82
g63
NtRp4407
(dp4408
g66
(dp4409
g93
g94
ssg75
g4398
sg68
(lp4410
S':'
asbag61
(g82
g63
NtRp4411
(dp4412
g66
(dp4413
sg75
g4398
sg68
(lp4414
g61
(g62
g63
NtRp4415
(dp4416
g66
(dp4417
g74
I5
ssg75
g4411
sg68
(lp4418
g104
asbasbasbag61
(g77
g63
NtRp4419
(dp4420
g66
(dp4421
sg75
g3582
sg68
(lp4422
g61
(g82
g63
NtRp4423
(dp4424
g66
(dp4425
g86
g87
ssg75
g4419
sg68
(lp4426
S'session_storage_type'
p4427
asbag61
(g82
g63
NtRp4428
(dp4429
g66
(dp4430
g93
g94
ssg75
g4419
sg68
(lp4431
S':'
asbag61
(g82
g63
NtRp4432
(dp4433
g66
(dp4434
sg75
g4419
sg68
(lp4435
g61
(g62
g63
NtRp4436
(dp4437
g66
(dp4438
g74
I5
ssg75
g4432
sg68
(lp4439
g3372
asbasbasbag61
(g77
g63
NtRp4440
(dp4441
g66
(dp4442
sg75
g3582
sg68
(lp4443
g61
(g82
g63
NtRp4444
(dp4445
g66
(dp4446
g86
g87
ssg75
g4440
sg68
(lp4447
S'status'
p4448
asbag61
(g82
g63
NtRp4449
(dp4450
g66
(dp4451
g93
g94
ssg75
g4440
sg68
(lp4452
S':'
asbag61
(g82
g63
NtRp4453
(dp4454
g66
(dp4455
sg75
g4440
sg68
(lp4456
g61
(g62
g63
NtRp4457
(dp4458
g66
(dp4459
g74
I5
ssg75
g4453
sg68
(lp4460
S'200'
p4461
asbasbasbag61
(g77
g63
NtRp4462
(dp4463
g66
(dp4464
sg75
g3582
sg68
(lp4465
g61
(g82
g63
NtRp4466
(dp4467
g66
(dp4468
g86
g87
ssg75
g4462
sg68
(lp4469
S'subtitle'
p4470
asbag61
(g82
g63
NtRp4471
(dp4472
g66
(dp4473
g93
g94
ssg75
g4462
sg68
(lp4474
S':'
asbag61
(g82
g63
NtRp4475
(dp4476
g66
(dp4477
sg75
g4462
sg68
(lp4478
g61
(g62
g63
NtRp4479
(dp4480
g66
(dp4481
g74
I5
ssg75
g4475
sg68
(lp4482
cgluon.languages
lazyT_unpickle
p4483
(S's\x10\x00\x00\x00Rafael Soutelino'
tRp4484
asbasbasbag61
(g77
g63
NtRp4485
(dp4486
g66
(dp4487
sg75
g3582
sg68
(lp4488
g61
(g82
g63
NtRp4489
(dp4490
g66
(dp4491
g86
g87
ssg75
g4485
sg68
(lp4492
S'title'
p4493
asbag61
(g82
g63
NtRp4494
(dp4495
g66
(dp4496
g93
g94
ssg75
g4485
sg68
(lp4497
S':'
asbag61
(g82
g63
NtRp4498
(dp4499
g66
(dp4500
sg75
g4485
sg68
(lp4501
g61
(g62
g63
NtRp4502
(dp4503
g66
(dp4504
g74
I5
ssg75
g4498
sg68
(lp4505
S'Rafael Soutelino: Academic Website'
p4506
asbasbasbag61
(g77
g63
NtRp4507
(dp4508
g66
(dp4509
sg75
g3582
sg68
(lp4510
g61
(g82
g63
NtRp4511
(dp4512
g66
(dp4513
g86
g87
ssg75
g4507
sg68
(lp4514
S'view'
p4515
asbag61
(g82
g63
NtRp4516
(dp4517
g66
(dp4518
g93
g94
ssg75
g4507
sg68
(lp4519
S':'
asbag61
(g82
g63
NtRp4520
(dp4521
g66
(dp4522
sg75
g4507
sg68
(lp4523
g61
(g62
g63
NtRp4524
(dp4525
g66
(dp4526
g74
I5
ssg75
g4520
sg68
(lp4527
S'contact/contact.html'
p4528
asbasbasbasbasbsS'locals'
p4529
(dp4530
S'query'
p4531
S'"INSERT INTO contacts(commentary,email,tel,name,a...3456778\',\'Rafael Soutelino\',\'not your business\');"'
p4532
sS'self'
p4533
S'<gluon.dal.SQLiteAdapter object>'
p4534
sS'e'
S"IntegrityError('column name is not unique',)"
p4535
sS'fields'
p4536
S"[(<gluon.dal.Field object>, 'Fuck you'), (<gluon.dal.Field object>, 'rsoutelino@gmail.com'), (<gluon.dal.Field object>, '123456778'), (<gluon.dal.Field object>, 'Rafael Soutelino'), (<gluon.dal.Field object>, 'not your business')]"
p4537
sS'table'
p4538
S'<Table contacts (id,name,email,tel,adress,commentary)>'
p4539
sssS'traceback'
p4540
S'Traceback (most recent call last):\n  File "/home/rsoutelino/web2py/gluon/restricted.py", line 212, in restricted\n    exec ccode in environment\n  File "/home/rsoutelino/web2py/applications/rsoutelino/controllers/contact.py", line 10, in <module>\n  File "/home/rsoutelino/web2py/gluon/globals.py", line 188, in <lambda>\n    self._caller = lambda f: f()\n  File "/home/rsoutelino/web2py/applications/rsoutelino/controllers/contact.py", line 3, in contact\n    if form.process().accepted:\n  File "/home/rsoutelino/web2py/gluon/html.py", line 2170, in process\n    self.validate(**kwargs)\n  File "/home/rsoutelino/web2py/gluon/html.py", line 2109, in validate\n    if self.accepts(**kwargs):\n  File "/home/rsoutelino/web2py/gluon/sqlhtml.py", line 1475, in accepts\n    self.vars.id = self.table.insert(**fields)\n  File "/home/rsoutelino/web2py/gluon/dal.py", line 7806, in insert\n    ret =  self._db._adapter.insert(self,self._listify(fields))\n  File "/home/rsoutelino/web2py/gluon/dal.py", line 1161, in insert\n    raise e\nIntegrityError: column name is not unique\n'
p4541
s.