(dp1
S'output'
p2
S"<type 'exceptions.IndentationError'> expected an indented block (contact.py, line 6)"
p3
sS'layer'
p4
S'/home/rsoutelino/web2py/applications/rsoutelino/controllers/contact.py'
p5
sS'code'
p6
S'from Mail import *\n\ndef contact():\n\tform = SQLFORM(db.contacts).process()\n\tif form.process(request.args(0)).accepted:\n        message = "%s %s %s" %(forms.vars.name, forms.vars.email, forms.vars.commentary)\n        mail.send(to="rsoutelino@gmail.com", subject="You received a message through rsoutelino.com",\n                  reply_to=form.vars.email, message=message)\n        response.flash="success"\n\telif form.errors:\n\t\tresponse.flash="try again"\n\treturn dict(form=form)\nresponse._vars=response._caller(contact)\n'
p7
sS'snapshot'
p8
(dp9
S'exception'
p10
(dp11
S'__getslice__'
p12
S"<method-wrapper '__getslice__' of exceptions.IndentationError object>"
p13
sS'text'
p14
S'\'        message = "%s %s %s" %(forms.vars.name, forms.vars.email, forms.vars.commentary)\\n\''
p15
sS'__str__'
p16
S"<method-wrapper '__str__' of exceptions.IndentationError object>"
p17
sS'__reduce__'
p18
S'<built-in method __reduce__ of exceptions.IndentationError object>'
p19
sS'__dict__'
p20
S'{}'
p21
sS'__sizeof__'
p22
S'<built-in method __sizeof__ of exceptions.IndentationError object>'
p23
sS'__init__'
p24
S"<method-wrapper '__init__' of exceptions.IndentationError object>"
p25
sS'__setattr__'
p26
S"<method-wrapper '__setattr__' of exceptions.IndentationError object>"
p27
sS'__reduce_ex__'
p28
S'<built-in method __reduce_ex__ of exceptions.IndentationError object>'
p29
sS'__new__'
p30
S'<built-in method __new__ of type object>'
p31
sS'__format__'
p32
S'<built-in method __format__ of exceptions.IndentationError object>'
p33
sS'__class__'
p34
S"<type 'exceptions.IndentationError'>"
p35
sS'filename'
p36
S"'/home/rsoutelino/web2py/applications/rsoutelino/controllers/contact.py'"
p37
sS'lineno'
p38
S'6'
sS'msg'
p39
S"'expected an indented block'"
p40
sS'__doc__'
p41
S"'Improper indentation.'"
p42
sS'__getitem__'
p43
S"<method-wrapper '__getitem__' of exceptions.IndentationError object>"
p44
sS'__setstate__'
p45
S'<built-in method __setstate__ of exceptions.IndentationError object>'
p46
sS'__getattribute__'
p47
S"<method-wrapper '__getattribute__' of exceptions.IndentationError object>"
p48
sS'print_file_and_line'
p49
S'None'
p50
sS'args'
p51
S'(\'expected an indented block\', (\'/home/rsoutelino/web2py/applications/rsoutelino/controllers/contact.py\', 6, 15, \'        message = "%s %s %s" %(forms.vars.name, forms.vars.email, forms.vars.commentary)\\n\'))'
p52
sS'__subclasshook__'
p53
S'<built-in method __subclasshook__ of type object>'
p54
sS'offset'
p55
S'15'
p56
sS'__unicode__'
p57
S'<built-in method __unicode__ of exceptions.IndentationError object>'
p58
sS'__delattr__'
p59
S"<method-wrapper '__delattr__' of exceptions.IndentationError object>"
p60
sS'__repr__'
p61
S"<method-wrapper '__repr__' of exceptions.IndentationError object>"
p62
sS'__hash__'
p63
S"<method-wrapper '__hash__' of exceptions.IndentationError object>"
p64
ssS'evalue'
p65
S'expected an indented block (contact.py, line 6)'
p66
sS'request'
p67
ccopy_reg
_reconstructor
p68
(cgluon.html
BEAUTIFY
p69
c__builtin__
object
p70
NtRp71
(dp72
S'attributes'
p73
(dp74
sS'components'
p75
(lp76
g68
(cgluon.html
TABLE
p77
g70
NtRp78
(dp79
g73
(dp80
S'level'
p81
I5
ssS'parent'
p82
Nsg75
(lp83
g68
(cgluon.html
TR
p84
g70
NtRp85
(dp86
g73
(dp87
sg82
g78
sg75
(lp88
g68
(cgluon.html
TD
p89
g70
NtRp90
(dp91
g73
(dp92
S'_style'
p93
S'font-weight:bold;vertical-align:top'
p94
ssg82
g85
sg75
(lp95
S'ajax'
p96
asbag68
(g89
g70
NtRp97
(dp98
g73
(dp99
S'_valign'
p100
S'top'
p101
ssg82
g85
sg75
(lp102
S':'
asbag68
(g89
g70
NtRp103
(dp104
g73
(dp105
sg82
g85
sg75
(lp106
g68
(g69
g70
NtRp107
(dp108
g73
(dp109
g81
I5
ssg82
g103
sg75
(lp110
S'False'
p111
asbasbasbag68
(g84
g70
NtRp112
(dp113
g73
(dp114
sg82
g78
sg75
(lp115
g68
(g89
g70
NtRp116
(dp117
g73
(dp118
g93
g94
ssg82
g112
sg75
(lp119
S'application'
p120
asbag68
(g89
g70
NtRp121
(dp122
g73
(dp123
g100
g101
ssg82
g112
sg75
(lp124
S':'
asbag68
(g89
g70
NtRp125
(dp126
g73
(dp127
sg82
g112
sg75
(lp128
g68
(g69
g70
NtRp129
(dp130
g73
(dp131
g81
I5
ssg82
g125
sg75
(lp132
S'rsoutelino'
p133
asbasbasbag68
(g84
g70
NtRp134
(dp135
g73
(dp136
sg82
g78
sg75
(lp137
g68
(g89
g70
NtRp138
(dp139
g73
(dp140
g93
g94
ssg82
g134
sg75
(lp141
g51
asbag68
(g89
g70
NtRp142
(dp143
g73
(dp144
g100
g101
ssg82
g134
sg75
(lp145
S':'
asbag68
(g89
g70
NtRp146
(dp147
g73
(dp148
sg82
g134
sg75
(lp149
g68
(g69
g70
NtRp150
(dp151
g73
(dp152
g81
I5
ssg82
g146
sg75
(lp153
g68
(g77
g70
NtRp154
(dp155
g73
(dp156
g81
I4
ssg82
Nsg75
(lp157
sbasbasbasbag68
(g84
g70
NtRp158
(dp159
g73
(dp160
sg82
g78
sg75
(lp161
g68
(g89
g70
NtRp162
(dp163
g73
(dp164
g93
g94
ssg82
g158
sg75
(lp165
S'body'
p166
asbag68
(g89
g70
NtRp167
(dp168
g73
(dp169
g100
g101
ssg82
g158
sg75
(lp170
S':'
asbag68
(g89
g70
NtRp171
(dp172
g73
(dp173
sg82
g158
sg75
(lp174
g68
(g69
g70
NtRp175
(dp176
g73
(dp177
g81
I5
ssg82
g171
sg75
(lp178
S'<cStringIO.StringO object at 0x2b66810>'
p179
asbasbasbag68
(g84
g70
NtRp180
(dp181
g73
(dp182
sg82
g78
sg75
(lp183
g68
(g89
g70
NtRp184
(dp185
g73
(dp186
g93
g94
ssg82
g180
sg75
(lp187
S'cid'
p188
asbag68
(g89
g70
NtRp189
(dp190
g73
(dp191
g100
g101
ssg82
g180
sg75
(lp192
S':'
asbag68
(g89
g70
NtRp193
(dp194
g73
(dp195
sg82
g180
sg75
(lp196
g68
(g69
g70
NtRp197
(dp198
g73
(dp199
g81
I5
ssg82
g193
sg75
(lp200
S'None'
p201
asbasbasbag68
(g84
g70
NtRp202
(dp203
g73
(dp204
sg82
g78
sg75
(lp205
g68
(g89
g70
NtRp206
(dp207
g73
(dp208
g93
g94
ssg82
g202
sg75
(lp209
S'client'
p210
asbag68
(g89
g70
NtRp211
(dp212
g73
(dp213
g100
g101
ssg82
g202
sg75
(lp214
S':'
asbag68
(g89
g70
NtRp215
(dp216
g73
(dp217
sg82
g202
sg75
(lp218
g68
(g69
g70
NtRp219
(dp220
g73
(dp221
g81
I5
ssg82
g215
sg75
(lp222
S'172.30.6.206'
p223
asbasbasbag68
(g84
g70
NtRp224
(dp225
g73
(dp226
sg82
g78
sg75
(lp227
g68
(g89
g70
NtRp228
(dp229
g73
(dp230
g93
g94
ssg82
g224
sg75
(lp231
S'controller'
p232
asbag68
(g89
g70
NtRp233
(dp234
g73
(dp235
g100
g101
ssg82
g224
sg75
(lp236
S':'
asbag68
(g89
g70
NtRp237
(dp238
g73
(dp239
sg82
g224
sg75
(lp240
g68
(g69
g70
NtRp241
(dp242
g73
(dp243
g81
I5
ssg82
g237
sg75
(lp244
S'contact'
p245
asbasbasbag68
(g84
g70
NtRp246
(dp247
g73
(dp248
sg82
g78
sg75
(lp249
g68
(g89
g70
NtRp250
(dp251
g73
(dp252
g93
g94
ssg82
g246
sg75
(lp253
S'cookies'
p254
asbag68
(g89
g70
NtRp255
(dp256
g73
(dp257
g100
g101
ssg82
g246
sg75
(lp258
S':'
asbag68
(g89
g70
NtRp259
(dp260
g73
(dp261
sg82
g246
sg75
(lp262
g68
(g69
g70
NtRp263
(dp264
g73
(dp265
g81
I5
ssg82
g259
sg75
(lp266
g68
(g77
g70
NtRp267
(dp268
g73
(dp269
g81
I4
ssg82
Nsg75
(lp270
g68
(g84
g70
NtRp271
(dp272
g73
(dp273
sg82
g267
sg75
(lp274
g68
(g89
g70
NtRp275
(dp276
g73
(dp277
g93
g94
ssg82
g271
sg75
(lp278
S'session_id_rsoutelino'
p279
asbag68
(g89
g70
NtRp280
(dp281
g73
(dp282
g100
g101
ssg82
g271
sg75
(lp283
S':'
asbag68
(g89
g70
NtRp284
(dp285
g73
(dp286
sg82
g271
sg75
(lp287
g68
(g69
g70
NtRp288
(dp289
g73
(dp290
g81
I4
ssg82
g284
sg75
(lp291
S'172.30.6.206-83d718b2-a1be-417f-9bcf-31ce56e73085'
p292
ag68
(g77
g70
NtRp293
(dp294
g73
(dp295
g81
I3
ssg82
Nsg75
(lp296
g68
(g84
g70
NtRp297
(dp298
g73
(dp299
sg82
g293
sg75
(lp300
g68
(g89
g70
NtRp301
(dp302
g73
(dp303
g93
g94
ssg82
g297
sg75
(lp304
S'comment'
p305
asbag68
(g89
g70
NtRp306
(dp307
g73
(dp308
g100
g101
ssg82
g297
sg75
(lp309
S':'
asbag68
(g89
g70
NtRp310
(dp311
g73
(dp312
sg82
g297
sg75
(lp313
g68
(g69
g70
NtRp314
(dp315
g73
(dp316
g81
I3
ssg82
g310
sg75
(lp317
S''
asbasbasbag68
(g84
g70
NtRp318
(dp319
g73
(dp320
sg82
g293
sg75
(lp321
g68
(g89
g70
NtRp322
(dp323
g73
(dp324
g93
g94
ssg82
g318
sg75
(lp325
S'domain'
p326
asbag68
(g89
g70
NtRp327
(dp328
g73
(dp329
g100
g101
ssg82
g318
sg75
(lp330
S':'
asbag68
(g89
g70
NtRp331
(dp332
g73
(dp333
sg82
g318
sg75
(lp334
g68
(g69
g70
NtRp335
(dp336
g73
(dp337
g81
I3
ssg82
g331
sg75
(lp338
S''
asbasbasbag68
(g84
g70
NtRp339
(dp340
g73
(dp341
sg82
g293
sg75
(lp342
g68
(g89
g70
NtRp343
(dp344
g73
(dp345
g93
g94
ssg82
g339
sg75
(lp346
S'expires'
p347
asbag68
(g89
g70
NtRp348
(dp349
g73
(dp350
g100
g101
ssg82
g339
sg75
(lp351
S':'
asbag68
(g89
g70
NtRp352
(dp353
g73
(dp354
sg82
g339
sg75
(lp355
g68
(g69
g70
NtRp356
(dp357
g73
(dp358
g81
I3
ssg82
g352
sg75
(lp359
S''
asbasbasbag68
(g84
g70
NtRp360
(dp361
g73
(dp362
sg82
g293
sg75
(lp363
g68
(g89
g70
NtRp364
(dp365
g73
(dp366
g93
g94
ssg82
g360
sg75
(lp367
S'httponly'
p368
asbag68
(g89
g70
NtRp369
(dp370
g73
(dp371
g100
g101
ssg82
g360
sg75
(lp372
S':'
asbag68
(g89
g70
NtRp373
(dp374
g73
(dp375
sg82
g360
sg75
(lp376
g68
(g69
g70
NtRp377
(dp378
g73
(dp379
g81
I3
ssg82
g373
sg75
(lp380
S''
asbasbasbag68
(g84
g70
NtRp381
(dp382
g73
(dp383
sg82
g293
sg75
(lp384
g68
(g89
g70
NtRp385
(dp386
g73
(dp387
g93
g94
ssg82
g381
sg75
(lp388
S'max-age'
p389
asbag68
(g89
g70
NtRp390
(dp391
g73
(dp392
g100
g101
ssg82
g381
sg75
(lp393
S':'
asbag68
(g89
g70
NtRp394
(dp395
g73
(dp396
sg82
g381
sg75
(lp397
g68
(g69
g70
NtRp398
(dp399
g73
(dp400
g81
I3
ssg82
g394
sg75
(lp401
S''
asbasbasbag68
(g84
g70
NtRp402
(dp403
g73
(dp404
sg82
g293
sg75
(lp405
g68
(g89
g70
NtRp406
(dp407
g73
(dp408
g93
g94
ssg82
g402
sg75
(lp409
S'path'
p410
asbag68
(g89
g70
NtRp411
(dp412
g73
(dp413
g100
g101
ssg82
g402
sg75
(lp414
S':'
asbag68
(g89
g70
NtRp415
(dp416
g73
(dp417
sg82
g402
sg75
(lp418
g68
(g69
g70
NtRp419
(dp420
g73
(dp421
g81
I3
ssg82
g415
sg75
(lp422
S''
asbasbasbag68
(g84
g70
NtRp423
(dp424
g73
(dp425
sg82
g293
sg75
(lp426
g68
(g89
g70
NtRp427
(dp428
g73
(dp429
g93
g94
ssg82
g423
sg75
(lp430
S'secure'
p431
asbag68
(g89
g70
NtRp432
(dp433
g73
(dp434
g100
g101
ssg82
g423
sg75
(lp435
S':'
asbag68
(g89
g70
NtRp436
(dp437
g73
(dp438
sg82
g423
sg75
(lp439
g68
(g69
g70
NtRp440
(dp441
g73
(dp442
g81
I3
ssg82
g436
sg75
(lp443
S''
asbasbasbag68
(g84
g70
NtRp444
(dp445
g73
(dp446
sg82
g293
sg75
(lp447
g68
(g89
g70
NtRp448
(dp449
g73
(dp450
g93
g94
ssg82
g444
sg75
(lp451
S'version'
p452
asbag68
(g89
g70
NtRp453
(dp454
g73
(dp455
g100
g101
ssg82
g444
sg75
(lp456
S':'
asbag68
(g89
g70
NtRp457
(dp458
g73
(dp459
sg82
g444
sg75
(lp460
g68
(g69
g70
NtRp461
(dp462
g73
(dp463
g81
I3
ssg82
g457
sg75
(lp464
S''
asbasbasbasbasbasbasbasbasbasbasbag68
(g84
g70
NtRp465
(dp466
g73
(dp467
sg82
g78
sg75
(lp468
g68
(g89
g70
NtRp469
(dp470
g73
(dp471
g93
g94
ssg82
g465
sg75
(lp472
S'env'
p473
asbag68
(g89
g70
NtRp474
(dp475
g73
(dp476
g100
g101
ssg82
g465
sg75
(lp477
S':'
asbag68
(g89
g70
NtRp478
(dp479
g73
(dp480
sg82
g465
sg75
(lp481
g68
(g69
g70
NtRp482
(dp483
g73
(dp484
g81
I5
ssg82
g478
sg75
(lp485
g68
(g77
g70
NtRp486
(dp487
g73
(dp488
g81
I4
ssg82
Nsg75
(lp489
g68
(g84
g70
NtRp490
(dp491
g73
(dp492
sg82
g486
sg75
(lp493
g68
(g89
g70
NtRp494
(dp495
g73
(dp496
g93
g94
ssg82
g490
sg75
(lp497
S'app_folders'
p498
asbag68
(g89
g70
NtRp499
(dp500
g73
(dp501
g100
g101
ssg82
g490
sg75
(lp502
S':'
asbag68
(g89
g70
NtRp503
(dp504
g73
(dp505
sg82
g490
sg75
(lp506
g68
(g69
g70
NtRp507
(dp508
g73
(dp509
g81
I4
ssg82
g503
sg75
(lp510
S"set(['/home/rsoutelino/web2py/applications/rsoutelino/'])"
p511
asbasbasbag68
(g84
g70
NtRp512
(dp513
g73
(dp514
sg82
g486
sg75
(lp515
g68
(g89
g70
NtRp516
(dp517
g73
(dp518
g93
g94
ssg82
g512
sg75
(lp519
S'applications_parent'
p520
asbag68
(g89
g70
NtRp521
(dp522
g73
(dp523
g100
g101
ssg82
g512
sg75
(lp524
S':'
asbag68
(g89
g70
NtRp525
(dp526
g73
(dp527
sg82
g512
sg75
(lp528
g68
(g69
g70
NtRp529
(dp530
g73
(dp531
g81
I4
ssg82
g525
sg75
(lp532
S'/home/rsoutelino/web2py'
p533
asbasbasbag68
(g84
g70
NtRp534
(dp535
g73
(dp536
sg82
g486
sg75
(lp537
g68
(g89
g70
NtRp538
(dp539
g73
(dp540
g93
g94
ssg82
g534
sg75
(lp541
S'content_length'
p542
asbag68
(g89
g70
NtRp543
(dp544
g73
(dp545
g100
g101
ssg82
g534
sg75
(lp546
S':'
asbag68
(g89
g70
NtRp547
(dp548
g73
(dp549
sg82
g534
sg75
(lp550
g68
(g69
g70
NtRp551
(dp552
g73
(dp553
g81
I4
ssg82
g547
sg75
(lp554
S''
asbasbasbag68
(g84
g70
NtRp555
(dp556
g73
(dp557
sg82
g486
sg75
(lp558
g68
(g89
g70
NtRp559
(dp560
g73
(dp561
g93
g94
ssg82
g555
sg75
(lp562
S'content_type'
p563
asbag68
(g89
g70
NtRp564
(dp565
g73
(dp566
g100
g101
ssg82
g555
sg75
(lp567
S':'
asbag68
(g89
g70
NtRp568
(dp569
g73
(dp570
sg82
g555
sg75
(lp571
g68
(g69
g70
NtRp572
(dp573
g73
(dp574
g81
I4
ssg82
g568
sg75
(lp575
S''
asbasbasbag68
(g84
g70
NtRp576
(dp577
g73
(dp578
sg82
g486
sg75
(lp579
g68
(g89
g70
NtRp580
(dp581
g73
(dp582
g93
g94
ssg82
g576
sg75
(lp583
S'db_sessions'
p584
asbag68
(g89
g70
NtRp585
(dp586
g73
(dp587
g100
g101
ssg82
g576
sg75
(lp588
S':'
asbag68
(g89
g70
NtRp589
(dp590
g73
(dp591
sg82
g576
sg75
(lp592
g68
(g69
g70
NtRp593
(dp594
g73
(dp595
g81
I4
ssg82
g589
sg75
(lp596
S'set([])'
p597
asbasbasbag68
(g84
g70
NtRp598
(dp599
g73
(dp600
sg82
g486
sg75
(lp601
g68
(g89
g70
NtRp602
(dp603
g73
(dp604
g93
g94
ssg82
g598
sg75
(lp605
S'debugging'
p606
asbag68
(g89
g70
NtRp607
(dp608
g73
(dp609
g100
g101
ssg82
g598
sg75
(lp610
S':'
asbag68
(g89
g70
NtRp611
(dp612
g73
(dp613
sg82
g598
sg75
(lp614
g68
(g69
g70
NtRp615
(dp616
g73
(dp617
g81
I4
ssg82
g611
sg75
(lp618
g111
asbasbasbag68
(g84
g70
NtRp619
(dp620
g73
(dp621
sg82
g486
sg75
(lp622
g68
(g89
g70
NtRp623
(dp624
g73
(dp625
g93
g94
ssg82
g619
sg75
(lp626
S'document_root'
p627
asbag68
(g89
g70
NtRp628
(dp629
g73
(dp630
g100
g101
ssg82
g619
sg75
(lp631
S':'
asbag68
(g89
g70
NtRp632
(dp633
g73
(dp634
sg82
g619
sg75
(lp635
g68
(g69
g70
NtRp636
(dp637
g73
(dp638
g81
I4
ssg82
g632
sg75
(lp639
S'/var/log/nginx/user_logs'
p640
asbasbasbag68
(g84
g70
NtRp641
(dp642
g73
(dp643
sg82
g486
sg75
(lp644
g68
(g89
g70
NtRp645
(dp646
g73
(dp647
g93
g94
ssg82
g641
sg75
(lp648
S'gluon_parent'
p649
asbag68
(g89
g70
NtRp650
(dp651
g73
(dp652
g100
g101
ssg82
g641
sg75
(lp653
S':'
asbag68
(g89
g70
NtRp654
(dp655
g73
(dp656
sg82
g641
sg75
(lp657
g68
(g69
g70
NtRp658
(dp659
g73
(dp660
g81
I4
ssg82
g654
sg75
(lp661
g533
asbasbasbag68
(g84
g70
NtRp662
(dp663
g73
(dp664
sg82
g486
sg75
(lp665
g68
(g89
g70
NtRp666
(dp667
g73
(dp668
g93
g94
ssg82
g662
sg75
(lp669
S'http_accept'
p670
asbag68
(g89
g70
NtRp671
(dp672
g73
(dp673
g100
g101
ssg82
g662
sg75
(lp674
S':'
asbag68
(g89
g70
NtRp675
(dp676
g73
(dp677
sg82
g662
sg75
(lp678
g68
(g69
g70
NtRp679
(dp680
g73
(dp681
g81
I4
ssg82
g675
sg75
(lp682
S'text/html,application/xhtml+xml,application/xml;q=0.9,*/*;q=0.8'
p683
asbasbasbag68
(g84
g70
NtRp684
(dp685
g73
(dp686
sg82
g486
sg75
(lp687
g68
(g89
g70
NtRp688
(dp689
g73
(dp690
g93
g94
ssg82
g684
sg75
(lp691
S'http_accept_charset'
p692
asbag68
(g89
g70
NtRp693
(dp694
g73
(dp695
g100
g101
ssg82
g684
sg75
(lp696
S':'
asbag68
(g89
g70
NtRp697
(dp698
g73
(dp699
sg82
g684
sg75
(lp700
g68
(g69
g70
NtRp701
(dp702
g73
(dp703
g81
I4
ssg82
g697
sg75
(lp704
S'ISO-8859-1,utf-8;q=0.7,*;q=0.3'
p705
asbasbasbag68
(g84
g70
NtRp706
(dp707
g73
(dp708
sg82
g486
sg75
(lp709
g68
(g89
g70
NtRp710
(dp711
g73
(dp712
g93
g94
ssg82
g706
sg75
(lp713
S'http_accept_encoding'
p714
asbag68
(g89
g70
NtRp715
(dp716
g73
(dp717
g100
g101
ssg82
g706
sg75
(lp718
S':'
asbag68
(g89
g70
NtRp719
(dp720
g73
(dp721
sg82
g706
sg75
(lp722
g68
(g69
g70
NtRp723
(dp724
g73
(dp725
g81
I4
ssg82
g719
sg75
(lp726
S'gzip,deflate,sdch'
p727
asbasbasbag68
(g84
g70
NtRp728
(dp729
g73
(dp730
sg82
g486
sg75
(lp731
g68
(g89
g70
NtRp732
(dp733
g73
(dp734
g93
g94
ssg82
g728
sg75
(lp735
S'http_accept_language'
p736
asbag68
(g89
g70
NtRp737
(dp738
g73
(dp739
g100
g101
ssg82
g728
sg75
(lp740
S':'
asbag68
(g89
g70
NtRp741
(dp742
g73
(dp743
sg82
g728
sg75
(lp744
g68
(g69
g70
NtRp745
(dp746
g73
(dp747
g81
I4
ssg82
g741
sg75
(lp748
S'en-US,en;q=0.8'
p749
asbasbasbag68
(g84
g70
NtRp750
(dp751
g73
(dp752
sg82
g486
sg75
(lp753
g68
(g89
g70
NtRp754
(dp755
g73
(dp756
g93
g94
ssg82
g750
sg75
(lp757
S'http_connection'
p758
asbag68
(g89
g70
NtRp759
(dp760
g73
(dp761
g100
g101
ssg82
g750
sg75
(lp762
S':'
asbag68
(g89
g70
NtRp763
(dp764
g73
(dp765
sg82
g750
sg75
(lp766
g68
(g69
g70
NtRp767
(dp768
g73
(dp769
g81
I4
ssg82
g763
sg75
(lp770
S'Keep-Alive'
p771
asbasbasbag68
(g84
g70
NtRp772
(dp773
g73
(dp774
sg82
g486
sg75
(lp775
g68
(g89
g70
NtRp776
(dp777
g73
(dp778
g93
g94
ssg82
g772
sg75
(lp779
S'http_cookie'
p780
asbag68
(g89
g70
NtRp781
(dp782
g73
(dp783
g100
g101
ssg82
g772
sg75
(lp784
S':'
asbag68
(g89
g70
NtRp785
(dp786
g73
(dp787
sg82
g772
sg75
(lp788
g68
(g69
g70
NtRp789
(dp790
g73
(dp791
g81
I4
ssg82
g785
sg75
(lp792
S'session_id_rsoutelino=172.30.6.206-83d718b2-a1be-417f-9bcf-31ce56e73085'
p793
asbasbasbag68
(g84
g70
NtRp794
(dp795
g73
(dp796
sg82
g486
sg75
(lp797
g68
(g89
g70
NtRp798
(dp799
g73
(dp800
g93
g94
ssg82
g794
sg75
(lp801
S'http_host'
p802
asbag68
(g89
g70
NtRp803
(dp804
g73
(dp805
g100
g101
ssg82
g794
sg75
(lp806
S':'
asbag68
(g89
g70
NtRp807
(dp808
g73
(dp809
sg82
g794
sg75
(lp810
g68
(g69
g70
NtRp811
(dp812
g73
(dp813
g81
I4
ssg82
g807
sg75
(lp814
S'www.rsoutelino.com'
p815
asbasbasbag68
(g84
g70
NtRp816
(dp817
g73
(dp818
sg82
g486
sg75
(lp819
g68
(g89
g70
NtRp820
(dp821
g73
(dp822
g93
g94
ssg82
g816
sg75
(lp823
S'http_referer'
p824
asbag68
(g89
g70
NtRp825
(dp826
g73
(dp827
g100
g101
ssg82
g816
sg75
(lp828
S':'
asbag68
(g89
g70
NtRp829
(dp830
g73
(dp831
sg82
g816
sg75
(lp832
g68
(g69
g70
NtRp833
(dp834
g73
(dp835
g81
I4
ssg82
g829
sg75
(lp836
S'http://www.rsoutelino.com/rsoutelino/default/index'
p837
asbasbasbag68
(g84
g70
NtRp838
(dp839
g73
(dp840
sg82
g486
sg75
(lp841
g68
(g89
g70
NtRp842
(dp843
g73
(dp844
g93
g94
ssg82
g838
sg75
(lp845
S'http_user_agent'
p846
asbag68
(g89
g70
NtRp847
(dp848
g73
(dp849
g100
g101
ssg82
g838
sg75
(lp850
S':'
asbag68
(g89
g70
NtRp851
(dp852
g73
(dp853
sg82
g838
sg75
(lp854
g68
(g69
g70
NtRp855
(dp856
g73
(dp857
g81
I4
ssg82
g851
sg75
(lp858
S'Mozilla/5.0 (X11; Linux x86_64) AppleWebKit/537.17 (KHTML, like Gecko) Chrome/24.0.1312.57 Safari/537.17'
p859
asbasbasbag68
(g84
g70
NtRp860
(dp861
g73
(dp862
sg82
g486
sg75
(lp863
g68
(g89
g70
NtRp864
(dp865
g73
(dp866
g93
g94
ssg82
g860
sg75
(lp867
S'http_via'
p868
asbag68
(g89
g70
NtRp869
(dp870
g73
(dp871
g100
g101
ssg82
g860
sg75
(lp872
S':'
asbag68
(g89
g70
NtRp873
(dp874
g73
(dp875
sg82
g860
sg75
(lp876
g68
(g69
g70
NtRp877
(dp878
g73
(dp879
g81
I4
ssg82
g873
sg75
(lp880
S'1.1 10.6.32.3 (McAfee Web Gateway 7.2.0.4.0.14188)'
p881
asbasbasbag68
(g84
g70
NtRp882
(dp883
g73
(dp884
sg82
g486
sg75
(lp885
g68
(g89
g70
NtRp886
(dp887
g73
(dp888
g93
g94
ssg82
g882
sg75
(lp889
S'http_x_forwarded_for'
p890
asbag68
(g89
g70
NtRp891
(dp892
g73
(dp893
g100
g101
ssg82
g882
sg75
(lp894
S':'
asbag68
(g89
g70
NtRp895
(dp896
g73
(dp897
sg82
g882
sg75
(lp898
g68
(g69
g70
NtRp899
(dp900
g73
(dp901
g81
I4
ssg82
g895
sg75
(lp902
g223
asbasbasbag68
(g84
g70
NtRp903
(dp904
g73
(dp905
sg82
g486
sg75
(lp906
g68
(g89
g70
NtRp907
(dp908
g73
(dp909
g93
g94
ssg82
g903
sg75
(lp910
S'is_jython'
p911
asbag68
(g89
g70
NtRp912
(dp913
g73
(dp914
g100
g101
ssg82
g903
sg75
(lp915
S':'
asbag68
(g89
g70
NtRp916
(dp917
g73
(dp918
sg82
g903
sg75
(lp919
g68
(g69
g70
NtRp920
(dp921
g73
(dp922
g81
I4
ssg82
g916
sg75
(lp923
g111
asbasbasbag68
(g84
g70
NtRp924
(dp925
g73
(dp926
sg82
g486
sg75
(lp927
g68
(g89
g70
NtRp928
(dp929
g73
(dp930
g93
g94
ssg82
g924
sg75
(lp931
S'is_pypy'
p932
asbag68
(g89
g70
NtRp933
(dp934
g73
(dp935
g100
g101
ssg82
g924
sg75
(lp936
S':'
asbag68
(g89
g70
NtRp937
(dp938
g73
(dp939
sg82
g924
sg75
(lp940
g68
(g69
g70
NtRp941
(dp942
g73
(dp943
g81
I4
ssg82
g937
sg75
(lp944
g111
asbasbasbag68
(g84
g70
NtRp945
(dp946
g73
(dp947
sg82
g486
sg75
(lp948
g68
(g89
g70
NtRp949
(dp950
g73
(dp951
g93
g94
ssg82
g945
sg75
(lp952
S'local_hosts'
p953
asbag68
(g89
g70
NtRp954
(dp955
g73
(dp956
g100
g101
ssg82
g945
sg75
(lp957
S':'
asbag68
(g89
g70
NtRp958
(dp959
g73
(dp960
sg82
g945
sg75
(lp961
g68
(g69
g70
NtRp962
(dp963
g73
(dp964
g81
I4
ssg82
g958
sg75
(lp965
g68
(g77
g70
NtRp966
(dp967
g73
(dp968
g81
I3
ssg82
Nsg75
(lp969
g68
(g84
g70
NtRp970
(dp971
g73
(dp972
sg82
g966
sg75
(lp973
g68
(g89
g70
NtRp974
(dp975
g73
(dp976
sg82
g970
sg75
(lp977
g68
(g69
g70
NtRp978
(dp979
g73
(dp980
g81
I3
ssg82
g974
sg75
(lp981
S'127.0.0.1'
p982
asbasbasbag68
(g84
g70
NtRp983
(dp984
g73
(dp985
sg82
g966
sg75
(lp986
g68
(g89
g70
NtRp987
(dp988
g73
(dp989
sg82
g983
sg75
(lp990
g68
(g69
g70
NtRp991
(dp992
g73
(dp993
g81
I3
ssg82
g987
sg75
(lp994
S'::ffff:127.0.0.1'
p995
asbasbasbag68
(g84
g70
NtRp996
(dp997
g73
(dp998
sg82
g966
sg75
(lp999
g68
(g89
g70
NtRp1000
(dp1001
g73
(dp1002
sg82
g996
sg75
(lp1003
g68
(g69
g70
NtRp1004
(dp1005
g73
(dp1006
g81
I3
ssg82
g1000
sg75
(lp1007
S'hansel-liveweb'
p1008
asbasbasbasbasbasbasbag68
(g84
g70
NtRp1009
(dp1010
g73
(dp1011
sg82
g486
sg75
(lp1012
g68
(g89
g70
NtRp1013
(dp1014
g73
(dp1015
g93
g94
ssg82
g1009
sg75
(lp1016
S'path_info'
p1017
asbag68
(g89
g70
NtRp1018
(dp1019
g73
(dp1020
g100
g101
ssg82
g1009
sg75
(lp1021
S':'
asbag68
(g89
g70
NtRp1022
(dp1023
g73
(dp1024
sg82
g1009
sg75
(lp1025
g68
(g69
g70
NtRp1026
(dp1027
g73
(dp1028
g81
I4
ssg82
g1022
sg75
(lp1029
S'/rsoutelino/contact/contact'
p1030
asbasbasbag68
(g84
g70
NtRp1031
(dp1032
g73
(dp1033
sg82
g486
sg75
(lp1034
g68
(g89
g70
NtRp1035
(dp1036
g73
(dp1037
g93
g94
ssg82
g1031
sg75
(lp1038
S'query_string'
p1039
asbag68
(g89
g70
NtRp1040
(dp1041
g73
(dp1042
g100
g101
ssg82
g1031
sg75
(lp1043
S':'
asbag68
(g89
g70
NtRp1044
(dp1045
g73
(dp1046
sg82
g1031
sg75
(lp1047
g68
(g69
g70
NtRp1048
(dp1049
g73
(dp1050
g81
I4
ssg82
g1044
sg75
(lp1051
S''
asbasbasbag68
(g84
g70
NtRp1052
(dp1053
g73
(dp1054
sg82
g486
sg75
(lp1055
g68
(g89
g70
NtRp1056
(dp1057
g73
(dp1058
g93
g94
ssg82
g1052
sg75
(lp1059
S'remote_addr'
p1060
asbag68
(g89
g70
NtRp1061
(dp1062
g73
(dp1063
g100
g101
ssg82
g1052
sg75
(lp1064
S':'
asbag68
(g89
g70
NtRp1065
(dp1066
g73
(dp1067
sg82
g1052
sg75
(lp1068
g68
(g69
g70
NtRp1069
(dp1070
g73
(dp1071
g81
I4
ssg82
g1065
sg75
(lp1072
S'189.125.114.243'
p1073
asbasbasbag68
(g84
g70
NtRp1074
(dp1075
g73
(dp1076
sg82
g486
sg75
(lp1077
g68
(g89
g70
NtRp1078
(dp1079
g73
(dp1080
g93
g94
ssg82
g1074
sg75
(lp1081
S'remote_port'
p1082
asbag68
(g89
g70
NtRp1083
(dp1084
g73
(dp1085
g100
g101
ssg82
g1074
sg75
(lp1086
S':'
asbag68
(g89
g70
NtRp1087
(dp1088
g73
(dp1089
sg82
g1074
sg75
(lp1090
g68
(g69
g70
NtRp1091
(dp1092
g73
(dp1093
g81
I4
ssg82
g1087
sg75
(lp1094
S'37357'
p1095
asbasbasbag68
(g84
g70
NtRp1096
(dp1097
g73
(dp1098
sg82
g486
sg75
(lp1099
g68
(g89
g70
NtRp1100
(dp1101
g73
(dp1102
g93
g94
ssg82
g1096
sg75
(lp1103
S'request_method'
p1104
asbag68
(g89
g70
NtRp1105
(dp1106
g73
(dp1107
g100
g101
ssg82
g1096
sg75
(lp1108
S':'
asbag68
(g89
g70
NtRp1109
(dp1110
g73
(dp1111
sg82
g1096
sg75
(lp1112
g68
(g69
g70
NtRp1113
(dp1114
g73
(dp1115
g81
I4
ssg82
g1109
sg75
(lp1116
S'GET'
p1117
asbasbasbag68
(g84
g70
NtRp1118
(dp1119
g73
(dp1120
sg82
g486
sg75
(lp1121
g68
(g89
g70
NtRp1122
(dp1123
g73
(dp1124
g93
g94
ssg82
g1118
sg75
(lp1125
S'request_uri'
p1126
asbag68
(g89
g70
NtRp1127
(dp1128
g73
(dp1129
g100
g101
ssg82
g1118
sg75
(lp1130
S':'
asbag68
(g89
g70
NtRp1131
(dp1132
g73
(dp1133
sg82
g1118
sg75
(lp1134
g68
(g69
g70
NtRp1135
(dp1136
g73
(dp1137
g81
I4
ssg82
g1131
sg75
(lp1138
S'/rsoutelino/contact/contact'
p1139
asbasbasbag68
(g84
g70
NtRp1140
(dp1141
g73
(dp1142
sg82
g486
sg75
(lp1143
g68
(g89
g70
NtRp1144
(dp1145
g73
(dp1146
g93
g94
ssg82
g1140
sg75
(lp1147
S'script_name'
p1148
asbag68
(g89
g70
NtRp1149
(dp1150
g73
(dp1151
g100
g101
ssg82
g1140
sg75
(lp1152
S':'
asbag68
(g89
g70
NtRp1153
(dp1154
g73
(dp1155
sg82
g1140
sg75
(lp1156
g68
(g69
g70
NtRp1157
(dp1158
g73
(dp1159
g81
I4
ssg82
g1153
sg75
(lp1160
S''
asbasbasbag68
(g84
g70
NtRp1161
(dp1162
g73
(dp1163
sg82
g486
sg75
(lp1164
g68
(g89
g70
NtRp1165
(dp1166
g73
(dp1167
g93
g94
ssg82
g1161
sg75
(lp1168
S'server_name'
p1169
asbag68
(g89
g70
NtRp1170
(dp1171
g73
(dp1172
g100
g101
ssg82
g1161
sg75
(lp1173
S':'
asbag68
(g89
g70
NtRp1174
(dp1175
g73
(dp1176
sg82
g1161
sg75
(lp1177
g68
(g69
g70
NtRp1178
(dp1179
g73
(dp1180
g81
I4
ssg82
g1174
sg75
(lp1181
S'~(?<domain>.+)$'
p1182
asbasbasbag68
(g84
g70
NtRp1183
(dp1184
g73
(dp1185
sg82
g486
sg75
(lp1186
g68
(g89
g70
NtRp1187
(dp1188
g73
(dp1189
g93
g94
ssg82
g1183
sg75
(lp1190
S'server_port'
p1191
asbag68
(g89
g70
NtRp1192
(dp1193
g73
(dp1194
g100
g101
ssg82
g1183
sg75
(lp1195
S':'
asbag68
(g89
g70
NtRp1196
(dp1197
g73
(dp1198
sg82
g1183
sg75
(lp1199
g68
(g69
g70
NtRp1200
(dp1201
g73
(dp1202
g81
I4
ssg82
g1196
sg75
(lp1203
S'80'
p1204
asbasbasbag68
(g84
g70
NtRp1205
(dp1206
g73
(dp1207
sg82
g486
sg75
(lp1208
g68
(g89
g70
NtRp1209
(dp1210
g73
(dp1211
g93
g94
ssg82
g1205
sg75
(lp1212
S'server_protocol'
p1213
asbag68
(g89
g70
NtRp1214
(dp1215
g73
(dp1216
g100
g101
ssg82
g1205
sg75
(lp1217
S':'
asbag68
(g89
g70
NtRp1218
(dp1219
g73
(dp1220
sg82
g1205
sg75
(lp1221
g68
(g69
g70
NtRp1222
(dp1223
g73
(dp1224
g81
I4
ssg82
g1218
sg75
(lp1225
S'HTTP/1.1'
p1226
asbasbasbag68
(g84
g70
NtRp1227
(dp1228
g73
(dp1229
sg82
g486
sg75
(lp1230
g68
(g89
g70
NtRp1231
(dp1232
g73
(dp1233
g93
g94
ssg82
g1227
sg75
(lp1234
S'uwsgi_node'
p1235
asbag68
(g89
g70
NtRp1236
(dp1237
g73
(dp1238
g100
g101
ssg82
g1227
sg75
(lp1239
S':'
asbag68
(g89
g70
NtRp1240
(dp1241
g73
(dp1242
sg82
g1227
sg75
(lp1243
g68
(g69
g70
NtRp1244
(dp1245
g73
(dp1246
g81
I4
ssg82
g1240
sg75
(lp1247
S'hansel-liveweb'
p1248
asbasbasbag68
(g84
g70
NtRp1249
(dp1250
g73
(dp1251
sg82
g486
sg75
(lp1252
g68
(g89
g70
NtRp1253
(dp1254
g73
(dp1255
g93
g94
ssg82
g1249
sg75
(lp1256
S'uwsgi_version'
p1257
asbag68
(g89
g70
NtRp1258
(dp1259
g73
(dp1260
g100
g101
ssg82
g1249
sg75
(lp1261
S':'
asbag68
(g89
g70
NtRp1262
(dp1263
g73
(dp1264
sg82
g1249
sg75
(lp1265
g68
(g69
g70
NtRp1266
(dp1267
g73
(dp1268
g81
I4
ssg82
g1262
sg75
(lp1269
S'1.4.4'
p1270
asbasbasbag68
(g84
g70
NtRp1271
(dp1272
g73
(dp1273
sg82
g486
sg75
(lp1274
g68
(g89
g70
NtRp1275
(dp1276
g73
(dp1277
g93
g94
ssg82
g1271
sg75
(lp1278
S'web2py_path'
p1279
asbag68
(g89
g70
NtRp1280
(dp1281
g73
(dp1282
g100
g101
ssg82
g1271
sg75
(lp1283
S':'
asbag68
(g89
g70
NtRp1284
(dp1285
g73
(dp1286
sg82
g1271
sg75
(lp1287
g68
(g69
g70
NtRp1288
(dp1289
g73
(dp1290
g81
I4
ssg82
g1284
sg75
(lp1291
g533
asbasbasbag68
(g84
g70
NtRp1292
(dp1293
g73
(dp1294
sg82
g486
sg75
(lp1295
g68
(g89
g70
NtRp1296
(dp1297
g73
(dp1298
g93
g94
ssg82
g1292
sg75
(lp1299
S'web2py_version'
p1300
asbag68
(g89
g70
NtRp1301
(dp1302
g73
(dp1303
g100
g101
ssg82
g1292
sg75
(lp1304
S':'
asbag68
(g89
g70
NtRp1305
(dp1306
g73
(dp1307
sg82
g1292
sg75
(lp1308
g68
(g69
g70
NtRp1309
(dp1310
g73
(dp1311
g81
I4
ssg82
g1305
sg75
(lp1312
g68
(g77
g70
NtRp1313
(dp1314
g73
(dp1315
g81
I3
ssg82
Nsg75
(lp1316
g68
(g84
g70
NtRp1317
(dp1318
g73
(dp1319
sg82
g1313
sg75
(lp1320
g68
(g89
g70
NtRp1321
(dp1322
g73
(dp1323
sg82
g1317
sg75
(lp1324
g68
(g69
g70
NtRp1325
(dp1326
g73
(dp1327
g81
I3
ssg82
g1321
sg75
(lp1328
S'2'
asbasbasbag68
(g84
g70
NtRp1329
(dp1330
g73
(dp1331
sg82
g1313
sg75
(lp1332
g68
(g89
g70
NtRp1333
(dp1334
g73
(dp1335
sg82
g1329
sg75
(lp1336
g68
(g69
g70
NtRp1337
(dp1338
g73
(dp1339
g81
I3
ssg82
g1333
sg75
(lp1340
S'2'
asbasbasbag68
(g84
g70
NtRp1341
(dp1342
g73
(dp1343
sg82
g1313
sg75
(lp1344
g68
(g89
g70
NtRp1345
(dp1346
g73
(dp1347
sg82
g1341
sg75
(lp1348
g68
(g69
g70
NtRp1349
(dp1350
g73
(dp1351
g81
I3
ssg82
g1345
sg75
(lp1352
S'1'
asbasbasbag68
(g84
g70
NtRp1353
(dp1354
g73
(dp1355
sg82
g1313
sg75
(lp1356
g68
(g89
g70
NtRp1357
(dp1358
g73
(dp1359
sg82
g1353
sg75
(lp1360
g68
(g69
g70
NtRp1361
(dp1362
g73
(dp1363
g81
I3
ssg82
g1357
sg75
(lp1364
S'datetime.datetime(2012, 10, 21, 16, 57, 4)'
p1365
asbasbasbag68
(g84
g70
NtRp1366
(dp1367
g73
(dp1368
sg82
g1313
sg75
(lp1369
g68
(g89
g70
NtRp1370
(dp1371
g73
(dp1372
sg82
g1366
sg75
(lp1373
g68
(g69
g70
NtRp1374
(dp1375
g73
(dp1376
g81
I3
ssg82
g1370
sg75
(lp1377
S'stable'
p1378
asbasbasbasbasbasbasbag68
(g84
g70
NtRp1379
(dp1380
g73
(dp1381
sg82
g486
sg75
(lp1382
g68
(g89
g70
NtRp1383
(dp1384
g73
(dp1385
g93
g94
ssg82
g1379
sg75
(lp1386
S'wsgi_errors'
p1387
asbag68
(g89
g70
NtRp1388
(dp1389
g73
(dp1390
g100
g101
ssg82
g1379
sg75
(lp1391
S':'
asbag68
(g89
g70
NtRp1392
(dp1393
g73
(dp1394
sg82
g1379
sg75
(lp1395
g68
(g69
g70
NtRp1396
(dp1397
g73
(dp1398
g81
I4
ssg82
g1392
sg75
(lp1399
S'<uwsgi_file__bin_user_wsgi_wrapper.ErrorLogWrapper object at 0x2970ed0>'
p1400
asbasbasbag68
(g84
g70
NtRp1401
(dp1402
g73
(dp1403
sg82
g486
sg75
(lp1404
g68
(g89
g70
NtRp1405
(dp1406
g73
(dp1407
g93
g94
ssg82
g1401
sg75
(lp1408
S'wsgi_file_wrapper'
p1409
asbag68
(g89
g70
NtRp1410
(dp1411
g73
(dp1412
g100
g101
ssg82
g1401
sg75
(lp1413
S':'
asbag68
(g89
g70
NtRp1414
(dp1415
g73
(dp1416
sg82
g1401
sg75
(lp1417
g68
(g69
g70
NtRp1418
(dp1419
g73
(dp1420
g81
I4
ssg82
g1414
sg75
(lp1421
S'<built-in function uwsgi_sendfile>'
p1422
asbasbasbag68
(g84
g70
NtRp1423
(dp1424
g73
(dp1425
sg82
g486
sg75
(lp1426
g68
(g89
g70
NtRp1427
(dp1428
g73
(dp1429
g93
g94
ssg82
g1423
sg75
(lp1430
S'wsgi_input'
p1431
asbag68
(g89
g70
NtRp1432
(dp1433
g73
(dp1434
g100
g101
ssg82
g1423
sg75
(lp1435
S':'
asbag68
(g89
g70
NtRp1436
(dp1437
g73
(dp1438
sg82
g1423
sg75
(lp1439
g68
(g69
g70
NtRp1440
(dp1441
g73
(dp1442
g81
I4
ssg82
g1436
sg75
(lp1443
S'<uwsgi._Input object at 0x2c99770>'
p1444
asbasbasbag68
(g84
g70
NtRp1445
(dp1446
g73
(dp1447
sg82
g486
sg75
(lp1448
g68
(g89
g70
NtRp1449
(dp1450
g73
(dp1451
g93
g94
ssg82
g1445
sg75
(lp1452
S'wsgi_multiprocess'
p1453
asbag68
(g89
g70
NtRp1454
(dp1455
g73
(dp1456
g100
g101
ssg82
g1445
sg75
(lp1457
S':'
asbag68
(g89
g70
NtRp1458
(dp1459
g73
(dp1460
sg82
g1445
sg75
(lp1461
g68
(g69
g70
NtRp1462
(dp1463
g73
(dp1464
g81
I4
ssg82
g1458
sg75
(lp1465
g111
asbasbasbag68
(g84
g70
NtRp1466
(dp1467
g73
(dp1468
sg82
g486
sg75
(lp1469
g68
(g89
g70
NtRp1470
(dp1471
g73
(dp1472
g93
g94
ssg82
g1466
sg75
(lp1473
S'wsgi_multithread'
p1474
asbag68
(g89
g70
NtRp1475
(dp1476
g73
(dp1477
g100
g101
ssg82
g1466
sg75
(lp1478
S':'
asbag68
(g89
g70
NtRp1479
(dp1480
g73
(dp1481
sg82
g1466
sg75
(lp1482
g68
(g69
g70
NtRp1483
(dp1484
g73
(dp1485
g81
I4
ssg82
g1479
sg75
(lp1486
g111
asbasbasbag68
(g84
g70
NtRp1487
(dp1488
g73
(dp1489
sg82
g486
sg75
(lp1490
g68
(g89
g70
NtRp1491
(dp1492
g73
(dp1493
g93
g94
ssg82
g1487
sg75
(lp1494
S'wsgi_run_once'
p1495
asbag68
(g89
g70
NtRp1496
(dp1497
g73
(dp1498
g100
g101
ssg82
g1487
sg75
(lp1499
S':'
asbag68
(g89
g70
NtRp1500
(dp1501
g73
(dp1502
sg82
g1487
sg75
(lp1503
g68
(g69
g70
NtRp1504
(dp1505
g73
(dp1506
g81
I4
ssg82
g1500
sg75
(lp1507
g111
asbasbasbag68
(g84
g70
NtRp1508
(dp1509
g73
(dp1510
sg82
g486
sg75
(lp1511
g68
(g89
g70
NtRp1512
(dp1513
g73
(dp1514
g93
g94
ssg82
g1508
sg75
(lp1515
S'wsgi_url_scheme'
p1516
asbag68
(g89
g70
NtRp1517
(dp1518
g73
(dp1519
g100
g101
ssg82
g1508
sg75
(lp1520
S':'
asbag68
(g89
g70
NtRp1521
(dp1522
g73
(dp1523
sg82
g1508
sg75
(lp1524
g68
(g69
g70
NtRp1525
(dp1526
g73
(dp1527
g81
I4
ssg82
g1521
sg75
(lp1528
S'http'
p1529
asbasbasbag68
(g84
g70
NtRp1530
(dp1531
g73
(dp1532
sg82
g486
sg75
(lp1533
g68
(g89
g70
NtRp1534
(dp1535
g73
(dp1536
g93
g94
ssg82
g1530
sg75
(lp1537
S'wsgi_version'
p1538
asbag68
(g89
g70
NtRp1539
(dp1540
g73
(dp1541
g100
g101
ssg82
g1530
sg75
(lp1542
S':'
asbag68
(g89
g70
NtRp1543
(dp1544
g73
(dp1545
sg82
g1530
sg75
(lp1546
g68
(g69
g70
NtRp1547
(dp1548
g73
(dp1549
g81
I4
ssg82
g1543
sg75
(lp1550
g68
(g77
g70
NtRp1551
(dp1552
g73
(dp1553
g81
I3
ssg82
Nsg75
(lp1554
g68
(g84
g70
NtRp1555
(dp1556
g73
(dp1557
sg82
g1551
sg75
(lp1558
g68
(g89
g70
NtRp1559
(dp1560
g73
(dp1561
sg82
g1555
sg75
(lp1562
g68
(g69
g70
NtRp1563
(dp1564
g73
(dp1565
g81
I3
ssg82
g1559
sg75
(lp1566
S'1'
asbasbasbag68
(g84
g70
NtRp1567
(dp1568
g73
(dp1569
sg82
g1551
sg75
(lp1570
g68
(g89
g70
NtRp1571
(dp1572
g73
(dp1573
sg82
g1567
sg75
(lp1574
g68
(g69
g70
NtRp1575
(dp1576
g73
(dp1577
g81
I3
ssg82
g1571
sg75
(lp1578
S'0'
asbasbasbasbasbasbasbasbasbasbasbag68
(g84
g70
NtRp1579
(dp1580
g73
(dp1581
sg82
g78
sg75
(lp1582
g68
(g89
g70
NtRp1583
(dp1584
g73
(dp1585
g93
g94
ssg82
g1579
sg75
(lp1586
S'extension'
p1587
asbag68
(g89
g70
NtRp1588
(dp1589
g73
(dp1590
g100
g101
ssg82
g1579
sg75
(lp1591
S':'
asbag68
(g89
g70
NtRp1592
(dp1593
g73
(dp1594
sg82
g1579
sg75
(lp1595
g68
(g69
g70
NtRp1596
(dp1597
g73
(dp1598
g81
I5
ssg82
g1592
sg75
(lp1599
S'html'
p1600
asbasbasbag68
(g84
g70
NtRp1601
(dp1602
g73
(dp1603
sg82
g78
sg75
(lp1604
g68
(g89
g70
NtRp1605
(dp1606
g73
(dp1607
g93
g94
ssg82
g1601
sg75
(lp1608
S'folder'
p1609
asbag68
(g89
g70
NtRp1610
(dp1611
g73
(dp1612
g100
g101
ssg82
g1601
sg75
(lp1613
S':'
asbag68
(g89
g70
NtRp1614
(dp1615
g73
(dp1616
sg82
g1601
sg75
(lp1617
g68
(g69
g70
NtRp1618
(dp1619
g73
(dp1620
g81
I5
ssg82
g1614
sg75
(lp1621
S'/home/rsoutelino/web2py/applications/rsoutelino/'
p1622
asbasbasbag68
(g84
g70
NtRp1623
(dp1624
g73
(dp1625
sg82
g78
sg75
(lp1626
g68
(g89
g70
NtRp1627
(dp1628
g73
(dp1629
g93
g94
ssg82
g1623
sg75
(lp1630
S'function'
p1631
asbag68
(g89
g70
NtRp1632
(dp1633
g73
(dp1634
g100
g101
ssg82
g1623
sg75
(lp1635
S':'
asbag68
(g89
g70
NtRp1636
(dp1637
g73
(dp1638
sg82
g1623
sg75
(lp1639
g68
(g69
g70
NtRp1640
(dp1641
g73
(dp1642
g81
I5
ssg82
g1636
sg75
(lp1643
S'contact'
p1644
asbasbasbag68
(g84
g70
NtRp1645
(dp1646
g73
(dp1647
sg82
g78
sg75
(lp1648
g68
(g89
g70
NtRp1649
(dp1650
g73
(dp1651
g93
g94
ssg82
g1645
sg75
(lp1652
S'get_vars'
p1653
asbag68
(g89
g70
NtRp1654
(dp1655
g73
(dp1656
g100
g101
ssg82
g1645
sg75
(lp1657
S':'
asbag68
(g89
g70
NtRp1658
(dp1659
g73
(dp1660
sg82
g1645
sg75
(lp1661
g68
(g69
g70
NtRp1662
(dp1663
g73
(dp1664
g81
I5
ssg82
g1658
sg75
(lp1665
g68
(g77
g70
NtRp1666
(dp1667
g73
(dp1668
g81
I4
ssg82
Nsg75
(lp1669
sbasbasbasbag68
(g84
g70
NtRp1670
(dp1671
g73
(dp1672
sg82
g78
sg75
(lp1673
g68
(g89
g70
NtRp1674
(dp1675
g73
(dp1676
g93
g94
ssg82
g1670
sg75
(lp1677
S'global_settings'
p1678
asbag68
(g89
g70
NtRp1679
(dp1680
g73
(dp1681
g100
g101
ssg82
g1670
sg75
(lp1682
S':'
asbag68
(g89
g70
NtRp1683
(dp1684
g73
(dp1685
sg82
g1670
sg75
(lp1686
g68
(g69
g70
NtRp1687
(dp1688
g73
(dp1689
g81
I5
ssg82
g1683
sg75
(lp1690
g68
(g77
g70
NtRp1691
(dp1692
g73
(dp1693
g81
I4
ssg82
Nsg75
(lp1694
g68
(g84
g70
NtRp1695
(dp1696
g73
(dp1697
sg82
g1691
sg75
(lp1698
g68
(g89
g70
NtRp1699
(dp1700
g73
(dp1701
g93
g94
ssg82
g1695
sg75
(lp1702
g498
asbag68
(g89
g70
NtRp1703
(dp1704
g73
(dp1705
g100
g101
ssg82
g1695
sg75
(lp1706
S':'
asbag68
(g89
g70
NtRp1707
(dp1708
g73
(dp1709
sg82
g1695
sg75
(lp1710
g68
(g69
g70
NtRp1711
(dp1712
g73
(dp1713
g81
I4
ssg82
g1707
sg75
(lp1714
S"set(['/home/rsoutelino/web2py/applications/rsoutelino/'])"
p1715
asbasbasbag68
(g84
g70
NtRp1716
(dp1717
g73
(dp1718
sg82
g1691
sg75
(lp1719
g68
(g89
g70
NtRp1720
(dp1721
g73
(dp1722
g93
g94
ssg82
g1716
sg75
(lp1723
g520
asbag68
(g89
g70
NtRp1724
(dp1725
g73
(dp1726
g100
g101
ssg82
g1716
sg75
(lp1727
S':'
asbag68
(g89
g70
NtRp1728
(dp1729
g73
(dp1730
sg82
g1716
sg75
(lp1731
g68
(g69
g70
NtRp1732
(dp1733
g73
(dp1734
g81
I4
ssg82
g1728
sg75
(lp1735
g533
asbasbasbag68
(g84
g70
NtRp1736
(dp1737
g73
(dp1738
sg82
g1691
sg75
(lp1739
g68
(g89
g70
NtRp1740
(dp1741
g73
(dp1742
g93
g94
ssg82
g1736
sg75
(lp1743
g584
asbag68
(g89
g70
NtRp1744
(dp1745
g73
(dp1746
g100
g101
ssg82
g1736
sg75
(lp1747
S':'
asbag68
(g89
g70
NtRp1748
(dp1749
g73
(dp1750
sg82
g1736
sg75
(lp1751
g68
(g69
g70
NtRp1752
(dp1753
g73
(dp1754
g81
I4
ssg82
g1748
sg75
(lp1755
S'set([])'
p1756
asbasbasbag68
(g84
g70
NtRp1757
(dp1758
g73
(dp1759
sg82
g1691
sg75
(lp1760
g68
(g89
g70
NtRp1761
(dp1762
g73
(dp1763
g93
g94
ssg82
g1757
sg75
(lp1764
g606
asbag68
(g89
g70
NtRp1765
(dp1766
g73
(dp1767
g100
g101
ssg82
g1757
sg75
(lp1768
S':'
asbag68
(g89
g70
NtRp1769
(dp1770
g73
(dp1771
sg82
g1757
sg75
(lp1772
g68
(g69
g70
NtRp1773
(dp1774
g73
(dp1775
g81
I4
ssg82
g1769
sg75
(lp1776
g111
asbasbasbag68
(g84
g70
NtRp1777
(dp1778
g73
(dp1779
sg82
g1691
sg75
(lp1780
g68
(g89
g70
NtRp1781
(dp1782
g73
(dp1783
g93
g94
ssg82
g1777
sg75
(lp1784
g649
asbag68
(g89
g70
NtRp1785
(dp1786
g73
(dp1787
g100
g101
ssg82
g1777
sg75
(lp1788
S':'
asbag68
(g89
g70
NtRp1789
(dp1790
g73
(dp1791
sg82
g1777
sg75
(lp1792
g68
(g69
g70
NtRp1793
(dp1794
g73
(dp1795
g81
I4
ssg82
g1789
sg75
(lp1796
g533
asbasbasbag68
(g84
g70
NtRp1797
(dp1798
g73
(dp1799
sg82
g1691
sg75
(lp1800
g68
(g89
g70
NtRp1801
(dp1802
g73
(dp1803
g93
g94
ssg82
g1797
sg75
(lp1804
g911
asbag68
(g89
g70
NtRp1805
(dp1806
g73
(dp1807
g100
g101
ssg82
g1797
sg75
(lp1808
S':'
asbag68
(g89
g70
NtRp1809
(dp1810
g73
(dp1811
sg82
g1797
sg75
(lp1812
g68
(g69
g70
NtRp1813
(dp1814
g73
(dp1815
g81
I4
ssg82
g1809
sg75
(lp1816
g111
asbasbasbag68
(g84
g70
NtRp1817
(dp1818
g73
(dp1819
sg82
g1691
sg75
(lp1820
g68
(g89
g70
NtRp1821
(dp1822
g73
(dp1823
g93
g94
ssg82
g1817
sg75
(lp1824
g932
asbag68
(g89
g70
NtRp1825
(dp1826
g73
(dp1827
g100
g101
ssg82
g1817
sg75
(lp1828
S':'
asbag68
(g89
g70
NtRp1829
(dp1830
g73
(dp1831
sg82
g1817
sg75
(lp1832
g68
(g69
g70
NtRp1833
(dp1834
g73
(dp1835
g81
I4
ssg82
g1829
sg75
(lp1836
g111
asbasbasbag68
(g84
g70
NtRp1837
(dp1838
g73
(dp1839
sg82
g1691
sg75
(lp1840
g68
(g89
g70
NtRp1841
(dp1842
g73
(dp1843
g93
g94
ssg82
g1837
sg75
(lp1844
g953
asbag68
(g89
g70
NtRp1845
(dp1846
g73
(dp1847
g100
g101
ssg82
g1837
sg75
(lp1848
S':'
asbag68
(g89
g70
NtRp1849
(dp1850
g73
(dp1851
sg82
g1837
sg75
(lp1852
g68
(g69
g70
NtRp1853
(dp1854
g73
(dp1855
g81
I4
ssg82
g1849
sg75
(lp1856
g68
(g77
g70
NtRp1857
(dp1858
g73
(dp1859
g81
I3
ssg82
Nsg75
(lp1860
g68
(g84
g70
NtRp1861
(dp1862
g73
(dp1863
sg82
g1857
sg75
(lp1864
g68
(g89
g70
NtRp1865
(dp1866
g73
(dp1867
sg82
g1861
sg75
(lp1868
g68
(g69
g70
NtRp1869
(dp1870
g73
(dp1871
g81
I3
ssg82
g1865
sg75
(lp1872
g982
asbasbasbag68
(g84
g70
NtRp1873
(dp1874
g73
(dp1875
sg82
g1857
sg75
(lp1876
g68
(g89
g70
NtRp1877
(dp1878
g73
(dp1879
sg82
g1873
sg75
(lp1880
g68
(g69
g70
NtRp1881
(dp1882
g73
(dp1883
g81
I3
ssg82
g1877
sg75
(lp1884
g995
asbasbasbag68
(g84
g70
NtRp1885
(dp1886
g73
(dp1887
sg82
g1857
sg75
(lp1888
g68
(g89
g70
NtRp1889
(dp1890
g73
(dp1891
sg82
g1885
sg75
(lp1892
g68
(g69
g70
NtRp1893
(dp1894
g73
(dp1895
g81
I3
ssg82
g1889
sg75
(lp1896
g1008
asbasbasbasbasbasbasbag68
(g84
g70
NtRp1897
(dp1898
g73
(dp1899
sg82
g1691
sg75
(lp1900
g68
(g89
g70
NtRp1901
(dp1902
g73
(dp1903
g93
g94
ssg82
g1897
sg75
(lp1904
g1300
asbag68
(g89
g70
NtRp1905
(dp1906
g73
(dp1907
g100
g101
ssg82
g1897
sg75
(lp1908
S':'
asbag68
(g89
g70
NtRp1909
(dp1910
g73
(dp1911
sg82
g1897
sg75
(lp1912
g68
(g69
g70
NtRp1913
(dp1914
g73
(dp1915
g81
I4
ssg82
g1909
sg75
(lp1916
g68
(g77
g70
NtRp1917
(dp1918
g73
(dp1919
g81
I3
ssg82
Nsg75
(lp1920
g68
(g84
g70
NtRp1921
(dp1922
g73
(dp1923
sg82
g1917
sg75
(lp1924
g68
(g89
g70
NtRp1925
(dp1926
g73
(dp1927
sg82
g1921
sg75
(lp1928
g68
(g69
g70
NtRp1929
(dp1930
g73
(dp1931
g81
I3
ssg82
g1925
sg75
(lp1932
S'2'
asbasbasbag68
(g84
g70
NtRp1933
(dp1934
g73
(dp1935
sg82
g1917
sg75
(lp1936
g68
(g89
g70
NtRp1937
(dp1938
g73
(dp1939
sg82
g1933
sg75
(lp1940
g68
(g69
g70
NtRp1941
(dp1942
g73
(dp1943
g81
I3
ssg82
g1937
sg75
(lp1944
S'2'
asbasbasbag68
(g84
g70
NtRp1945
(dp1946
g73
(dp1947
sg82
g1917
sg75
(lp1948
g68
(g89
g70
NtRp1949
(dp1950
g73
(dp1951
sg82
g1945
sg75
(lp1952
g68
(g69
g70
NtRp1953
(dp1954
g73
(dp1955
g81
I3
ssg82
g1949
sg75
(lp1956
S'1'
asbasbasbag68
(g84
g70
NtRp1957
(dp1958
g73
(dp1959
sg82
g1917
sg75
(lp1960
g68
(g89
g70
NtRp1961
(dp1962
g73
(dp1963
sg82
g1957
sg75
(lp1964
g68
(g69
g70
NtRp1965
(dp1966
g73
(dp1967
g81
I3
ssg82
g1961
sg75
(lp1968
S'datetime.datetime(2012, 10, 21, 16, 57, 4)'
p1969
asbasbasbag68
(g84
g70
NtRp1970
(dp1971
g73
(dp1972
sg82
g1917
sg75
(lp1973
g68
(g89
g70
NtRp1974
(dp1975
g73
(dp1976
sg82
g1970
sg75
(lp1977
g68
(g69
g70
NtRp1978
(dp1979
g73
(dp1980
g81
I3
ssg82
g1974
sg75
(lp1981
g1378
asbasbasbasbasbasbasbasbasbasbasbag68
(g84
g70
NtRp1982
(dp1983
g73
(dp1984
sg82
g78
sg75
(lp1985
g68
(g89
g70
NtRp1986
(dp1987
g73
(dp1988
g93
g94
ssg82
g1982
sg75
(lp1989
S'is_https'
p1990
asbag68
(g89
g70
NtRp1991
(dp1992
g73
(dp1993
g100
g101
ssg82
g1982
sg75
(lp1994
S':'
asbag68
(g89
g70
NtRp1995
(dp1996
g73
(dp1997
sg82
g1982
sg75
(lp1998
g68
(g69
g70
NtRp1999
(dp2000
g73
(dp2001
g81
I5
ssg82
g1995
sg75
(lp2002
g111
asbasbasbag68
(g84
g70
NtRp2003
(dp2004
g73
(dp2005
sg82
g78
sg75
(lp2006
g68
(g89
g70
NtRp2007
(dp2008
g73
(dp2009
g93
g94
ssg82
g2003
sg75
(lp2010
S'is_local'
p2011
asbag68
(g89
g70
NtRp2012
(dp2013
g73
(dp2014
g100
g101
ssg82
g2003
sg75
(lp2015
S':'
asbag68
(g89
g70
NtRp2016
(dp2017
g73
(dp2018
sg82
g2003
sg75
(lp2019
g68
(g69
g70
NtRp2020
(dp2021
g73
(dp2022
g81
I5
ssg82
g2016
sg75
(lp2023
g111
asbasbasbag68
(g84
g70
NtRp2024
(dp2025
g73
(dp2026
sg82
g78
sg75
(lp2027
g68
(g89
g70
NtRp2028
(dp2029
g73
(dp2030
g93
g94
ssg82
g2024
sg75
(lp2031
S'is_restful'
p2032
asbag68
(g89
g70
NtRp2033
(dp2034
g73
(dp2035
g100
g101
ssg82
g2024
sg75
(lp2036
S':'
asbag68
(g89
g70
NtRp2037
(dp2038
g73
(dp2039
sg82
g2024
sg75
(lp2040
g68
(g69
g70
NtRp2041
(dp2042
g73
(dp2043
g81
I5
ssg82
g2037
sg75
(lp2044
g111
asbasbasbag68
(g84
g70
NtRp2045
(dp2046
g73
(dp2047
sg82
g78
sg75
(lp2048
g68
(g89
g70
NtRp2049
(dp2050
g73
(dp2051
g93
g94
ssg82
g2045
sg75
(lp2052
S'now'
p2053
asbag68
(g89
g70
NtRp2054
(dp2055
g73
(dp2056
g100
g101
ssg82
g2045
sg75
(lp2057
S':'
asbag68
(g89
g70
NtRp2058
(dp2059
g73
(dp2060
sg82
g2045
sg75
(lp2061
g68
(g69
g70
NtRp2062
(dp2063
g73
(dp2064
g81
I5
ssg82
g2058
sg75
(lp2065
S'datetime.datetime(2013, 2, 7, 12, 5, 5, 825071)'
p2066
asbasbasbag68
(g84
g70
NtRp2067
(dp2068
g73
(dp2069
sg82
g78
sg75
(lp2070
g68
(g89
g70
NtRp2071
(dp2072
g73
(dp2073
g93
g94
ssg82
g2067
sg75
(lp2074
S'post_vars'
p2075
asbag68
(g89
g70
NtRp2076
(dp2077
g73
(dp2078
g100
g101
ssg82
g2067
sg75
(lp2079
S':'
asbag68
(g89
g70
NtRp2080
(dp2081
g73
(dp2082
sg82
g2067
sg75
(lp2083
g68
(g69
g70
NtRp2084
(dp2085
g73
(dp2086
g81
I5
ssg82
g2080
sg75
(lp2087
g68
(g77
g70
NtRp2088
(dp2089
g73
(dp2090
g81
I4
ssg82
Nsg75
(lp2091
sbasbasbasbag68
(g84
g70
NtRp2092
(dp2093
g73
(dp2094
sg82
g78
sg75
(lp2095
g68
(g89
g70
NtRp2096
(dp2097
g73
(dp2098
g93
g94
ssg82
g2092
sg75
(lp2099
S'raw_args'
p2100
asbag68
(g89
g70
NtRp2101
(dp2102
g73
(dp2103
g100
g101
ssg82
g2092
sg75
(lp2104
S':'
asbag68
(g89
g70
NtRp2105
(dp2106
g73
(dp2107
sg82
g2092
sg75
(lp2108
g68
(g69
g70
NtRp2109
(dp2110
g73
(dp2111
g81
I5
ssg82
g2105
sg75
(lp2112
S''
asbasbasbag68
(g84
g70
NtRp2113
(dp2114
g73
(dp2115
sg82
g78
sg75
(lp2116
g68
(g89
g70
NtRp2117
(dp2118
g73
(dp2119
g93
g94
ssg82
g2113
sg75
(lp2120
S'raw_extension'
p2121
asbag68
(g89
g70
NtRp2122
(dp2123
g73
(dp2124
g100
g101
ssg82
g2113
sg75
(lp2125
S':'
asbag68
(g89
g70
NtRp2126
(dp2127
g73
(dp2128
sg82
g2113
sg75
(lp2129
g68
(g69
g70
NtRp2130
(dp2131
g73
(dp2132
g81
I5
ssg82
g2126
sg75
(lp2133
S'None'
p2134
asbasbasbag68
(g84
g70
NtRp2135
(dp2136
g73
(dp2137
sg82
g78
sg75
(lp2138
g68
(g89
g70
NtRp2139
(dp2140
g73
(dp2141
g93
g94
ssg82
g2135
sg75
(lp2142
S'url'
p2143
asbag68
(g89
g70
NtRp2144
(dp2145
g73
(dp2146
g100
g101
ssg82
g2135
sg75
(lp2147
S':'
asbag68
(g89
g70
NtRp2148
(dp2149
g73
(dp2150
sg82
g2135
sg75
(lp2151
g68
(g69
g70
NtRp2152
(dp2153
g73
(dp2154
g81
I5
ssg82
g2148
sg75
(lp2155
g1030
asbasbasbag68
(g84
g70
NtRp2156
(dp2157
g73
(dp2158
sg82
g78
sg75
(lp2159
g68
(g89
g70
NtRp2160
(dp2161
g73
(dp2162
g93
g94
ssg82
g2156
sg75
(lp2163
S'utcnow'
p2164
asbag68
(g89
g70
NtRp2165
(dp2166
g73
(dp2167
g100
g101
ssg82
g2156
sg75
(lp2168
S':'
asbag68
(g89
g70
NtRp2169
(dp2170
g73
(dp2171
sg82
g2156
sg75
(lp2172
g68
(g69
g70
NtRp2173
(dp2174
g73
(dp2175
g81
I5
ssg82
g2169
sg75
(lp2176
S'datetime.datetime(2013, 2, 7, 12, 5, 5, 825101)'
p2177
asbasbasbag68
(g84
g70
NtRp2178
(dp2179
g73
(dp2180
sg82
g78
sg75
(lp2181
g68
(g89
g70
NtRp2182
(dp2183
g73
(dp2184
g93
g94
ssg82
g2178
sg75
(lp2185
S'uuid'
p2186
asbag68
(g89
g70
NtRp2187
(dp2188
g73
(dp2189
g100
g101
ssg82
g2178
sg75
(lp2190
S':'
asbag68
(g89
g70
NtRp2191
(dp2192
g73
(dp2193
sg82
g2178
sg75
(lp2194
g68
(g69
g70
NtRp2195
(dp2196
g73
(dp2197
g81
I5
ssg82
g2191
sg75
(lp2198
S'rsoutelino/172.30.6.206.2013-02-07.12-05-05.61fb3056-ed74-49f3-9d7f-9453fff7dc46'
p2199
asbasbasbag68
(g84
g70
NtRp2200
(dp2201
g73
(dp2202
sg82
g78
sg75
(lp2203
g68
(g89
g70
NtRp2204
(dp2205
g73
(dp2206
g93
g94
ssg82
g2200
sg75
(lp2207
S'vars'
p2208
asbag68
(g89
g70
NtRp2209
(dp2210
g73
(dp2211
g100
g101
ssg82
g2200
sg75
(lp2212
S':'
asbag68
(g89
g70
NtRp2213
(dp2214
g73
(dp2215
sg82
g2200
sg75
(lp2216
g68
(g69
g70
NtRp2217
(dp2218
g73
(dp2219
g81
I5
ssg82
g2213
sg75
(lp2220
g68
(g77
g70
NtRp2221
(dp2222
g73
(dp2223
g81
I4
ssg82
Nsg75
(lp2224
sbasbasbasbag68
(g84
g70
NtRp2225
(dp2226
g73
(dp2227
sg82
g78
sg75
(lp2228
g68
(g89
g70
NtRp2229
(dp2230
g73
(dp2231
g93
g94
ssg82
g2225
sg75
(lp2232
S'wsgi'
p2233
asbag68
(g89
g70
NtRp2234
(dp2235
g73
(dp2236
g100
g101
ssg82
g2225
sg75
(lp2237
S':'
asbag68
(g89
g70
NtRp2238
(dp2239
g73
(dp2240
sg82
g2225
sg75
(lp2241
g68
(g69
g70
NtRp2242
(dp2243
g73
(dp2244
g81
I5
ssg82
g2238
sg75
(lp2245
g68
(g77
g70
NtRp2246
(dp2247
g73
(dp2248
g81
I4
ssg82
Nsg75
(lp2249
g68
(g84
g70
NtRp2250
(dp2251
g73
(dp2252
sg82
g2246
sg75
(lp2253
g68
(g89
g70
NtRp2254
(dp2255
g73
(dp2256
g93
g94
ssg82
g2250
sg75
(lp2257
S'environ'
p2258
asbag68
(g89
g70
NtRp2259
(dp2260
g73
(dp2261
g100
g101
ssg82
g2250
sg75
(lp2262
S':'
asbag68
(g89
g70
NtRp2263
(dp2264
g73
(dp2265
sg82
g2250
sg75
(lp2266
g68
(g69
g70
NtRp2267
(dp2268
g73
(dp2269
g81
I4
ssg82
g2263
sg75
(lp2270
g68
(g77
g70
NtRp2271
(dp2272
g73
(dp2273
g81
I3
ssg82
Nsg75
(lp2274
g68
(g84
g70
NtRp2275
(dp2276
g73
(dp2277
sg82
g2271
sg75
(lp2278
g68
(g89
g70
NtRp2279
(dp2280
g73
(dp2281
g93
g94
ssg82
g2275
sg75
(lp2282
S'CONTENT_LENGTH'
p2283
asbag68
(g89
g70
NtRp2284
(dp2285
g73
(dp2286
g100
g101
ssg82
g2275
sg75
(lp2287
S':'
asbag68
(g89
g70
NtRp2288
(dp2289
g73
(dp2290
sg82
g2275
sg75
(lp2291
g68
(g69
g70
NtRp2292
(dp2293
g73
(dp2294
g81
I3
ssg82
g2288
sg75
(lp2295
S''
asbasbasbag68
(g84
g70
NtRp2296
(dp2297
g73
(dp2298
sg82
g2271
sg75
(lp2299
g68
(g89
g70
NtRp2300
(dp2301
g73
(dp2302
g93
g94
ssg82
g2296
sg75
(lp2303
S'CONTENT_TYPE'
p2304
asbag68
(g89
g70
NtRp2305
(dp2306
g73
(dp2307
g100
g101
ssg82
g2296
sg75
(lp2308
S':'
asbag68
(g89
g70
NtRp2309
(dp2310
g73
(dp2311
sg82
g2296
sg75
(lp2312
g68
(g69
g70
NtRp2313
(dp2314
g73
(dp2315
g81
I3
ssg82
g2309
sg75
(lp2316
S''
asbasbasbag68
(g84
g70
NtRp2317
(dp2318
g73
(dp2319
sg82
g2271
sg75
(lp2320
g68
(g89
g70
NtRp2321
(dp2322
g73
(dp2323
g93
g94
ssg82
g2317
sg75
(lp2324
S'DOCUMENT_ROOT'
p2325
asbag68
(g89
g70
NtRp2326
(dp2327
g73
(dp2328
g100
g101
ssg82
g2317
sg75
(lp2329
S':'
asbag68
(g89
g70
NtRp2330
(dp2331
g73
(dp2332
sg82
g2317
sg75
(lp2333
g68
(g69
g70
NtRp2334
(dp2335
g73
(dp2336
g81
I3
ssg82
g2330
sg75
(lp2337
g640
asbasbasbag68
(g84
g70
NtRp2338
(dp2339
g73
(dp2340
sg82
g2271
sg75
(lp2341
g68
(g89
g70
NtRp2342
(dp2343
g73
(dp2344
g93
g94
ssg82
g2338
sg75
(lp2345
S'HTTP_ACCEPT'
p2346
asbag68
(g89
g70
NtRp2347
(dp2348
g73
(dp2349
g100
g101
ssg82
g2338
sg75
(lp2350
S':'
asbag68
(g89
g70
NtRp2351
(dp2352
g73
(dp2353
sg82
g2338
sg75
(lp2354
g68
(g69
g70
NtRp2355
(dp2356
g73
(dp2357
g81
I3
ssg82
g2351
sg75
(lp2358
g683
asbasbasbag68
(g84
g70
NtRp2359
(dp2360
g73
(dp2361
sg82
g2271
sg75
(lp2362
g68
(g89
g70
NtRp2363
(dp2364
g73
(dp2365
g93
g94
ssg82
g2359
sg75
(lp2366
S'HTTP_ACCEPT_CHARSET'
p2367
asbag68
(g89
g70
NtRp2368
(dp2369
g73
(dp2370
g100
g101
ssg82
g2359
sg75
(lp2371
S':'
asbag68
(g89
g70
NtRp2372
(dp2373
g73
(dp2374
sg82
g2359
sg75
(lp2375
g68
(g69
g70
NtRp2376
(dp2377
g73
(dp2378
g81
I3
ssg82
g2372
sg75
(lp2379
g705
asbasbasbag68
(g84
g70
NtRp2380
(dp2381
g73
(dp2382
sg82
g2271
sg75
(lp2383
g68
(g89
g70
NtRp2384
(dp2385
g73
(dp2386
g93
g94
ssg82
g2380
sg75
(lp2387
S'HTTP_ACCEPT_ENCODING'
p2388
asbag68
(g89
g70
NtRp2389
(dp2390
g73
(dp2391
g100
g101
ssg82
g2380
sg75
(lp2392
S':'
asbag68
(g89
g70
NtRp2393
(dp2394
g73
(dp2395
sg82
g2380
sg75
(lp2396
g68
(g69
g70
NtRp2397
(dp2398
g73
(dp2399
g81
I3
ssg82
g2393
sg75
(lp2400
g727
asbasbasbag68
(g84
g70
NtRp2401
(dp2402
g73
(dp2403
sg82
g2271
sg75
(lp2404
g68
(g89
g70
NtRp2405
(dp2406
g73
(dp2407
g93
g94
ssg82
g2401
sg75
(lp2408
S'HTTP_ACCEPT_LANGUAGE'
p2409
asbag68
(g89
g70
NtRp2410
(dp2411
g73
(dp2412
g100
g101
ssg82
g2401
sg75
(lp2413
S':'
asbag68
(g89
g70
NtRp2414
(dp2415
g73
(dp2416
sg82
g2401
sg75
(lp2417
g68
(g69
g70
NtRp2418
(dp2419
g73
(dp2420
g81
I3
ssg82
g2414
sg75
(lp2421
g749
asbasbasbag68
(g84
g70
NtRp2422
(dp2423
g73
(dp2424
sg82
g2271
sg75
(lp2425
g68
(g89
g70
NtRp2426
(dp2427
g73
(dp2428
g93
g94
ssg82
g2422
sg75
(lp2429
S'HTTP_CONNECTION'
p2430
asbag68
(g89
g70
NtRp2431
(dp2432
g73
(dp2433
g100
g101
ssg82
g2422
sg75
(lp2434
S':'
asbag68
(g89
g70
NtRp2435
(dp2436
g73
(dp2437
sg82
g2422
sg75
(lp2438
g68
(g69
g70
NtRp2439
(dp2440
g73
(dp2441
g81
I3
ssg82
g2435
sg75
(lp2442
g771
asbasbasbag68
(g84
g70
NtRp2443
(dp2444
g73
(dp2445
sg82
g2271
sg75
(lp2446
g68
(g89
g70
NtRp2447
(dp2448
g73
(dp2449
g93
g94
ssg82
g2443
sg75
(lp2450
S'HTTP_COOKIE'
p2451
asbag68
(g89
g70
NtRp2452
(dp2453
g73
(dp2454
g100
g101
ssg82
g2443
sg75
(lp2455
S':'
asbag68
(g89
g70
NtRp2456
(dp2457
g73
(dp2458
sg82
g2443
sg75
(lp2459
g68
(g69
g70
NtRp2460
(dp2461
g73
(dp2462
g81
I3
ssg82
g2456
sg75
(lp2463
g793
asbasbasbag68
(g84
g70
NtRp2464
(dp2465
g73
(dp2466
sg82
g2271
sg75
(lp2467
g68
(g89
g70
NtRp2468
(dp2469
g73
(dp2470
g93
g94
ssg82
g2464
sg75
(lp2471
S'HTTP_HOST'
p2472
asbag68
(g89
g70
NtRp2473
(dp2474
g73
(dp2475
g100
g101
ssg82
g2464
sg75
(lp2476
S':'
asbag68
(g89
g70
NtRp2477
(dp2478
g73
(dp2479
sg82
g2464
sg75
(lp2480
g68
(g69
g70
NtRp2481
(dp2482
g73
(dp2483
g81
I3
ssg82
g2477
sg75
(lp2484
g815
asbasbasbag68
(g84
g70
NtRp2485
(dp2486
g73
(dp2487
sg82
g2271
sg75
(lp2488
g68
(g89
g70
NtRp2489
(dp2490
g73
(dp2491
g93
g94
ssg82
g2485
sg75
(lp2492
S'HTTP_REFERER'
p2493
asbag68
(g89
g70
NtRp2494
(dp2495
g73
(dp2496
g100
g101
ssg82
g2485
sg75
(lp2497
S':'
asbag68
(g89
g70
NtRp2498
(dp2499
g73
(dp2500
sg82
g2485
sg75
(lp2501
g68
(g69
g70
NtRp2502
(dp2503
g73
(dp2504
g81
I3
ssg82
g2498
sg75
(lp2505
g837
asbasbasbag68
(g84
g70
NtRp2506
(dp2507
g73
(dp2508
sg82
g2271
sg75
(lp2509
g68
(g89
g70
NtRp2510
(dp2511
g73
(dp2512
g93
g94
ssg82
g2506
sg75
(lp2513
S'HTTP_USER_AGENT'
p2514
asbag68
(g89
g70
NtRp2515
(dp2516
g73
(dp2517
g100
g101
ssg82
g2506
sg75
(lp2518
S':'
asbag68
(g89
g70
NtRp2519
(dp2520
g73
(dp2521
sg82
g2506
sg75
(lp2522
g68
(g69
g70
NtRp2523
(dp2524
g73
(dp2525
g81
I3
ssg82
g2519
sg75
(lp2526
g859
asbasbasbag68
(g84
g70
NtRp2527
(dp2528
g73
(dp2529
sg82
g2271
sg75
(lp2530
g68
(g89
g70
NtRp2531
(dp2532
g73
(dp2533
g93
g94
ssg82
g2527
sg75
(lp2534
S'HTTP_VIA'
p2535
asbag68
(g89
g70
NtRp2536
(dp2537
g73
(dp2538
g100
g101
ssg82
g2527
sg75
(lp2539
S':'
asbag68
(g89
g70
NtRp2540
(dp2541
g73
(dp2542
sg82
g2527
sg75
(lp2543
g68
(g69
g70
NtRp2544
(dp2545
g73
(dp2546
g81
I3
ssg82
g2540
sg75
(lp2547
g881
asbasbasbag68
(g84
g70
NtRp2548
(dp2549
g73
(dp2550
sg82
g2271
sg75
(lp2551
g68
(g89
g70
NtRp2552
(dp2553
g73
(dp2554
g93
g94
ssg82
g2548
sg75
(lp2555
S'HTTP_X_FORWARDED_FOR'
p2556
asbag68
(g89
g70
NtRp2557
(dp2558
g73
(dp2559
g100
g101
ssg82
g2548
sg75
(lp2560
S':'
asbag68
(g89
g70
NtRp2561
(dp2562
g73
(dp2563
sg82
g2548
sg75
(lp2564
g68
(g69
g70
NtRp2565
(dp2566
g73
(dp2567
g81
I3
ssg82
g2561
sg75
(lp2568
g223
asbasbasbag68
(g84
g70
NtRp2569
(dp2570
g73
(dp2571
sg82
g2271
sg75
(lp2572
g68
(g89
g70
NtRp2573
(dp2574
g73
(dp2575
g93
g94
ssg82
g2569
sg75
(lp2576
S'PATH_INFO'
p2577
asbag68
(g89
g70
NtRp2578
(dp2579
g73
(dp2580
g100
g101
ssg82
g2569
sg75
(lp2581
S':'
asbag68
(g89
g70
NtRp2582
(dp2583
g73
(dp2584
sg82
g2569
sg75
(lp2585
g68
(g69
g70
NtRp2586
(dp2587
g73
(dp2588
g81
I3
ssg82
g2582
sg75
(lp2589
g1030
asbasbasbag68
(g84
g70
NtRp2590
(dp2591
g73
(dp2592
sg82
g2271
sg75
(lp2593
g68
(g89
g70
NtRp2594
(dp2595
g73
(dp2596
g93
g94
ssg82
g2590
sg75
(lp2597
S'QUERY_STRING'
p2598
asbag68
(g89
g70
NtRp2599
(dp2600
g73
(dp2601
g100
g101
ssg82
g2590
sg75
(lp2602
S':'
asbag68
(g89
g70
NtRp2603
(dp2604
g73
(dp2605
sg82
g2590
sg75
(lp2606
g68
(g69
g70
NtRp2607
(dp2608
g73
(dp2609
g81
I3
ssg82
g2603
sg75
(lp2610
S''
asbasbasbag68
(g84
g70
NtRp2611
(dp2612
g73
(dp2613
sg82
g2271
sg75
(lp2614
g68
(g89
g70
NtRp2615
(dp2616
g73
(dp2617
g93
g94
ssg82
g2611
sg75
(lp2618
S'REMOTE_ADDR'
p2619
asbag68
(g89
g70
NtRp2620
(dp2621
g73
(dp2622
g100
g101
ssg82
g2611
sg75
(lp2623
S':'
asbag68
(g89
g70
NtRp2624
(dp2625
g73
(dp2626
sg82
g2611
sg75
(lp2627
g68
(g69
g70
NtRp2628
(dp2629
g73
(dp2630
g81
I3
ssg82
g2624
sg75
(lp2631
g1073
asbasbasbag68
(g84
g70
NtRp2632
(dp2633
g73
(dp2634
sg82
g2271
sg75
(lp2635
g68
(g89
g70
NtRp2636
(dp2637
g73
(dp2638
g93
g94
ssg82
g2632
sg75
(lp2639
S'REMOTE_PORT'
p2640
asbag68
(g89
g70
NtRp2641
(dp2642
g73
(dp2643
g100
g101
ssg82
g2632
sg75
(lp2644
S':'
asbag68
(g89
g70
NtRp2645
(dp2646
g73
(dp2647
sg82
g2632
sg75
(lp2648
g68
(g69
g70
NtRp2649
(dp2650
g73
(dp2651
g81
I3
ssg82
g2645
sg75
(lp2652
g1095
asbasbasbag68
(g84
g70
NtRp2653
(dp2654
g73
(dp2655
sg82
g2271
sg75
(lp2656
g68
(g89
g70
NtRp2657
(dp2658
g73
(dp2659
g93
g94
ssg82
g2653
sg75
(lp2660
S'REQUEST_METHOD'
p2661
asbag68
(g89
g70
NtRp2662
(dp2663
g73
(dp2664
g100
g101
ssg82
g2653
sg75
(lp2665
S':'
asbag68
(g89
g70
NtRp2666
(dp2667
g73
(dp2668
sg82
g2653
sg75
(lp2669
g68
(g69
g70
NtRp2670
(dp2671
g73
(dp2672
g81
I3
ssg82
g2666
sg75
(lp2673
g1117
asbasbasbag68
(g84
g70
NtRp2674
(dp2675
g73
(dp2676
sg82
g2271
sg75
(lp2677
g68
(g89
g70
NtRp2678
(dp2679
g73
(dp2680
g93
g94
ssg82
g2674
sg75
(lp2681
S'REQUEST_URI'
p2682
asbag68
(g89
g70
NtRp2683
(dp2684
g73
(dp2685
g100
g101
ssg82
g2674
sg75
(lp2686
S':'
asbag68
(g89
g70
NtRp2687
(dp2688
g73
(dp2689
sg82
g2674
sg75
(lp2690
g68
(g69
g70
NtRp2691
(dp2692
g73
(dp2693
g81
I3
ssg82
g2687
sg75
(lp2694
g1139
asbasbasbag68
(g84
g70
NtRp2695
(dp2696
g73
(dp2697
sg82
g2271
sg75
(lp2698
g68
(g89
g70
NtRp2699
(dp2700
g73
(dp2701
g93
g94
ssg82
g2695
sg75
(lp2702
S'SCRIPT_NAME'
p2703
asbag68
(g89
g70
NtRp2704
(dp2705
g73
(dp2706
g100
g101
ssg82
g2695
sg75
(lp2707
S':'
asbag68
(g89
g70
NtRp2708
(dp2709
g73
(dp2710
sg82
g2695
sg75
(lp2711
g68
(g69
g70
NtRp2712
(dp2713
g73
(dp2714
g81
I3
ssg82
g2708
sg75
(lp2715
S''
asbasbasbag68
(g84
g70
NtRp2716
(dp2717
g73
(dp2718
sg82
g2271
sg75
(lp2719
g68
(g89
g70
NtRp2720
(dp2721
g73
(dp2722
g93
g94
ssg82
g2716
sg75
(lp2723
S'SERVER_NAME'
p2724
asbag68
(g89
g70
NtRp2725
(dp2726
g73
(dp2727
g100
g101
ssg82
g2716
sg75
(lp2728
S':'
asbag68
(g89
g70
NtRp2729
(dp2730
g73
(dp2731
sg82
g2716
sg75
(lp2732
g68
(g69
g70
NtRp2733
(dp2734
g73
(dp2735
g81
I3
ssg82
g2729
sg75
(lp2736
g1182
asbasbasbag68
(g84
g70
NtRp2737
(dp2738
g73
(dp2739
sg82
g2271
sg75
(lp2740
g68
(g89
g70
NtRp2741
(dp2742
g73
(dp2743
g93
g94
ssg82
g2737
sg75
(lp2744
S'SERVER_PORT'
p2745
asbag68
(g89
g70
NtRp2746
(dp2747
g73
(dp2748
g100
g101
ssg82
g2737
sg75
(lp2749
S':'
asbag68
(g89
g70
NtRp2750
(dp2751
g73
(dp2752
sg82
g2737
sg75
(lp2753
g68
(g69
g70
NtRp2754
(dp2755
g73
(dp2756
g81
I3
ssg82
g2750
sg75
(lp2757
g1204
asbasbasbag68
(g84
g70
NtRp2758
(dp2759
g73
(dp2760
sg82
g2271
sg75
(lp2761
g68
(g89
g70
NtRp2762
(dp2763
g73
(dp2764
g93
g94
ssg82
g2758
sg75
(lp2765
S'SERVER_PROTOCOL'
p2766
asbag68
(g89
g70
NtRp2767
(dp2768
g73
(dp2769
g100
g101
ssg82
g2758
sg75
(lp2770
S':'
asbag68
(g89
g70
NtRp2771
(dp2772
g73
(dp2773
sg82
g2758
sg75
(lp2774
g68
(g69
g70
NtRp2775
(dp2776
g73
(dp2777
g81
I3
ssg82
g2771
sg75
(lp2778
g1226
asbasbasbag68
(g84
g70
NtRp2779
(dp2780
g73
(dp2781
sg82
g2271
sg75
(lp2782
g68
(g89
g70
NtRp2783
(dp2784
g73
(dp2785
g93
g94
ssg82
g2779
sg75
(lp2786
S'uwsgi.node'
p2787
asbag68
(g89
g70
NtRp2788
(dp2789
g73
(dp2790
g100
g101
ssg82
g2779
sg75
(lp2791
S':'
asbag68
(g89
g70
NtRp2792
(dp2793
g73
(dp2794
sg82
g2779
sg75
(lp2795
g68
(g69
g70
NtRp2796
(dp2797
g73
(dp2798
g81
I3
ssg82
g2792
sg75
(lp2799
g1248
asbasbasbag68
(g84
g70
NtRp2800
(dp2801
g73
(dp2802
sg82
g2271
sg75
(lp2803
g68
(g89
g70
NtRp2804
(dp2805
g73
(dp2806
g93
g94
ssg82
g2800
sg75
(lp2807
S'uwsgi.version'
p2808
asbag68
(g89
g70
NtRp2809
(dp2810
g73
(dp2811
g100
g101
ssg82
g2800
sg75
(lp2812
S':'
asbag68
(g89
g70
NtRp2813
(dp2814
g73
(dp2815
sg82
g2800
sg75
(lp2816
g68
(g69
g70
NtRp2817
(dp2818
g73
(dp2819
g81
I3
ssg82
g2813
sg75
(lp2820
g1270
asbasbasbag68
(g84
g70
NtRp2821
(dp2822
g73
(dp2823
sg82
g2271
sg75
(lp2824
g68
(g89
g70
NtRp2825
(dp2826
g73
(dp2827
g93
g94
ssg82
g2821
sg75
(lp2828
S'wsgi.errors'
p2829
asbag68
(g89
g70
NtRp2830
(dp2831
g73
(dp2832
g100
g101
ssg82
g2821
sg75
(lp2833
S':'
asbag68
(g89
g70
NtRp2834
(dp2835
g73
(dp2836
sg82
g2821
sg75
(lp2837
g68
(g69
g70
NtRp2838
(dp2839
g73
(dp2840
g81
I3
ssg82
g2834
sg75
(lp2841
S'<uwsgi_file__bin_user_wsgi_wrapper.ErrorLogWrapper object at 0x2970ed0>'
p2842
asbasbasbag68
(g84
g70
NtRp2843
(dp2844
g73
(dp2845
sg82
g2271
sg75
(lp2846
g68
(g89
g70
NtRp2847
(dp2848
g73
(dp2849
g93
g94
ssg82
g2843
sg75
(lp2850
S'wsgi.file_wrapper'
p2851
asbag68
(g89
g70
NtRp2852
(dp2853
g73
(dp2854
g100
g101
ssg82
g2843
sg75
(lp2855
S':'
asbag68
(g89
g70
NtRp2856
(dp2857
g73
(dp2858
sg82
g2843
sg75
(lp2859
g68
(g69
g70
NtRp2860
(dp2861
g73
(dp2862
g81
I3
ssg82
g2856
sg75
(lp2863
S'<built-in function uwsgi_sendfile>'
p2864
asbasbasbag68
(g84
g70
NtRp2865
(dp2866
g73
(dp2867
sg82
g2271
sg75
(lp2868
g68
(g89
g70
NtRp2869
(dp2870
g73
(dp2871
g93
g94
ssg82
g2865
sg75
(lp2872
S'wsgi.input'
p2873
asbag68
(g89
g70
NtRp2874
(dp2875
g73
(dp2876
g100
g101
ssg82
g2865
sg75
(lp2877
S':'
asbag68
(g89
g70
NtRp2878
(dp2879
g73
(dp2880
sg82
g2865
sg75
(lp2881
g68
(g69
g70
NtRp2882
(dp2883
g73
(dp2884
g81
I3
ssg82
g2878
sg75
(lp2885
S'<cStringIO.StringO object at 0x2b66810>'
p2886
asbasbasbag68
(g84
g70
NtRp2887
(dp2888
g73
(dp2889
sg82
g2271
sg75
(lp2890
g68
(g89
g70
NtRp2891
(dp2892
g73
(dp2893
g93
g94
ssg82
g2887
sg75
(lp2894
S'wsgi.multiprocess'
p2895
asbag68
(g89
g70
NtRp2896
(dp2897
g73
(dp2898
g100
g101
ssg82
g2887
sg75
(lp2899
S':'
asbag68
(g89
g70
NtRp2900
(dp2901
g73
(dp2902
sg82
g2887
sg75
(lp2903
g68
(g69
g70
NtRp2904
(dp2905
g73
(dp2906
g81
I3
ssg82
g2900
sg75
(lp2907
g111
asbasbasbag68
(g84
g70
NtRp2908
(dp2909
g73
(dp2910
sg82
g2271
sg75
(lp2911
g68
(g89
g70
NtRp2912
(dp2913
g73
(dp2914
g93
g94
ssg82
g2908
sg75
(lp2915
S'wsgi.multithread'
p2916
asbag68
(g89
g70
NtRp2917
(dp2918
g73
(dp2919
g100
g101
ssg82
g2908
sg75
(lp2920
S':'
asbag68
(g89
g70
NtRp2921
(dp2922
g73
(dp2923
sg82
g2908
sg75
(lp2924
g68
(g69
g70
NtRp2925
(dp2926
g73
(dp2927
g81
I3
ssg82
g2921
sg75
(lp2928
g111
asbasbasbag68
(g84
g70
NtRp2929
(dp2930
g73
(dp2931
sg82
g2271
sg75
(lp2932
g68
(g89
g70
NtRp2933
(dp2934
g73
(dp2935
g93
g94
ssg82
g2929
sg75
(lp2936
S'wsgi.run_once'
p2937
asbag68
(g89
g70
NtRp2938
(dp2939
g73
(dp2940
g100
g101
ssg82
g2929
sg75
(lp2941
S':'
asbag68
(g89
g70
NtRp2942
(dp2943
g73
(dp2944
sg82
g2929
sg75
(lp2945
g68
(g69
g70
NtRp2946
(dp2947
g73
(dp2948
g81
I3
ssg82
g2942
sg75
(lp2949
g111
asbasbasbag68
(g84
g70
NtRp2950
(dp2951
g73
(dp2952
sg82
g2271
sg75
(lp2953
g68
(g89
g70
NtRp2954
(dp2955
g73
(dp2956
g93
g94
ssg82
g2950
sg75
(lp2957
S'wsgi.url_scheme'
p2958
asbag68
(g89
g70
NtRp2959
(dp2960
g73
(dp2961
g100
g101
ssg82
g2950
sg75
(lp2962
S':'
asbag68
(g89
g70
NtRp2963
(dp2964
g73
(dp2965
sg82
g2950
sg75
(lp2966
g68
(g69
g70
NtRp2967
(dp2968
g73
(dp2969
g81
I3
ssg82
g2963
sg75
(lp2970
g1529
asbasbasbag68
(g84
g70
NtRp2971
(dp2972
g73
(dp2973
sg82
g2271
sg75
(lp2974
g68
(g89
g70
NtRp2975
(dp2976
g73
(dp2977
g93
g94
ssg82
g2971
sg75
(lp2978
S'wsgi.version'
p2979
asbag68
(g89
g70
NtRp2980
(dp2981
g73
(dp2982
g100
g101
ssg82
g2971
sg75
(lp2983
S':'
asbag68
(g89
g70
NtRp2984
(dp2985
g73
(dp2986
sg82
g2971
sg75
(lp2987
g68
(g69
g70
NtRp2988
(dp2989
g73
(dp2990
g81
I3
ssg82
g2984
sg75
(lp2991
S'1'
asbasbasbasbasbasbasbasbasbasbasbasbasbsS'frames'
p2992
(lp2993
(dp2994
S'file'
p2995
S'/home/rsoutelino/web2py/gluon/restricted.py'
p2996
sS'dump'
p2997
(dp2998
S'code'
p2999
S"'from Mail import *\\n\\ndef contact():\\n\\tform = SQLFO...m=form)\\nresponse._vars=response._caller(contact)\\n'"
p3000
sS'layer'
p3001
S"'/home/rsoutelino/web2py/applications/rsoutelino/controllers/contact.py'"
p3002
sS'global compile2'
p3003
S'<function compile2>'
p3004
sS'ccode'
p3005
S'undefined'
p3006
ssS'lnum'
p3007
I211
sS'lines'
p3008
(dp3009
I206
S"    environment['__name__'] = '__restricted__'"
p3010
sI207
S'    try:'
p3011
sI208
S'        if isinstance(code, types.CodeType):'
p3012
sI209
S'            ccode = code'
p3013
sI210
S'        else:'
p3014
sI211
S'            ccode = compile2(code, layer)'
p3015
sI212
S'        exec ccode in environment'
p3016
sI213
S'    except HTTP:'
p3017
sI214
S'        raise'
p3018
sI215
S'    except RestrictedError:'
p3019
ssS'call'
p3020
S"(code='from Mail import *\\n\\ndef contact():\\n\\tform = SQLFO...m=form)\\nresponse._vars=response._caller(contact)\\n', environment={'A': <class 'gluon.html.A'>, 'Auth': <class 'gluon.tools.Auth'>, 'B': <class 'gluon.html.B'>, 'BEAUTIFY': <class 'gluon.html.BEAUTIFY'>, 'BODY': <class 'gluon.html.BODY'>, 'BR': <class 'gluon.html.BR'>, 'BUTTON': <class 'gluon.html.BUTTON'>, 'CAT': <class 'gluon.html.CAT'>, 'CENTER': <class 'gluon.html.CENTER'>, 'CLEANUP': <class 'gluon.validators.CLEANUP'>, ...}, layer='/home/rsoutelino/web2py/applications/rsoutelino/controllers/contact.py')"
p3021
sS'func'
p3022
S'restricted'
p3023
sa(dp3024
g2995
S'/home/rsoutelino/web2py/gluon/restricted.py'
p3025
sg2997
(dp3026
S'builtincompile'
p3027
S'<built-in function compile>'
p3028
sS'code'
p3029
S"'from Mail import *\\n\\ndef contact():\\n\\tform = SQLFO...m=form)\\nresponse._vars=response._caller(contact)\\n'"
p3030
sS'code.rstrip'
p3031
S'<built-in method rstrip of str object>'
p3032
sS').replace'
p3033
g3006
sS'layer'
p3034
S"'/home/rsoutelino/web2py/applications/rsoutelino/controllers/contact.py'"
p3035
ssg3007
I194
sg3008
(dp3036
I192
S"    The +'\\n' is necessary else compile fails when code ends in a comment."
p3037
sI193
S'    """'
p3038
sI194
S"    return compile(code.rstrip().replace('\\r\\n', '\\n') + '\\n', layer, 'exec')"
p3039
sI195
S''
sI196
S''
sI197
S"def restricted(code, environment=None, layer='Unknown'):"
p3040
sI198
S'    """'
p3041
sI189
S''
sI190
S'def compile2(code, layer):'
p3042
sI191
S'    """'
p3043
ssg3020
S"(code='from Mail import *\\n\\ndef contact():\\n\\tform = SQLFO...m=form)\\nresponse._vars=response._caller(contact)\\n', layer='/home/rsoutelino/web2py/applications/rsoutelino/controllers/contact.py')"
p3044
sg3022
S'compile2'
p3045
sasS'pyver'
p3046
S'Python 2.7.3: /usr/local/bin/uwsgi'
p3047
sS'session'
p3048
g68
(g69
g70
NtRp3049
(dp3050
g73
(dp3051
sg75
(lp3052
g68
(g77
g70
NtRp3053
(dp3054
g73
(dp3055
g81
I5
ssg82
Nsg75
(lp3056
sbasbsS'etype'
p3057
S"<type 'exceptions.IndentationError'>"
p3058
sS'date'
p3059
S'Thu Feb  7 12:05:06 2013'
p3060
sS'response'
p3061
g68
(g69
g70
NtRp3062
(dp3063
g73
(dp3064
sg75
(lp3065
g68
(g77
g70
NtRp3066
(dp3067
g73
(dp3068
g81
I5
ssg82
Nsg75
(lp3069
g68
(g84
g70
NtRp3070
(dp3071
g73
(dp3072
sg82
g3066
sg75
(lp3073
g68
(g89
g70
NtRp3074
(dp3075
g73
(dp3076
g93
g94
ssg82
g3070
sg75
(lp3077
g166
asbag68
(g89
g70
NtRp3078
(dp3079
g73
(dp3080
g100
g101
ssg82
g3070
sg75
(lp3081
S':'
asbag68
(g89
g70
NtRp3082
(dp3083
g73
(dp3084
sg82
g3070
sg75
(lp3085
g68
(g69
g70
NtRp3086
(dp3087
g73
(dp3088
g81
I5
ssg82
g3082
sg75
(lp3089
S'<cStringIO.StringO object at 0x2b663e8>'
p3090
asbasbasbag68
(g84
g70
NtRp3091
(dp3092
g73
(dp3093
sg82
g3066
sg75
(lp3094
g68
(g89
g70
NtRp3095
(dp3096
g73
(dp3097
g93
g94
ssg82
g3091
sg75
(lp3098
g254
asbag68
(g89
g70
NtRp3099
(dp3100
g73
(dp3101
g100
g101
ssg82
g3091
sg75
(lp3102
S':'
asbag68
(g89
g70
NtRp3103
(dp3104
g73
(dp3105
sg82
g3091
sg75
(lp3106
g68
(g69
g70
NtRp3107
(dp3108
g73
(dp3109
g81
I5
ssg82
g3103
sg75
(lp3110
g68
(g77
g70
NtRp3111
(dp3112
g73
(dp3113
g81
I4
ssg82
Nsg75
(lp3114
g68
(g84
g70
NtRp3115
(dp3116
g73
(dp3117
sg82
g3111
sg75
(lp3118
g68
(g89
g70
NtRp3119
(dp3120
g73
(dp3121
g93
g94
ssg82
g3115
sg75
(lp3122
S'session_id_rsoutelino'
p3123
asbag68
(g89
g70
NtRp3124
(dp3125
g73
(dp3126
g100
g101
ssg82
g3115
sg75
(lp3127
S':'
asbag68
(g89
g70
NtRp3128
(dp3129
g73
(dp3130
sg82
g3115
sg75
(lp3131
g68
(g69
g70
NtRp3132
(dp3133
g73
(dp3134
g81
I4
ssg82
g3128
sg75
(lp3135
S'172.30.6.206-f98db23e-bea8-4c79-969d-761a19f38c4d'
p3136
ag68
(g77
g70
NtRp3137
(dp3138
g73
(dp3139
g81
I3
ssg82
Nsg75
(lp3140
g68
(g84
g70
NtRp3141
(dp3142
g73
(dp3143
sg82
g3137
sg75
(lp3144
g68
(g89
g70
NtRp3145
(dp3146
g73
(dp3147
g93
g94
ssg82
g3141
sg75
(lp3148
g305
asbag68
(g89
g70
NtRp3149
(dp3150
g73
(dp3151
g100
g101
ssg82
g3141
sg75
(lp3152
S':'
asbag68
(g89
g70
NtRp3153
(dp3154
g73
(dp3155
sg82
g3141
sg75
(lp3156
g68
(g69
g70
NtRp3157
(dp3158
g73
(dp3159
g81
I3
ssg82
g3153
sg75
(lp3160
S''
asbasbasbag68
(g84
g70
NtRp3161
(dp3162
g73
(dp3163
sg82
g3137
sg75
(lp3164
g68
(g89
g70
NtRp3165
(dp3166
g73
(dp3167
g93
g94
ssg82
g3161
sg75
(lp3168
g326
asbag68
(g89
g70
NtRp3169
(dp3170
g73
(dp3171
g100
g101
ssg82
g3161
sg75
(lp3172
S':'
asbag68
(g89
g70
NtRp3173
(dp3174
g73
(dp3175
sg82
g3161
sg75
(lp3176
g68
(g69
g70
NtRp3177
(dp3178
g73
(dp3179
g81
I3
ssg82
g3173
sg75
(lp3180
S''
asbasbasbag68
(g84
g70
NtRp3181
(dp3182
g73
(dp3183
sg82
g3137
sg75
(lp3184
g68
(g89
g70
NtRp3185
(dp3186
g73
(dp3187
g93
g94
ssg82
g3181
sg75
(lp3188
g347
asbag68
(g89
g70
NtRp3189
(dp3190
g73
(dp3191
g100
g101
ssg82
g3181
sg75
(lp3192
S':'
asbag68
(g89
g70
NtRp3193
(dp3194
g73
(dp3195
sg82
g3181
sg75
(lp3196
g68
(g69
g70
NtRp3197
(dp3198
g73
(dp3199
g81
I3
ssg82
g3193
sg75
(lp3200
S''
asbasbasbag68
(g84
g70
NtRp3201
(dp3202
g73
(dp3203
sg82
g3137
sg75
(lp3204
g68
(g89
g70
NtRp3205
(dp3206
g73
(dp3207
g93
g94
ssg82
g3201
sg75
(lp3208
g368
asbag68
(g89
g70
NtRp3209
(dp3210
g73
(dp3211
g100
g101
ssg82
g3201
sg75
(lp3212
S':'
asbag68
(g89
g70
NtRp3213
(dp3214
g73
(dp3215
sg82
g3201
sg75
(lp3216
g68
(g69
g70
NtRp3217
(dp3218
g73
(dp3219
g81
I3
ssg82
g3213
sg75
(lp3220
S''
asbasbasbag68
(g84
g70
NtRp3221
(dp3222
g73
(dp3223
sg82
g3137
sg75
(lp3224
g68
(g89
g70
NtRp3225
(dp3226
g73
(dp3227
g93
g94
ssg82
g3221
sg75
(lp3228
g389
asbag68
(g89
g70
NtRp3229
(dp3230
g73
(dp3231
g100
g101
ssg82
g3221
sg75
(lp3232
S':'
asbag68
(g89
g70
NtRp3233
(dp3234
g73
(dp3235
sg82
g3221
sg75
(lp3236
g68
(g69
g70
NtRp3237
(dp3238
g73
(dp3239
g81
I3
ssg82
g3233
sg75
(lp3240
S''
asbasbasbag68
(g84
g70
NtRp3241
(dp3242
g73
(dp3243
sg82
g3137
sg75
(lp3244
g68
(g89
g70
NtRp3245
(dp3246
g73
(dp3247
g93
g94
ssg82
g3241
sg75
(lp3248
g410
asbag68
(g89
g70
NtRp3249
(dp3250
g73
(dp3251
g100
g101
ssg82
g3241
sg75
(lp3252
S':'
asbag68
(g89
g70
NtRp3253
(dp3254
g73
(dp3255
sg82
g3241
sg75
(lp3256
g68
(g69
g70
NtRp3257
(dp3258
g73
(dp3259
g81
I3
ssg82
g3253
sg75
(lp3260
S'/'
asbasbasbag68
(g84
g70
NtRp3261
(dp3262
g73
(dp3263
sg82
g3137
sg75
(lp3264
g68
(g89
g70
NtRp3265
(dp3266
g73
(dp3267
g93
g94
ssg82
g3261
sg75
(lp3268
g431
asbag68
(g89
g70
NtRp3269
(dp3270
g73
(dp3271
g100
g101
ssg82
g3261
sg75
(lp3272
S':'
asbag68
(g89
g70
NtRp3273
(dp3274
g73
(dp3275
sg82
g3261
sg75
(lp3276
g68
(g69
g70
NtRp3277
(dp3278
g73
(dp3279
g81
I3
ssg82
g3273
sg75
(lp3280
S''
asbasbasbag68
(g84
g70
NtRp3281
(dp3282
g73
(dp3283
sg82
g3137
sg75
(lp3284
g68
(g89
g70
NtRp3285
(dp3286
g73
(dp3287
g93
g94
ssg82
g3281
sg75
(lp3288
g452
asbag68
(g89
g70
NtRp3289
(dp3290
g73
(dp3291
g100
g101
ssg82
g3281
sg75
(lp3292
S':'
asbag68
(g89
g70
NtRp3293
(dp3294
g73
(dp3295
sg82
g3281
sg75
(lp3296
g68
(g69
g70
NtRp3297
(dp3298
g73
(dp3299
g81
I3
ssg82
g3293
sg75
(lp3300
S''
asbasbasbasbasbasbasbasbasbasbasbag68
(g84
g70
NtRp3301
(dp3302
g73
(dp3303
sg82
g3066
sg75
(lp3304
g68
(g89
g70
NtRp3305
(dp3306
g73
(dp3307
g93
g94
ssg82
g3301
sg75
(lp3308
S'delimiters'
p3309
asbag68
(g89
g70
NtRp3310
(dp3311
g73
(dp3312
g100
g101
ssg82
g3301
sg75
(lp3313
S':'
asbag68
(g89
g70
NtRp3314
(dp3315
g73
(dp3316
sg82
g3301
sg75
(lp3317
g68
(g69
g70
NtRp3318
(dp3319
g73
(dp3320
g81
I5
ssg82
g3314
sg75
(lp3321
g68
(g77
g70
NtRp3322
(dp3323
g73
(dp3324
g81
I4
ssg82
Nsg75
(lp3325
g68
(g84
g70
NtRp3326
(dp3327
g73
(dp3328
sg82
g3322
sg75
(lp3329
g68
(g89
g70
NtRp3330
(dp3331
g73
(dp3332
sg82
g3326
sg75
(lp3333
g68
(g69
g70
NtRp3334
(dp3335
g73
(dp3336
g81
I4
ssg82
g3330
sg75
(lp3337
S'{{'
p3338
asbasbasbag68
(g84
g70
NtRp3339
(dp3340
g73
(dp3341
sg82
g3322
sg75
(lp3342
g68
(g89
g70
NtRp3343
(dp3344
g73
(dp3345
sg82
g3339
sg75
(lp3346
g68
(g69
g70
NtRp3347
(dp3348
g73
(dp3349
g81
I4
ssg82
g3343
sg75
(lp3350
S'}}'
p3351
asbasbasbasbasbasbasbag68
(g84
g70
NtRp3352
(dp3353
g73
(dp3354
sg82
g3066
sg75
(lp3355
g68
(g89
g70
NtRp3356
(dp3357
g73
(dp3358
g93
g94
ssg82
g3352
sg75
(lp3359
S'files'
p3360
asbag68
(g89
g70
NtRp3361
(dp3362
g73
(dp3363
g100
g101
ssg82
g3352
sg75
(lp3364
S':'
asbag68
(g89
g70
NtRp3365
(dp3366
g73
(dp3367
sg82
g3352
sg75
(lp3368
g68
(g69
g70
NtRp3369
(dp3370
g73
(dp3371
g81
I5
ssg82
g3365
sg75
(lp3372
g68
(g77
g70
NtRp3373
(dp3374
g73
(dp3375
g81
I4
ssg82
Nsg75
(lp3376
sbasbasbasbag68
(g84
g70
NtRp3377
(dp3378
g73
(dp3379
sg82
g3066
sg75
(lp3380
g68
(g89
g70
NtRp3381
(dp3382
g73
(dp3383
g93
g94
ssg82
g3377
sg75
(lp3384
S'flash'
p3385
asbag68
(g89
g70
NtRp3386
(dp3387
g73
(dp3388
g100
g101
ssg82
g3377
sg75
(lp3389
S':'
asbag68
(g89
g70
NtRp3390
(dp3391
g73
(dp3392
sg82
g3377
sg75
(lp3393
g68
(g69
g70
NtRp3394
(dp3395
g73
(dp3396
g81
I5
ssg82
g3390
sg75
(lp3397
S''
asbasbasbag68
(g84
g70
NtRp3398
(dp3399
g73
(dp3400
sg82
g3066
sg75
(lp3401
g68
(g89
g70
NtRp3402
(dp3403
g73
(dp3404
g93
g94
ssg82
g3398
sg75
(lp3405
S'generic_patterns'
p3406
asbag68
(g89
g70
NtRp3407
(dp3408
g73
(dp3409
g100
g101
ssg82
g3398
sg75
(lp3410
S':'
asbag68
(g89
g70
NtRp3411
(dp3412
g73
(dp3413
sg82
g3398
sg75
(lp3414
g68
(g69
g70
NtRp3415
(dp3416
g73
(dp3417
g81
I5
ssg82
g3411
sg75
(lp3418
g68
(g77
g70
NtRp3419
(dp3420
g73
(dp3421
g81
I4
ssg82
Nsg75
(lp3422
g68
(g84
g70
NtRp3423
(dp3424
g73
(dp3425
sg82
g3419
sg75
(lp3426
g68
(g89
g70
NtRp3427
(dp3428
g73
(dp3429
sg82
g3423
sg75
(lp3430
g68
(g69
g70
NtRp3431
(dp3432
g73
(dp3433
g81
I4
ssg82
g3427
sg75
(lp3434
S'*'
asbasbasbasbasbasbasbag68
(g84
g70
NtRp3435
(dp3436
g73
(dp3437
sg82
g3066
sg75
(lp3438
g68
(g89
g70
NtRp3439
(dp3440
g73
(dp3441
g93
g94
ssg82
g3435
sg75
(lp3442
S'headers'
p3443
asbag68
(g89
g70
NtRp3444
(dp3445
g73
(dp3446
g100
g101
ssg82
g3435
sg75
(lp3447
S':'
asbag68
(g89
g70
NtRp3448
(dp3449
g73
(dp3450
sg82
g3435
sg75
(lp3451
g68
(g69
g70
NtRp3452
(dp3453
g73
(dp3454
g81
I5
ssg82
g3448
sg75
(lp3455
g68
(g77
g70
NtRp3456
(dp3457
g73
(dp3458
g81
I4
ssg82
Nsg75
(lp3459
g68
(g84
g70
NtRp3460
(dp3461
g73
(dp3462
sg82
g3456
sg75
(lp3463
g68
(g89
g70
NtRp3464
(dp3465
g73
(dp3466
g93
g94
ssg82
g3460
sg75
(lp3467
S'X-Powered-By'
p3468
asbag68
(g89
g70
NtRp3469
(dp3470
g73
(dp3471
g100
g101
ssg82
g3460
sg75
(lp3472
S':'
asbag68
(g89
g70
NtRp3473
(dp3474
g73
(dp3475
sg82
g3460
sg75
(lp3476
g68
(g69
g70
NtRp3477
(dp3478
g73
(dp3479
g81
I4
ssg82
g3473
sg75
(lp3480
S'web2py'
p3481
asbasbasbasbasbasbasbag68
(g84
g70
NtRp3482
(dp3483
g73
(dp3484
sg82
g3066
sg75
(lp3485
g68
(g89
g70
NtRp3486
(dp3487
g73
(dp3488
g93
g94
ssg82
g3482
sg75
(lp3489
S'menu'
p3490
asbag68
(g89
g70
NtRp3491
(dp3492
g73
(dp3493
g100
g101
ssg82
g3482
sg75
(lp3494
S':'
asbag68
(g89
g70
NtRp3495
(dp3496
g73
(dp3497
sg82
g3482
sg75
(lp3498
g68
(g69
g70
NtRp3499
(dp3500
g73
(dp3501
g81
I5
ssg82
g3495
sg75
(lp3502
g68
(g77
g70
NtRp3503
(dp3504
g73
(dp3505
g81
I4
ssg82
Nsg75
(lp3506
sbasbasbasbag68
(g84
g70
NtRp3507
(dp3508
g73
(dp3509
sg82
g3066
sg75
(lp3510
g68
(g89
g70
NtRp3511
(dp3512
g73
(dp3513
g93
g94
ssg82
g3507
sg75
(lp3514
S'meta'
p3515
asbag68
(g89
g70
NtRp3516
(dp3517
g73
(dp3518
g100
g101
ssg82
g3507
sg75
(lp3519
S':'
asbag68
(g89
g70
NtRp3520
(dp3521
g73
(dp3522
sg82
g3507
sg75
(lp3523
g68
(g69
g70
NtRp3524
(dp3525
g73
(dp3526
g81
I5
ssg82
g3520
sg75
(lp3527
g68
(g77
g70
NtRp3528
(dp3529
g73
(dp3530
g81
I4
ssg82
Nsg75
(lp3531
g68
(g84
g70
NtRp3532
(dp3533
g73
(dp3534
sg82
g3528
sg75
(lp3535
g68
(g89
g70
NtRp3536
(dp3537
g73
(dp3538
g93
g94
ssg82
g3532
sg75
(lp3539
S'author'
p3540
asbag68
(g89
g70
NtRp3541
(dp3542
g73
(dp3543
g100
g101
ssg82
g3532
sg75
(lp3544
S':'
asbag68
(g89
g70
NtRp3545
(dp3546
g73
(dp3547
sg82
g3532
sg75
(lp3548
g68
(g69
g70
NtRp3549
(dp3550
g73
(dp3551
g81
I4
ssg82
g3545
sg75
(lp3552
S'Diego Miranda'
p3553
asbasbasbag68
(g84
g70
NtRp3554
(dp3555
g73
(dp3556
sg82
g3528
sg75
(lp3557
g68
(g89
g70
NtRp3558
(dp3559
g73
(dp3560
g93
g94
ssg82
g3554
sg75
(lp3561
S'copyright'
p3562
asbag68
(g89
g70
NtRp3563
(dp3564
g73
(dp3565
g100
g101
ssg82
g3554
sg75
(lp3566
S':'
asbag68
(g89
g70
NtRp3567
(dp3568
g73
(dp3569
sg82
g3554
sg75
(lp3570
g68
(g69
g70
NtRp3571
(dp3572
g73
(dp3573
g81
I4
ssg82
g3567
sg75
(lp3574
S'Copyright 2012'
p3575
asbasbasbag68
(g84
g70
NtRp3576
(dp3577
g73
(dp3578
sg82
g3528
sg75
(lp3579
g68
(g89
g70
NtRp3580
(dp3581
g73
(dp3582
g93
g94
ssg82
g3576
sg75
(lp3583
S'description'
p3584
asbag68
(g89
g70
NtRp3585
(dp3586
g73
(dp3587
g100
g101
ssg82
g3576
sg75
(lp3588
S':'
asbag68
(g89
g70
NtRp3589
(dp3590
g73
(dp3591
sg82
g3576
sg75
(lp3592
g68
(g69
g70
NtRp3593
(dp3594
g73
(dp3595
g81
I4
ssg82
g3589
sg75
(lp3596
S'Rafael App'
p3597
asbasbasbag68
(g84
g70
NtRp3598
(dp3599
g73
(dp3600
sg82
g3528
sg75
(lp3601
g68
(g89
g70
NtRp3602
(dp3603
g73
(dp3604
g93
g94
ssg82
g3598
sg75
(lp3605
S'generator'
p3606
asbag68
(g89
g70
NtRp3607
(dp3608
g73
(dp3609
g100
g101
ssg82
g3598
sg75
(lp3610
S':'
asbag68
(g89
g70
NtRp3611
(dp3612
g73
(dp3613
sg82
g3598
sg75
(lp3614
g68
(g69
g70
NtRp3615
(dp3616
g73
(dp3617
g81
I4
ssg82
g3611
sg75
(lp3618
S'web2py web framework'
p3619
asbasbasbag68
(g84
g70
NtRp3620
(dp3621
g73
(dp3622
sg82
g3528
sg75
(lp3623
g68
(g89
g70
NtRp3624
(dp3625
g73
(dp3626
g93
g94
ssg82
g3620
sg75
(lp3627
S'keywords'
p3628
asbag68
(g89
g70
NtRp3629
(dp3630
g73
(dp3631
g100
g101
ssg82
g3620
sg75
(lp3632
S':'
asbag68
(g89
g70
NtRp3633
(dp3634
g73
(dp3635
sg82
g3620
sg75
(lp3636
g68
(g69
g70
NtRp3637
(dp3638
g73
(dp3639
g81
I4
ssg82
g3633
sg75
(lp3640
S'web2py, python framework'
p3641
asbasbasbasbasbasbasbag68
(g84
g70
NtRp3642
(dp3643
g73
(dp3644
sg82
g3066
sg75
(lp3645
g68
(g89
g70
NtRp3646
(dp3647
g73
(dp3648
g93
g94
ssg82
g3642
sg75
(lp3649
S'models_to_run'
p3650
asbag68
(g89
g70
NtRp3651
(dp3652
g73
(dp3653
g100
g101
ssg82
g3642
sg75
(lp3654
S':'
asbag68
(g89
g70
NtRp3655
(dp3656
g73
(dp3657
sg82
g3642
sg75
(lp3658
g68
(g69
g70
NtRp3659
(dp3660
g73
(dp3661
g81
I5
ssg82
g3655
sg75
(lp3662
g68
(g77
g70
NtRp3663
(dp3664
g73
(dp3665
g81
I4
ssg82
Nsg75
(lp3666
g68
(g84
g70
NtRp3667
(dp3668
g73
(dp3669
sg82
g3663
sg75
(lp3670
g68
(g89
g70
NtRp3671
(dp3672
g73
(dp3673
sg82
g3667
sg75
(lp3674
g68
(g69
g70
NtRp3675
(dp3676
g73
(dp3677
g81
I4
ssg82
g3671
sg75
(lp3678
S'^\\w+\\.py$'
p3679
asbasbasbag68
(g84
g70
NtRp3680
(dp3681
g73
(dp3682
sg82
g3663
sg75
(lp3683
g68
(g89
g70
NtRp3684
(dp3685
g73
(dp3686
sg82
g3680
sg75
(lp3687
g68
(g69
g70
NtRp3688
(dp3689
g73
(dp3690
g81
I4
ssg82
g3684
sg75
(lp3691
S'^contact/\\w+\\.py$'
p3692
asbasbasbag68
(g84
g70
NtRp3693
(dp3694
g73
(dp3695
sg82
g3663
sg75
(lp3696
g68
(g89
g70
NtRp3697
(dp3698
g73
(dp3699
sg82
g3693
sg75
(lp3700
g68
(g69
g70
NtRp3701
(dp3702
g73
(dp3703
g81
I4
ssg82
g3697
sg75
(lp3704
S'^contact/contact/\\w+\\.py$'
p3705
asbasbasbasbasbasbasbag68
(g84
g70
NtRp3706
(dp3707
g73
(dp3708
sg82
g3066
sg75
(lp3709
g68
(g89
g70
NtRp3710
(dp3711
g73
(dp3712
g93
g94
ssg82
g3706
sg75
(lp3713
S'postprocessing'
p3714
asbag68
(g89
g70
NtRp3715
(dp3716
g73
(dp3717
g100
g101
ssg82
g3706
sg75
(lp3718
S':'
asbag68
(g89
g70
NtRp3719
(dp3720
g73
(dp3721
sg82
g3706
sg75
(lp3722
g68
(g69
g70
NtRp3723
(dp3724
g73
(dp3725
g81
I5
ssg82
g3719
sg75
(lp3726
g68
(g77
g70
NtRp3727
(dp3728
g73
(dp3729
g81
I4
ssg82
Nsg75
(lp3730
sbasbasbasbag68
(g84
g70
NtRp3731
(dp3732
g73
(dp3733
sg82
g3066
sg75
(lp3734
g68
(g89
g70
NtRp3735
(dp3736
g73
(dp3737
g93
g94
ssg82
g3731
sg75
(lp3738
S'session_cookie_expires'
p3739
asbag68
(g89
g70
NtRp3740
(dp3741
g73
(dp3742
g100
g101
ssg82
g3731
sg75
(lp3743
S':'
asbag68
(g89
g70
NtRp3744
(dp3745
g73
(dp3746
sg82
g3731
sg75
(lp3747
g68
(g69
g70
NtRp3748
(dp3749
g73
(dp3750
g81
I5
ssg82
g3744
sg75
(lp3751
S'None'
p3752
asbasbasbag68
(g84
g70
NtRp3753
(dp3754
g73
(dp3755
sg82
g3066
sg75
(lp3756
g68
(g89
g70
NtRp3757
(dp3758
g73
(dp3759
g93
g94
ssg82
g3753
sg75
(lp3760
S'session_data_name'
p3761
asbag68
(g89
g70
NtRp3762
(dp3763
g73
(dp3764
g100
g101
ssg82
g3753
sg75
(lp3765
S':'
asbag68
(g89
g70
NtRp3766
(dp3767
g73
(dp3768
sg82
g3753
sg75
(lp3769
g68
(g69
g70
NtRp3770
(dp3771
g73
(dp3772
g81
I5
ssg82
g3766
sg75
(lp3773
S'session_data_rsoutelino'
p3774
asbasbasbag68
(g84
g70
NtRp3775
(dp3776
g73
(dp3777
sg82
g3066
sg75
(lp3778
g68
(g89
g70
NtRp3779
(dp3780
g73
(dp3781
g93
g94
ssg82
g3775
sg75
(lp3782
S'session_filename'
p3783
asbag68
(g89
g70
NtRp3784
(dp3785
g73
(dp3786
g100
g101
ssg82
g3775
sg75
(lp3787
S':'
asbag68
(g89
g70
NtRp3788
(dp3789
g73
(dp3790
sg82
g3775
sg75
(lp3791
g68
(g69
g70
NtRp3792
(dp3793
g73
(dp3794
g81
I5
ssg82
g3788
sg75
(lp3795
S'/home/rsoutelino/web2py/applications/rsoutelino/sessions/172.30.6.206-f98db23e-bea8-4c79-969d-761a19f38c4d'
p3796
asbasbasbag68
(g84
g70
NtRp3797
(dp3798
g73
(dp3799
sg82
g3066
sg75
(lp3800
g68
(g89
g70
NtRp3801
(dp3802
g73
(dp3803
g93
g94
ssg82
g3797
sg75
(lp3804
S'session_id'
p3805
asbag68
(g89
g70
NtRp3806
(dp3807
g73
(dp3808
g100
g101
ssg82
g3797
sg75
(lp3809
S':'
asbag68
(g89
g70
NtRp3810
(dp3811
g73
(dp3812
sg82
g3797
sg75
(lp3813
g68
(g69
g70
NtRp3814
(dp3815
g73
(dp3816
g81
I5
ssg82
g3810
sg75
(lp3817
g3136
asbasbasbag68
(g84
g70
NtRp3818
(dp3819
g73
(dp3820
sg82
g3066
sg75
(lp3821
g68
(g89
g70
NtRp3822
(dp3823
g73
(dp3824
g93
g94
ssg82
g3818
sg75
(lp3825
S'session_id_name'
p3826
asbag68
(g89
g70
NtRp3827
(dp3828
g73
(dp3829
g100
g101
ssg82
g3818
sg75
(lp3830
S':'
asbag68
(g89
g70
NtRp3831
(dp3832
g73
(dp3833
sg82
g3818
sg75
(lp3834
g68
(g69
g70
NtRp3835
(dp3836
g73
(dp3837
g81
I5
ssg82
g3831
sg75
(lp3838
g3123
asbasbasbag68
(g84
g70
NtRp3839
(dp3840
g73
(dp3841
sg82
g3066
sg75
(lp3842
g68
(g89
g70
NtRp3843
(dp3844
g73
(dp3845
g93
g94
ssg82
g3839
sg75
(lp3846
S'session_new'
p3847
asbag68
(g89
g70
NtRp3848
(dp3849
g73
(dp3850
g100
g101
ssg82
g3839
sg75
(lp3851
S':'
asbag68
(g89
g70
NtRp3852
(dp3853
g73
(dp3854
sg82
g3839
sg75
(lp3855
g68
(g69
g70
NtRp3856
(dp3857
g73
(dp3858
g81
I5
ssg82
g3852
sg75
(lp3859
S'True'
p3860
asbasbasbag68
(g84
g70
NtRp3861
(dp3862
g73
(dp3863
sg82
g3066
sg75
(lp3864
g68
(g89
g70
NtRp3865
(dp3866
g73
(dp3867
g93
g94
ssg82
g3861
sg75
(lp3868
S'session_storage_type'
p3869
asbag68
(g89
g70
NtRp3870
(dp3871
g73
(dp3872
g100
g101
ssg82
g3861
sg75
(lp3873
S':'
asbag68
(g89
g70
NtRp3874
(dp3875
g73
(dp3876
sg82
g3861
sg75
(lp3877
g68
(g69
g70
NtRp3878
(dp3879
g73
(dp3880
g81
I5
ssg82
g3874
sg75
(lp3881
g2995
asbasbasbag68
(g84
g70
NtRp3882
(dp3883
g73
(dp3884
sg82
g3066
sg75
(lp3885
g68
(g89
g70
NtRp3886
(dp3887
g73
(dp3888
g93
g94
ssg82
g3882
sg75
(lp3889
S'status'
p3890
asbag68
(g89
g70
NtRp3891
(dp3892
g73
(dp3893
g100
g101
ssg82
g3882
sg75
(lp3894
S':'
asbag68
(g89
g70
NtRp3895
(dp3896
g73
(dp3897
sg82
g3882
sg75
(lp3898
g68
(g69
g70
NtRp3899
(dp3900
g73
(dp3901
g81
I5
ssg82
g3895
sg75
(lp3902
S'200'
p3903
asbasbasbag68
(g84
g70
NtRp3904
(dp3905
g73
(dp3906
sg82
g3066
sg75
(lp3907
g68
(g89
g70
NtRp3908
(dp3909
g73
(dp3910
g93
g94
ssg82
g3904
sg75
(lp3911
S'subtitle'
p3912
asbag68
(g89
g70
NtRp3913
(dp3914
g73
(dp3915
g100
g101
ssg82
g3904
sg75
(lp3916
S':'
asbag68
(g89
g70
NtRp3917
(dp3918
g73
(dp3919
sg82
g3904
sg75
(lp3920
g68
(g69
g70
NtRp3921
(dp3922
g73
(dp3923
g81
I5
ssg82
g3917
sg75
(lp3924
cgluon.languages
lazyT_unpickle
p3925
(S's\x10\x00\x00\x00Rafael Soutelino'
tRp3926
asbasbasbag68
(g84
g70
NtRp3927
(dp3928
g73
(dp3929
sg82
g3066
sg75
(lp3930
g68
(g89
g70
NtRp3931
(dp3932
g73
(dp3933
g93
g94
ssg82
g3927
sg75
(lp3934
S'title'
p3935
asbag68
(g89
g70
NtRp3936
(dp3937
g73
(dp3938
g100
g101
ssg82
g3927
sg75
(lp3939
S':'
asbag68
(g89
g70
NtRp3940
(dp3941
g73
(dp3942
sg82
g3927
sg75
(lp3943
g68
(g69
g70
NtRp3944
(dp3945
g73
(dp3946
g81
I5
ssg82
g3940
sg75
(lp3947
S'Rafael Soutelino: Academic Website'
p3948
asbasbasbag68
(g84
g70
NtRp3949
(dp3950
g73
(dp3951
sg82
g3066
sg75
(lp3952
g68
(g89
g70
NtRp3953
(dp3954
g73
(dp3955
g93
g94
ssg82
g3949
sg75
(lp3956
S'view'
p3957
asbag68
(g89
g70
NtRp3958
(dp3959
g73
(dp3960
g100
g101
ssg82
g3949
sg75
(lp3961
S':'
asbag68
(g89
g70
NtRp3962
(dp3963
g73
(dp3964
sg82
g3949
sg75
(lp3965
g68
(g69
g70
NtRp3966
(dp3967
g73
(dp3968
g81
I5
ssg82
g3962
sg75
(lp3969
S'contact/contact.html'
p3970
asbasbasbasbasbsS'locals'
p3971
(dp3972
g4
S"'/home/rsoutelino/web2py/applications/rsoutelino/controllers/contact.py'"
p3973
sg6
S"'from Mail import *\\n\\ndef contact():\\n\\tform = SQLFO...m=form)\\nresponse._vars=response._caller(contact)\\n'"
p3974
sssS'traceback'
p3975
S'Traceback (most recent call last):\n  File "/home/rsoutelino/web2py/gluon/restricted.py", line 211, in restricted\n    ccode = compile2(code, layer)\n  File "/home/rsoutelino/web2py/gluon/restricted.py", line 194, in compile2\n    return compile(code.rstrip().replace(\'\\r\\n\', \'\\n\') + \'\\n\', layer, \'exec\')\n  File "/home/rsoutelino/web2py/applications/rsoutelino/controllers/contact.py", line 6\n    message = "%s %s %s" %(forms.vars.name, forms.vars.email, forms.vars.commentary)\n          ^\nIndentationError: expected an indented block\n'
p3976
s.