(dp1
S'output'
p2
S"<class 'sqlite3.IntegrityError'> column name is not unique"
p3
sS'layer'
p4
S'/home/rsoutelino/web2py/applications/rsoutelino/controllers/contact.py'
p5
sS'code'
p6
S'def contact():\n    form = SQLFORM(db.contacts,\n        labels = {"name":"Nome",\n                    "email":"E-mail", "tel":"Telefone",\n                    "adress":"Endereco", "commentary":"Comentario"})\n    if form.process().accepted:\n        message = ("Nome: %(name)s\\n"\n                    "E-mail: %(email)s\\n"\n                    "Telefone: %(tel)s\\n"\n                    "Endereco: %(adress)s\\n"\n                    "Comentario: %(commentary)s\\n")\n        if mail.my_mail_sender(to="rsoutelino@gmail.com", subject="You received a message through rsoutelino.com", reply_to=form.vars.email, message=message % form.vars):\n            response.flash=T("Your message was successfully sent!")\n        else:\n            response.flash="Ops, something went wrong, try again please..."\n    else:\n        response.flash="try again"\n\treturn dict(form=form)\n\n\n#        if form.process().accepted:\n#        message = "%s %s %s" %(form.vars.name, form.vars.email, form.vars.commentary)\n#        status = mail.send(to="rsoutelino@gmail.com", subject="You received a message through rsoutelino.com", reply_to=form.vars.email, message=[message])\n#        if status==True:\n#            response.flash=T("Your message was successfully sent!")\n#        else:\n#            response.flash="Ops, something went wrong, try again please..."\n#    else:\n#        response.flash="try again"\nresponse._vars=response._caller(contact)\n'
p7
sS'snapshot'
p8
(dp9
S'exception'
p10
(dp11
S'__module__'
p12
S"'sqlite3'"
p13
sS'__getslice__'
p14
S"<method-wrapper '__getslice__' of IntegrityError object>"
p15
sS'__str__'
p16
S"<method-wrapper '__str__' of IntegrityError object>"
p17
sS'__reduce__'
p18
S'<built-in method __reduce__ of IntegrityError object>'
p19
sS'__dict__'
p20
S'{}'
p21
sS'__sizeof__'
p22
S'<built-in method __sizeof__ of IntegrityError object>'
p23
sS'__weakref__'
p24
S'None'
p25
sS'__init__'
p26
S"<method-wrapper '__init__' of IntegrityError object>"
p27
sS'__setattr__'
p28
S"<method-wrapper '__setattr__' of IntegrityError object>"
p29
sS'__reduce_ex__'
p30
S'<built-in method __reduce_ex__ of IntegrityError object>'
p31
sS'__new__'
p32
S'<built-in method __new__ of type object>'
p33
sS'__format__'
p34
S'<built-in method __format__ of IntegrityError object>'
p35
sS'__class__'
p36
S"<class 'sqlite3.IntegrityError'>"
p37
sS'__doc__'
p38
S'None'
p39
sS'__getitem__'
p40
S"<method-wrapper '__getitem__' of IntegrityError object>"
p41
sS'__setstate__'
p42
S'<built-in method __setstate__ of IntegrityError object>'
p43
sS'__getattribute__'
p44
S"<method-wrapper '__getattribute__' of IntegrityError object>"
p45
sS'args'
p46
S"('column name is not unique',)"
p47
sS'__subclasshook__'
p48
S'<built-in method __subclasshook__ of type object>'
p49
sS'__unicode__'
p50
S'<built-in method __unicode__ of IntegrityError object>'
p51
sS'__delattr__'
p52
S"<method-wrapper '__delattr__' of IntegrityError object>"
p53
sS'__repr__'
p54
S"<method-wrapper '__repr__' of IntegrityError object>"
p55
sS'__hash__'
p56
S"<method-wrapper '__hash__' of IntegrityError object>"
p57
ssS'evalue'
p58
S'column name is not unique'
p59
sS'request'
p60
ccopy_reg
_reconstructor
p61
(cgluon.html
BEAUTIFY
p62
c__builtin__
object
p63
NtRp64
(dp65
S'attributes'
p66
(dp67
sS'components'
p68
(lp69
g61
(cgluon.html
TABLE
p70
g63
NtRp71
(dp72
g66
(dp73
S'level'
p74
I5
ssS'parent'
p75
Nsg68
(lp76
g61
(cgluon.html
TR
p77
g63
NtRp78
(dp79
g66
(dp80
sg75
g71
sg68
(lp81
g61
(cgluon.html
TD
p82
g63
NtRp83
(dp84
g66
(dp85
S'_style'
p86
S'font-weight:bold;vertical-align:top'
p87
ssg75
g78
sg68
(lp88
S'ajax'
p89
asbag61
(g82
g63
NtRp90
(dp91
g66
(dp92
S'_valign'
p93
S'top'
p94
ssg75
g78
sg68
(lp95
S':'
asbag61
(g82
g63
NtRp96
(dp97
g66
(dp98
sg75
g78
sg68
(lp99
g61
(g62
g63
NtRp100
(dp101
g66
(dp102
g74
I5
ssg75
g96
sg68
(lp103
S'False'
p104
asbasbasbag61
(g77
g63
NtRp105
(dp106
g66
(dp107
sg75
g71
sg68
(lp108
g61
(g82
g63
NtRp109
(dp110
g66
(dp111
g86
g87
ssg75
g105
sg68
(lp112
S'application'
p113
asbag61
(g82
g63
NtRp114
(dp115
g66
(dp116
g93
g94
ssg75
g105
sg68
(lp117
S':'
asbag61
(g82
g63
NtRp118
(dp119
g66
(dp120
sg75
g105
sg68
(lp121
g61
(g62
g63
NtRp122
(dp123
g66
(dp124
g74
I5
ssg75
g118
sg68
(lp125
S'rsoutelino'
p126
asbasbasbag61
(g77
g63
NtRp127
(dp128
g66
(dp129
sg75
g71
sg68
(lp130
g61
(g82
g63
NtRp131
(dp132
g66
(dp133
g86
g87
ssg75
g127
sg68
(lp134
g46
asbag61
(g82
g63
NtRp135
(dp136
g66
(dp137
g93
g94
ssg75
g127
sg68
(lp138
S':'
asbag61
(g82
g63
NtRp139
(dp140
g66
(dp141
sg75
g127
sg68
(lp142
g61
(g62
g63
NtRp143
(dp144
g66
(dp145
g74
I5
ssg75
g139
sg68
(lp146
g61
(g70
g63
NtRp147
(dp148
g66
(dp149
g74
I4
ssg75
Nsg68
(lp150
sbasbasbasbag61
(g77
g63
NtRp151
(dp152
g66
(dp153
sg75
g71
sg68
(lp154
g61
(g82
g63
NtRp155
(dp156
g66
(dp157
g86
g87
ssg75
g151
sg68
(lp158
S'body'
p159
asbag61
(g82
g63
NtRp160
(dp161
g66
(dp162
g93
g94
ssg75
g151
sg68
(lp163
S':'
asbag61
(g82
g63
NtRp164
(dp165
g66
(dp166
sg75
g151
sg68
(lp167
g61
(g62
g63
NtRp168
(dp169
g66
(dp170
g74
I5
ssg75
g164
sg68
(lp171
S"<open file '<fdopen>', mode 'w+b' at 0x2c5f150>"
p172
asbasbasbag61
(g77
g63
NtRp173
(dp174
g66
(dp175
sg75
g71
sg68
(lp176
g61
(g82
g63
NtRp177
(dp178
g66
(dp179
g86
g87
ssg75
g173
sg68
(lp180
S'cid'
p181
asbag61
(g82
g63
NtRp182
(dp183
g66
(dp184
g93
g94
ssg75
g173
sg68
(lp185
S':'
asbag61
(g82
g63
NtRp186
(dp187
g66
(dp188
sg75
g173
sg68
(lp189
g61
(g62
g63
NtRp190
(dp191
g66
(dp192
g74
I5
ssg75
g186
sg68
(lp193
S'None'
p194
asbasbasbag61
(g77
g63
NtRp195
(dp196
g66
(dp197
sg75
g71
sg68
(lp198
g61
(g82
g63
NtRp199
(dp200
g66
(dp201
g86
g87
ssg75
g195
sg68
(lp202
S'client'
p203
asbag61
(g82
g63
NtRp204
(dp205
g66
(dp206
g93
g94
ssg75
g195
sg68
(lp207
S':'
asbag61
(g82
g63
NtRp208
(dp209
g66
(dp210
sg75
g195
sg68
(lp211
g61
(g62
g63
NtRp212
(dp213
g66
(dp214
g74
I5
ssg75
g208
sg68
(lp215
S'172.30.6.206'
p216
asbasbasbag61
(g77
g63
NtRp217
(dp218
g66
(dp219
sg75
g71
sg68
(lp220
g61
(g82
g63
NtRp221
(dp222
g66
(dp223
g86
g87
ssg75
g217
sg68
(lp224
S'controller'
p225
asbag61
(g82
g63
NtRp226
(dp227
g66
(dp228
g93
g94
ssg75
g217
sg68
(lp229
S':'
asbag61
(g82
g63
NtRp230
(dp231
g66
(dp232
sg75
g217
sg68
(lp233
g61
(g62
g63
NtRp234
(dp235
g66
(dp236
g74
I5
ssg75
g230
sg68
(lp237
S'contact'
p238
asbasbasbag61
(g77
g63
NtRp239
(dp240
g66
(dp241
sg75
g71
sg68
(lp242
g61
(g82
g63
NtRp243
(dp244
g66
(dp245
g86
g87
ssg75
g239
sg68
(lp246
S'cookies'
p247
asbag61
(g82
g63
NtRp248
(dp249
g66
(dp250
g93
g94
ssg75
g239
sg68
(lp251
S':'
asbag61
(g82
g63
NtRp252
(dp253
g66
(dp254
sg75
g239
sg68
(lp255
g61
(g62
g63
NtRp256
(dp257
g66
(dp258
g74
I5
ssg75
g252
sg68
(lp259
g61
(g70
g63
NtRp260
(dp261
g66
(dp262
g74
I4
ssg75
Nsg68
(lp263
g61
(g77
g63
NtRp264
(dp265
g66
(dp266
sg75
g260
sg68
(lp267
g61
(g82
g63
NtRp268
(dp269
g66
(dp270
g86
g87
ssg75
g264
sg68
(lp271
S'session_id_rsoutelino'
p272
asbag61
(g82
g63
NtRp273
(dp274
g66
(dp275
g93
g94
ssg75
g264
sg68
(lp276
S':'
asbag61
(g82
g63
NtRp277
(dp278
g66
(dp279
sg75
g264
sg68
(lp280
g61
(g62
g63
NtRp281
(dp282
g66
(dp283
g74
I4
ssg75
g277
sg68
(lp284
S'172.30.6.206-16871bca-409f-481d-bcdc-3705bd27bb78'
p285
ag61
(g70
g63
NtRp286
(dp287
g66
(dp288
g74
I3
ssg75
Nsg68
(lp289
g61
(g77
g63
NtRp290
(dp291
g66
(dp292
sg75
g286
sg68
(lp293
g61
(g82
g63
NtRp294
(dp295
g66
(dp296
g86
g87
ssg75
g290
sg68
(lp297
S'comment'
p298
asbag61
(g82
g63
NtRp299
(dp300
g66
(dp301
g93
g94
ssg75
g290
sg68
(lp302
S':'
asbag61
(g82
g63
NtRp303
(dp304
g66
(dp305
sg75
g290
sg68
(lp306
g61
(g62
g63
NtRp307
(dp308
g66
(dp309
g74
I3
ssg75
g303
sg68
(lp310
S''
asbasbasbag61
(g77
g63
NtRp311
(dp312
g66
(dp313
sg75
g286
sg68
(lp314
g61
(g82
g63
NtRp315
(dp316
g66
(dp317
g86
g87
ssg75
g311
sg68
(lp318
S'domain'
p319
asbag61
(g82
g63
NtRp320
(dp321
g66
(dp322
g93
g94
ssg75
g311
sg68
(lp323
S':'
asbag61
(g82
g63
NtRp324
(dp325
g66
(dp326
sg75
g311
sg68
(lp327
g61
(g62
g63
NtRp328
(dp329
g66
(dp330
g74
I3
ssg75
g324
sg68
(lp331
S''
asbasbasbag61
(g77
g63
NtRp332
(dp333
g66
(dp334
sg75
g286
sg68
(lp335
g61
(g82
g63
NtRp336
(dp337
g66
(dp338
g86
g87
ssg75
g332
sg68
(lp339
S'expires'
p340
asbag61
(g82
g63
NtRp341
(dp342
g66
(dp343
g93
g94
ssg75
g332
sg68
(lp344
S':'
asbag61
(g82
g63
NtRp345
(dp346
g66
(dp347
sg75
g332
sg68
(lp348
g61
(g62
g63
NtRp349
(dp350
g66
(dp351
g74
I3
ssg75
g345
sg68
(lp352
S''
asbasbasbag61
(g77
g63
NtRp353
(dp354
g66
(dp355
sg75
g286
sg68
(lp356
g61
(g82
g63
NtRp357
(dp358
g66
(dp359
g86
g87
ssg75
g353
sg68
(lp360
S'httponly'
p361
asbag61
(g82
g63
NtRp362
(dp363
g66
(dp364
g93
g94
ssg75
g353
sg68
(lp365
S':'
asbag61
(g82
g63
NtRp366
(dp367
g66
(dp368
sg75
g353
sg68
(lp369
g61
(g62
g63
NtRp370
(dp371
g66
(dp372
g74
I3
ssg75
g366
sg68
(lp373
S''
asbasbasbag61
(g77
g63
NtRp374
(dp375
g66
(dp376
sg75
g286
sg68
(lp377
g61
(g82
g63
NtRp378
(dp379
g66
(dp380
g86
g87
ssg75
g374
sg68
(lp381
S'max-age'
p382
asbag61
(g82
g63
NtRp383
(dp384
g66
(dp385
g93
g94
ssg75
g374
sg68
(lp386
S':'
asbag61
(g82
g63
NtRp387
(dp388
g66
(dp389
sg75
g374
sg68
(lp390
g61
(g62
g63
NtRp391
(dp392
g66
(dp393
g74
I3
ssg75
g387
sg68
(lp394
S''
asbasbasbag61
(g77
g63
NtRp395
(dp396
g66
(dp397
sg75
g286
sg68
(lp398
g61
(g82
g63
NtRp399
(dp400
g66
(dp401
g86
g87
ssg75
g395
sg68
(lp402
S'path'
p403
asbag61
(g82
g63
NtRp404
(dp405
g66
(dp406
g93
g94
ssg75
g395
sg68
(lp407
S':'
asbag61
(g82
g63
NtRp408
(dp409
g66
(dp410
sg75
g395
sg68
(lp411
g61
(g62
g63
NtRp412
(dp413
g66
(dp414
g74
I3
ssg75
g408
sg68
(lp415
S''
asbasbasbag61
(g77
g63
NtRp416
(dp417
g66
(dp418
sg75
g286
sg68
(lp419
g61
(g82
g63
NtRp420
(dp421
g66
(dp422
g86
g87
ssg75
g416
sg68
(lp423
S'secure'
p424
asbag61
(g82
g63
NtRp425
(dp426
g66
(dp427
g93
g94
ssg75
g416
sg68
(lp428
S':'
asbag61
(g82
g63
NtRp429
(dp430
g66
(dp431
sg75
g416
sg68
(lp432
g61
(g62
g63
NtRp433
(dp434
g66
(dp435
g74
I3
ssg75
g429
sg68
(lp436
S''
asbasbasbag61
(g77
g63
NtRp437
(dp438
g66
(dp439
sg75
g286
sg68
(lp440
g61
(g82
g63
NtRp441
(dp442
g66
(dp443
g86
g87
ssg75
g437
sg68
(lp444
S'version'
p445
asbag61
(g82
g63
NtRp446
(dp447
g66
(dp448
g93
g94
ssg75
g437
sg68
(lp449
S':'
asbag61
(g82
g63
NtRp450
(dp451
g66
(dp452
sg75
g437
sg68
(lp453
g61
(g62
g63
NtRp454
(dp455
g66
(dp456
g74
I3
ssg75
g450
sg68
(lp457
S''
asbasbasbasbasbasbasbasbasbasbasbag61
(g77
g63
NtRp458
(dp459
g66
(dp460
sg75
g71
sg68
(lp461
g61
(g82
g63
NtRp462
(dp463
g66
(dp464
g86
g87
ssg75
g458
sg68
(lp465
S'env'
p466
asbag61
(g82
g63
NtRp467
(dp468
g66
(dp469
g93
g94
ssg75
g458
sg68
(lp470
S':'
asbag61
(g82
g63
NtRp471
(dp472
g66
(dp473
sg75
g458
sg68
(lp474
g61
(g62
g63
NtRp475
(dp476
g66
(dp477
g74
I5
ssg75
g471
sg68
(lp478
g61
(g70
g63
NtRp479
(dp480
g66
(dp481
g74
I4
ssg75
Nsg68
(lp482
g61
(g77
g63
NtRp483
(dp484
g66
(dp485
sg75
g479
sg68
(lp486
g61
(g82
g63
NtRp487
(dp488
g66
(dp489
g86
g87
ssg75
g483
sg68
(lp490
S'app_folders'
p491
asbag61
(g82
g63
NtRp492
(dp493
g66
(dp494
g93
g94
ssg75
g483
sg68
(lp495
S':'
asbag61
(g82
g63
NtRp496
(dp497
g66
(dp498
sg75
g483
sg68
(lp499
g61
(g62
g63
NtRp500
(dp501
g66
(dp502
g74
I4
ssg75
g496
sg68
(lp503
S"set(['/home/rsoutelino/web2py/applications/rsoutelino/', '/home/rsoutelino/web2py/applications/admin/'])"
p504
asbasbasbag61
(g77
g63
NtRp505
(dp506
g66
(dp507
sg75
g479
sg68
(lp508
g61
(g82
g63
NtRp509
(dp510
g66
(dp511
g86
g87
ssg75
g505
sg68
(lp512
S'applications_parent'
p513
asbag61
(g82
g63
NtRp514
(dp515
g66
(dp516
g93
g94
ssg75
g505
sg68
(lp517
S':'
asbag61
(g82
g63
NtRp518
(dp519
g66
(dp520
sg75
g505
sg68
(lp521
g61
(g62
g63
NtRp522
(dp523
g66
(dp524
g74
I4
ssg75
g518
sg68
(lp525
S'/home/rsoutelino/web2py'
p526
asbasbasbag61
(g77
g63
NtRp527
(dp528
g66
(dp529
sg75
g479
sg68
(lp530
g61
(g82
g63
NtRp531
(dp532
g66
(dp533
g86
g87
ssg75
g527
sg68
(lp534
S'content_length'
p535
asbag61
(g82
g63
NtRp536
(dp537
g66
(dp538
g93
g94
ssg75
g527
sg68
(lp539
S':'
asbag61
(g82
g63
NtRp540
(dp541
g66
(dp542
sg75
g527
sg68
(lp543
g61
(g62
g63
NtRp544
(dp545
g66
(dp546
g74
I4
ssg75
g540
sg68
(lp547
S'802'
p548
asbasbasbag61
(g77
g63
NtRp549
(dp550
g66
(dp551
sg75
g479
sg68
(lp552
g61
(g82
g63
NtRp553
(dp554
g66
(dp555
g86
g87
ssg75
g549
sg68
(lp556
S'content_type'
p557
asbag61
(g82
g63
NtRp558
(dp559
g66
(dp560
g93
g94
ssg75
g549
sg68
(lp561
S':'
asbag61
(g82
g63
NtRp562
(dp563
g66
(dp564
sg75
g549
sg68
(lp565
g61
(g62
g63
NtRp566
(dp567
g66
(dp568
g74
I4
ssg75
g562
sg68
(lp569
S'multipart/form-data; boundary=----WebKitFormBoundary2OoK6JNdUaySiVDO'
p570
asbasbasbag61
(g77
g63
NtRp571
(dp572
g66
(dp573
sg75
g479
sg68
(lp574
g61
(g82
g63
NtRp575
(dp576
g66
(dp577
g86
g87
ssg75
g571
sg68
(lp578
S'db_sessions'
p579
asbag61
(g82
g63
NtRp580
(dp581
g66
(dp582
g93
g94
ssg75
g571
sg68
(lp583
S':'
asbag61
(g82
g63
NtRp584
(dp585
g66
(dp586
sg75
g571
sg68
(lp587
g61
(g62
g63
NtRp588
(dp589
g66
(dp590
g74
I4
ssg75
g584
sg68
(lp591
S'set([])'
p592
asbasbasbag61
(g77
g63
NtRp593
(dp594
g66
(dp595
sg75
g479
sg68
(lp596
g61
(g82
g63
NtRp597
(dp598
g66
(dp599
g86
g87
ssg75
g593
sg68
(lp600
S'debugging'
p601
asbag61
(g82
g63
NtRp602
(dp603
g66
(dp604
g93
g94
ssg75
g593
sg68
(lp605
S':'
asbag61
(g82
g63
NtRp606
(dp607
g66
(dp608
sg75
g593
sg68
(lp609
g61
(g62
g63
NtRp610
(dp611
g66
(dp612
g74
I4
ssg75
g606
sg68
(lp613
g104
asbasbasbag61
(g77
g63
NtRp614
(dp615
g66
(dp616
sg75
g479
sg68
(lp617
g61
(g82
g63
NtRp618
(dp619
g66
(dp620
g86
g87
ssg75
g614
sg68
(lp621
S'document_root'
p622
asbag61
(g82
g63
NtRp623
(dp624
g66
(dp625
g93
g94
ssg75
g614
sg68
(lp626
S':'
asbag61
(g82
g63
NtRp627
(dp628
g66
(dp629
sg75
g614
sg68
(lp630
g61
(g62
g63
NtRp631
(dp632
g66
(dp633
g74
I4
ssg75
g627
sg68
(lp634
S'/var/log/nginx/user_logs'
p635
asbasbasbag61
(g77
g63
NtRp636
(dp637
g66
(dp638
sg75
g479
sg68
(lp639
g61
(g82
g63
NtRp640
(dp641
g66
(dp642
g86
g87
ssg75
g636
sg68
(lp643
S'gluon_parent'
p644
asbag61
(g82
g63
NtRp645
(dp646
g66
(dp647
g93
g94
ssg75
g636
sg68
(lp648
S':'
asbag61
(g82
g63
NtRp649
(dp650
g66
(dp651
sg75
g636
sg68
(lp652
g61
(g62
g63
NtRp653
(dp654
g66
(dp655
g74
I4
ssg75
g649
sg68
(lp656
g526
asbasbasbag61
(g77
g63
NtRp657
(dp658
g66
(dp659
sg75
g479
sg68
(lp660
g61
(g82
g63
NtRp661
(dp662
g66
(dp663
g86
g87
ssg75
g657
sg68
(lp664
S'http_accept'
p665
asbag61
(g82
g63
NtRp666
(dp667
g66
(dp668
g93
g94
ssg75
g657
sg68
(lp669
S':'
asbag61
(g82
g63
NtRp670
(dp671
g66
(dp672
sg75
g657
sg68
(lp673
g61
(g62
g63
NtRp674
(dp675
g66
(dp676
g74
I4
ssg75
g670
sg68
(lp677
S'text/html,application/xhtml+xml,application/xml;q=0.9,*/*;q=0.8'
p678
asbasbasbag61
(g77
g63
NtRp679
(dp680
g66
(dp681
sg75
g479
sg68
(lp682
g61
(g82
g63
NtRp683
(dp684
g66
(dp685
g86
g87
ssg75
g679
sg68
(lp686
S'http_accept_charset'
p687
asbag61
(g82
g63
NtRp688
(dp689
g66
(dp690
g93
g94
ssg75
g679
sg68
(lp691
S':'
asbag61
(g82
g63
NtRp692
(dp693
g66
(dp694
sg75
g679
sg68
(lp695
g61
(g62
g63
NtRp696
(dp697
g66
(dp698
g74
I4
ssg75
g692
sg68
(lp699
S'ISO-8859-1,utf-8;q=0.7,*;q=0.3'
p700
asbasbasbag61
(g77
g63
NtRp701
(dp702
g66
(dp703
sg75
g479
sg68
(lp704
g61
(g82
g63
NtRp705
(dp706
g66
(dp707
g86
g87
ssg75
g701
sg68
(lp708
S'http_accept_encoding'
p709
asbag61
(g82
g63
NtRp710
(dp711
g66
(dp712
g93
g94
ssg75
g701
sg68
(lp713
S':'
asbag61
(g82
g63
NtRp714
(dp715
g66
(dp716
sg75
g701
sg68
(lp717
g61
(g62
g63
NtRp718
(dp719
g66
(dp720
g74
I4
ssg75
g714
sg68
(lp721
S'gzip,deflate,sdch'
p722
asbasbasbag61
(g77
g63
NtRp723
(dp724
g66
(dp725
sg75
g479
sg68
(lp726
g61
(g82
g63
NtRp727
(dp728
g66
(dp729
g86
g87
ssg75
g723
sg68
(lp730
S'http_accept_language'
p731
asbag61
(g82
g63
NtRp732
(dp733
g66
(dp734
g93
g94
ssg75
g723
sg68
(lp735
S':'
asbag61
(g82
g63
NtRp736
(dp737
g66
(dp738
sg75
g723
sg68
(lp739
g61
(g62
g63
NtRp740
(dp741
g66
(dp742
g74
I4
ssg75
g736
sg68
(lp743
S'en-US,en;q=0.8'
p744
asbasbasbag61
(g77
g63
NtRp745
(dp746
g66
(dp747
sg75
g479
sg68
(lp748
g61
(g82
g63
NtRp749
(dp750
g66
(dp751
g86
g87
ssg75
g745
sg68
(lp752
S'http_cache_control'
p753
asbag61
(g82
g63
NtRp754
(dp755
g66
(dp756
g93
g94
ssg75
g745
sg68
(lp757
S':'
asbag61
(g82
g63
NtRp758
(dp759
g66
(dp760
sg75
g745
sg68
(lp761
g61
(g62
g63
NtRp762
(dp763
g66
(dp764
g74
I4
ssg75
g758
sg68
(lp765
S'max-age=0'
p766
asbasbasbag61
(g77
g63
NtRp767
(dp768
g66
(dp769
sg75
g479
sg68
(lp770
g61
(g82
g63
NtRp771
(dp772
g66
(dp773
g86
g87
ssg75
g767
sg68
(lp774
S'http_connection'
p775
asbag61
(g82
g63
NtRp776
(dp777
g66
(dp778
g93
g94
ssg75
g767
sg68
(lp779
S':'
asbag61
(g82
g63
NtRp780
(dp781
g66
(dp782
sg75
g767
sg68
(lp783
g61
(g62
g63
NtRp784
(dp785
g66
(dp786
g74
I4
ssg75
g780
sg68
(lp787
S'Keep-Alive'
p788
asbasbasbag61
(g77
g63
NtRp789
(dp790
g66
(dp791
sg75
g479
sg68
(lp792
g61
(g82
g63
NtRp793
(dp794
g66
(dp795
g86
g87
ssg75
g789
sg68
(lp796
S'http_content_length'
p797
asbag61
(g82
g63
NtRp798
(dp799
g66
(dp800
g93
g94
ssg75
g789
sg68
(lp801
S':'
asbag61
(g82
g63
NtRp802
(dp803
g66
(dp804
sg75
g789
sg68
(lp805
g61
(g62
g63
NtRp806
(dp807
g66
(dp808
g74
I4
ssg75
g802
sg68
(lp809
S'802'
p810
asbasbasbag61
(g77
g63
NtRp811
(dp812
g66
(dp813
sg75
g479
sg68
(lp814
g61
(g82
g63
NtRp815
(dp816
g66
(dp817
g86
g87
ssg75
g811
sg68
(lp818
S'http_content_type'
p819
asbag61
(g82
g63
NtRp820
(dp821
g66
(dp822
g93
g94
ssg75
g811
sg68
(lp823
S':'
asbag61
(g82
g63
NtRp824
(dp825
g66
(dp826
sg75
g811
sg68
(lp827
g61
(g62
g63
NtRp828
(dp829
g66
(dp830
g74
I4
ssg75
g824
sg68
(lp831
S'multipart/form-data; boundary=----WebKitFormBoundary2OoK6JNdUaySiVDO'
p832
asbasbasbag61
(g77
g63
NtRp833
(dp834
g66
(dp835
sg75
g479
sg68
(lp836
g61
(g82
g63
NtRp837
(dp838
g66
(dp839
g86
g87
ssg75
g833
sg68
(lp840
S'http_cookie'
p841
asbag61
(g82
g63
NtRp842
(dp843
g66
(dp844
g93
g94
ssg75
g833
sg68
(lp845
S':'
asbag61
(g82
g63
NtRp846
(dp847
g66
(dp848
sg75
g833
sg68
(lp849
g61
(g62
g63
NtRp850
(dp851
g66
(dp852
g74
I4
ssg75
g846
sg68
(lp853
S'session_id_rsoutelino=172.30.6.206-16871bca-409f-481d-bcdc-3705bd27bb78'
p854
asbasbasbag61
(g77
g63
NtRp855
(dp856
g66
(dp857
sg75
g479
sg68
(lp858
g61
(g82
g63
NtRp859
(dp860
g66
(dp861
g86
g87
ssg75
g855
sg68
(lp862
S'http_host'
p863
asbag61
(g82
g63
NtRp864
(dp865
g66
(dp866
g93
g94
ssg75
g855
sg68
(lp867
S':'
asbag61
(g82
g63
NtRp868
(dp869
g66
(dp870
sg75
g855
sg68
(lp871
g61
(g62
g63
NtRp872
(dp873
g66
(dp874
g74
I4
ssg75
g868
sg68
(lp875
S'www.rsoutelino.com'
p876
asbasbasbag61
(g77
g63
NtRp877
(dp878
g66
(dp879
sg75
g479
sg68
(lp880
g61
(g82
g63
NtRp881
(dp882
g66
(dp883
g86
g87
ssg75
g877
sg68
(lp884
S'http_origin'
p885
asbag61
(g82
g63
NtRp886
(dp887
g66
(dp888
g93
g94
ssg75
g877
sg68
(lp889
S':'
asbag61
(g82
g63
NtRp890
(dp891
g66
(dp892
sg75
g877
sg68
(lp893
g61
(g62
g63
NtRp894
(dp895
g66
(dp896
g74
I4
ssg75
g890
sg68
(lp897
S'http://www.rsoutelino.com'
p898
asbasbasbag61
(g77
g63
NtRp899
(dp900
g66
(dp901
sg75
g479
sg68
(lp902
g61
(g82
g63
NtRp903
(dp904
g66
(dp905
g86
g87
ssg75
g899
sg68
(lp906
S'http_referer'
p907
asbag61
(g82
g63
NtRp908
(dp909
g66
(dp910
g93
g94
ssg75
g899
sg68
(lp911
S':'
asbag61
(g82
g63
NtRp912
(dp913
g66
(dp914
sg75
g899
sg68
(lp915
g61
(g62
g63
NtRp916
(dp917
g66
(dp918
g74
I4
ssg75
g912
sg68
(lp919
S'http://www.rsoutelino.com/rsoutelino/contact/contact'
p920
asbasbasbag61
(g77
g63
NtRp921
(dp922
g66
(dp923
sg75
g479
sg68
(lp924
g61
(g82
g63
NtRp925
(dp926
g66
(dp927
g86
g87
ssg75
g921
sg68
(lp928
S'http_user_agent'
p929
asbag61
(g82
g63
NtRp930
(dp931
g66
(dp932
g93
g94
ssg75
g921
sg68
(lp933
S':'
asbag61
(g82
g63
NtRp934
(dp935
g66
(dp936
sg75
g921
sg68
(lp937
g61
(g62
g63
NtRp938
(dp939
g66
(dp940
g74
I4
ssg75
g934
sg68
(lp941
S'Mozilla/5.0 (X11; Linux x86_64) AppleWebKit/537.17 (KHTML, like Gecko) Chrome/24.0.1312.57 Safari/537.17'
p942
asbasbasbag61
(g77
g63
NtRp943
(dp944
g66
(dp945
sg75
g479
sg68
(lp946
g61
(g82
g63
NtRp947
(dp948
g66
(dp949
g86
g87
ssg75
g943
sg68
(lp950
S'http_via'
p951
asbag61
(g82
g63
NtRp952
(dp953
g66
(dp954
g93
g94
ssg75
g943
sg68
(lp955
S':'
asbag61
(g82
g63
NtRp956
(dp957
g66
(dp958
sg75
g943
sg68
(lp959
g61
(g62
g63
NtRp960
(dp961
g66
(dp962
g74
I4
ssg75
g956
sg68
(lp963
S'1.1 10.6.32.12 (McAfee Web Gateway 7.2.0.4.0.14188)'
p964
asbasbasbag61
(g77
g63
NtRp965
(dp966
g66
(dp967
sg75
g479
sg68
(lp968
g61
(g82
g63
NtRp969
(dp970
g66
(dp971
g86
g87
ssg75
g965
sg68
(lp972
S'http_x_forwarded_for'
p973
asbag61
(g82
g63
NtRp974
(dp975
g66
(dp976
g93
g94
ssg75
g965
sg68
(lp977
S':'
asbag61
(g82
g63
NtRp978
(dp979
g66
(dp980
sg75
g965
sg68
(lp981
g61
(g62
g63
NtRp982
(dp983
g66
(dp984
g74
I4
ssg75
g978
sg68
(lp985
g216
asbasbasbag61
(g77
g63
NtRp986
(dp987
g66
(dp988
sg75
g479
sg68
(lp989
g61
(g82
g63
NtRp990
(dp991
g66
(dp992
g86
g87
ssg75
g986
sg68
(lp993
S'is_jython'
p994
asbag61
(g82
g63
NtRp995
(dp996
g66
(dp997
g93
g94
ssg75
g986
sg68
(lp998
S':'
asbag61
(g82
g63
NtRp999
(dp1000
g66
(dp1001
sg75
g986
sg68
(lp1002
g61
(g62
g63
NtRp1003
(dp1004
g66
(dp1005
g74
I4
ssg75
g999
sg68
(lp1006
g104
asbasbasbag61
(g77
g63
NtRp1007
(dp1008
g66
(dp1009
sg75
g479
sg68
(lp1010
g61
(g82
g63
NtRp1011
(dp1012
g66
(dp1013
g86
g87
ssg75
g1007
sg68
(lp1014
S'is_pypy'
p1015
asbag61
(g82
g63
NtRp1016
(dp1017
g66
(dp1018
g93
g94
ssg75
g1007
sg68
(lp1019
S':'
asbag61
(g82
g63
NtRp1020
(dp1021
g66
(dp1022
sg75
g1007
sg68
(lp1023
g61
(g62
g63
NtRp1024
(dp1025
g66
(dp1026
g74
I4
ssg75
g1020
sg68
(lp1027
g104
asbasbasbag61
(g77
g63
NtRp1028
(dp1029
g66
(dp1030
sg75
g479
sg68
(lp1031
g61
(g82
g63
NtRp1032
(dp1033
g66
(dp1034
g86
g87
ssg75
g1028
sg68
(lp1035
S'local_hosts'
p1036
asbag61
(g82
g63
NtRp1037
(dp1038
g66
(dp1039
g93
g94
ssg75
g1028
sg68
(lp1040
S':'
asbag61
(g82
g63
NtRp1041
(dp1042
g66
(dp1043
sg75
g1028
sg68
(lp1044
g61
(g62
g63
NtRp1045
(dp1046
g66
(dp1047
g74
I4
ssg75
g1041
sg68
(lp1048
g61
(g70
g63
NtRp1049
(dp1050
g66
(dp1051
g74
I3
ssg75
Nsg68
(lp1052
g61
(g77
g63
NtRp1053
(dp1054
g66
(dp1055
sg75
g1049
sg68
(lp1056
g61
(g82
g63
NtRp1057
(dp1058
g66
(dp1059
sg75
g1053
sg68
(lp1060
g61
(g62
g63
NtRp1061
(dp1062
g66
(dp1063
g74
I3
ssg75
g1057
sg68
(lp1064
S'127.0.0.1'
p1065
asbasbasbag61
(g77
g63
NtRp1066
(dp1067
g66
(dp1068
sg75
g1049
sg68
(lp1069
g61
(g82
g63
NtRp1070
(dp1071
g66
(dp1072
sg75
g1066
sg68
(lp1073
g61
(g62
g63
NtRp1074
(dp1075
g66
(dp1076
g74
I3
ssg75
g1070
sg68
(lp1077
S'::ffff:127.0.0.1'
p1078
asbasbasbag61
(g77
g63
NtRp1079
(dp1080
g66
(dp1081
sg75
g1049
sg68
(lp1082
g61
(g82
g63
NtRp1083
(dp1084
g66
(dp1085
sg75
g1079
sg68
(lp1086
g61
(g62
g63
NtRp1087
(dp1088
g66
(dp1089
g74
I3
ssg75
g1083
sg68
(lp1090
S'hansel-liveweb'
p1091
asbasbasbasbasbasbasbag61
(g77
g63
NtRp1092
(dp1093
g66
(dp1094
sg75
g479
sg68
(lp1095
g61
(g82
g63
NtRp1096
(dp1097
g66
(dp1098
g86
g87
ssg75
g1092
sg68
(lp1099
S'path_info'
p1100
asbag61
(g82
g63
NtRp1101
(dp1102
g66
(dp1103
g93
g94
ssg75
g1092
sg68
(lp1104
S':'
asbag61
(g82
g63
NtRp1105
(dp1106
g66
(dp1107
sg75
g1092
sg68
(lp1108
g61
(g62
g63
NtRp1109
(dp1110
g66
(dp1111
g74
I4
ssg75
g1105
sg68
(lp1112
S'/rsoutelino/contact/contact'
p1113
asbasbasbag61
(g77
g63
NtRp1114
(dp1115
g66
(dp1116
sg75
g479
sg68
(lp1117
g61
(g82
g63
NtRp1118
(dp1119
g66
(dp1120
g86
g87
ssg75
g1114
sg68
(lp1121
S'query_string'
p1122
asbag61
(g82
g63
NtRp1123
(dp1124
g66
(dp1125
g93
g94
ssg75
g1114
sg68
(lp1126
S':'
asbag61
(g82
g63
NtRp1127
(dp1128
g66
(dp1129
sg75
g1114
sg68
(lp1130
g61
(g62
g63
NtRp1131
(dp1132
g66
(dp1133
g74
I4
ssg75
g1127
sg68
(lp1134
S''
asbasbasbag61
(g77
g63
NtRp1135
(dp1136
g66
(dp1137
sg75
g479
sg68
(lp1138
g61
(g82
g63
NtRp1139
(dp1140
g66
(dp1141
g86
g87
ssg75
g1135
sg68
(lp1142
S'remote_addr'
p1143
asbag61
(g82
g63
NtRp1144
(dp1145
g66
(dp1146
g93
g94
ssg75
g1135
sg68
(lp1147
S':'
asbag61
(g82
g63
NtRp1148
(dp1149
g66
(dp1150
sg75
g1135
sg68
(lp1151
g61
(g62
g63
NtRp1152
(dp1153
g66
(dp1154
g74
I4
ssg75
g1148
sg68
(lp1155
S'189.125.114.245'
p1156
asbasbasbag61
(g77
g63
NtRp1157
(dp1158
g66
(dp1159
sg75
g479
sg68
(lp1160
g61
(g82
g63
NtRp1161
(dp1162
g66
(dp1163
g86
g87
ssg75
g1157
sg68
(lp1164
S'remote_port'
p1165
asbag61
(g82
g63
NtRp1166
(dp1167
g66
(dp1168
g93
g94
ssg75
g1157
sg68
(lp1169
S':'
asbag61
(g82
g63
NtRp1170
(dp1171
g66
(dp1172
sg75
g1157
sg68
(lp1173
g61
(g62
g63
NtRp1174
(dp1175
g66
(dp1176
g74
I4
ssg75
g1170
sg68
(lp1177
S'33290'
p1178
asbasbasbag61
(g77
g63
NtRp1179
(dp1180
g66
(dp1181
sg75
g479
sg68
(lp1182
g61
(g82
g63
NtRp1183
(dp1184
g66
(dp1185
g86
g87
ssg75
g1179
sg68
(lp1186
S'request_method'
p1187
asbag61
(g82
g63
NtRp1188
(dp1189
g66
(dp1190
g93
g94
ssg75
g1179
sg68
(lp1191
S':'
asbag61
(g82
g63
NtRp1192
(dp1193
g66
(dp1194
sg75
g1179
sg68
(lp1195
g61
(g62
g63
NtRp1196
(dp1197
g66
(dp1198
g74
I4
ssg75
g1192
sg68
(lp1199
S'POST'
p1200
asbasbasbag61
(g77
g63
NtRp1201
(dp1202
g66
(dp1203
sg75
g479
sg68
(lp1204
g61
(g82
g63
NtRp1205
(dp1206
g66
(dp1207
g86
g87
ssg75
g1201
sg68
(lp1208
S'request_uri'
p1209
asbag61
(g82
g63
NtRp1210
(dp1211
g66
(dp1212
g93
g94
ssg75
g1201
sg68
(lp1213
S':'
asbag61
(g82
g63
NtRp1214
(dp1215
g66
(dp1216
sg75
g1201
sg68
(lp1217
g61
(g62
g63
NtRp1218
(dp1219
g66
(dp1220
g74
I4
ssg75
g1214
sg68
(lp1221
S'/rsoutelino/contact/contact'
p1222
asbasbasbag61
(g77
g63
NtRp1223
(dp1224
g66
(dp1225
sg75
g479
sg68
(lp1226
g61
(g82
g63
NtRp1227
(dp1228
g66
(dp1229
g86
g87
ssg75
g1223
sg68
(lp1230
S'script_name'
p1231
asbag61
(g82
g63
NtRp1232
(dp1233
g66
(dp1234
g93
g94
ssg75
g1223
sg68
(lp1235
S':'
asbag61
(g82
g63
NtRp1236
(dp1237
g66
(dp1238
sg75
g1223
sg68
(lp1239
g61
(g62
g63
NtRp1240
(dp1241
g66
(dp1242
g74
I4
ssg75
g1236
sg68
(lp1243
S''
asbasbasbag61
(g77
g63
NtRp1244
(dp1245
g66
(dp1246
sg75
g479
sg68
(lp1247
g61
(g82
g63
NtRp1248
(dp1249
g66
(dp1250
g86
g87
ssg75
g1244
sg68
(lp1251
S'server_name'
p1252
asbag61
(g82
g63
NtRp1253
(dp1254
g66
(dp1255
g93
g94
ssg75
g1244
sg68
(lp1256
S':'
asbag61
(g82
g63
NtRp1257
(dp1258
g66
(dp1259
sg75
g1244
sg68
(lp1260
g61
(g62
g63
NtRp1261
(dp1262
g66
(dp1263
g74
I4
ssg75
g1257
sg68
(lp1264
S'~(?<domain>.+)$'
p1265
asbasbasbag61
(g77
g63
NtRp1266
(dp1267
g66
(dp1268
sg75
g479
sg68
(lp1269
g61
(g82
g63
NtRp1270
(dp1271
g66
(dp1272
g86
g87
ssg75
g1266
sg68
(lp1273
S'server_port'
p1274
asbag61
(g82
g63
NtRp1275
(dp1276
g66
(dp1277
g93
g94
ssg75
g1266
sg68
(lp1278
S':'
asbag61
(g82
g63
NtRp1279
(dp1280
g66
(dp1281
sg75
g1266
sg68
(lp1282
g61
(g62
g63
NtRp1283
(dp1284
g66
(dp1285
g74
I4
ssg75
g1279
sg68
(lp1286
S'80'
p1287
asbasbasbag61
(g77
g63
NtRp1288
(dp1289
g66
(dp1290
sg75
g479
sg68
(lp1291
g61
(g82
g63
NtRp1292
(dp1293
g66
(dp1294
g86
g87
ssg75
g1288
sg68
(lp1295
S'server_protocol'
p1296
asbag61
(g82
g63
NtRp1297
(dp1298
g66
(dp1299
g93
g94
ssg75
g1288
sg68
(lp1300
S':'
asbag61
(g82
g63
NtRp1301
(dp1302
g66
(dp1303
sg75
g1288
sg68
(lp1304
g61
(g62
g63
NtRp1305
(dp1306
g66
(dp1307
g74
I4
ssg75
g1301
sg68
(lp1308
S'HTTP/1.1'
p1309
asbasbasbag61
(g77
g63
NtRp1310
(dp1311
g66
(dp1312
sg75
g479
sg68
(lp1313
g61
(g82
g63
NtRp1314
(dp1315
g66
(dp1316
g86
g87
ssg75
g1310
sg68
(lp1317
S'uwsgi_node'
p1318
asbag61
(g82
g63
NtRp1319
(dp1320
g66
(dp1321
g93
g94
ssg75
g1310
sg68
(lp1322
S':'
asbag61
(g82
g63
NtRp1323
(dp1324
g66
(dp1325
sg75
g1310
sg68
(lp1326
g61
(g62
g63
NtRp1327
(dp1328
g66
(dp1329
g74
I4
ssg75
g1323
sg68
(lp1330
S'hansel-liveweb'
p1331
asbasbasbag61
(g77
g63
NtRp1332
(dp1333
g66
(dp1334
sg75
g479
sg68
(lp1335
g61
(g82
g63
NtRp1336
(dp1337
g66
(dp1338
g86
g87
ssg75
g1332
sg68
(lp1339
S'uwsgi_version'
p1340
asbag61
(g82
g63
NtRp1341
(dp1342
g66
(dp1343
g93
g94
ssg75
g1332
sg68
(lp1344
S':'
asbag61
(g82
g63
NtRp1345
(dp1346
g66
(dp1347
sg75
g1332
sg68
(lp1348
g61
(g62
g63
NtRp1349
(dp1350
g66
(dp1351
g74
I4
ssg75
g1345
sg68
(lp1352
S'1.4.4'
p1353
asbasbasbag61
(g77
g63
NtRp1354
(dp1355
g66
(dp1356
sg75
g479
sg68
(lp1357
g61
(g82
g63
NtRp1358
(dp1359
g66
(dp1360
g86
g87
ssg75
g1354
sg68
(lp1361
S'web2py_path'
p1362
asbag61
(g82
g63
NtRp1363
(dp1364
g66
(dp1365
g93
g94
ssg75
g1354
sg68
(lp1366
S':'
asbag61
(g82
g63
NtRp1367
(dp1368
g66
(dp1369
sg75
g1354
sg68
(lp1370
g61
(g62
g63
NtRp1371
(dp1372
g66
(dp1373
g74
I4
ssg75
g1367
sg68
(lp1374
g526
asbasbasbag61
(g77
g63
NtRp1375
(dp1376
g66
(dp1377
sg75
g479
sg68
(lp1378
g61
(g82
g63
NtRp1379
(dp1380
g66
(dp1381
g86
g87
ssg75
g1375
sg68
(lp1382
S'web2py_version'
p1383
asbag61
(g82
g63
NtRp1384
(dp1385
g66
(dp1386
g93
g94
ssg75
g1375
sg68
(lp1387
S':'
asbag61
(g82
g63
NtRp1388
(dp1389
g66
(dp1390
sg75
g1375
sg68
(lp1391
g61
(g62
g63
NtRp1392
(dp1393
g66
(dp1394
g74
I4
ssg75
g1388
sg68
(lp1395
g61
(g70
g63
NtRp1396
(dp1397
g66
(dp1398
g74
I3
ssg75
Nsg68
(lp1399
g61
(g77
g63
NtRp1400
(dp1401
g66
(dp1402
sg75
g1396
sg68
(lp1403
g61
(g82
g63
NtRp1404
(dp1405
g66
(dp1406
sg75
g1400
sg68
(lp1407
g61
(g62
g63
NtRp1408
(dp1409
g66
(dp1410
g74
I3
ssg75
g1404
sg68
(lp1411
S'2'
asbasbasbag61
(g77
g63
NtRp1412
(dp1413
g66
(dp1414
sg75
g1396
sg68
(lp1415
g61
(g82
g63
NtRp1416
(dp1417
g66
(dp1418
sg75
g1412
sg68
(lp1419
g61
(g62
g63
NtRp1420
(dp1421
g66
(dp1422
g74
I3
ssg75
g1416
sg68
(lp1423
S'2'
asbasbasbag61
(g77
g63
NtRp1424
(dp1425
g66
(dp1426
sg75
g1396
sg68
(lp1427
g61
(g82
g63
NtRp1428
(dp1429
g66
(dp1430
sg75
g1424
sg68
(lp1431
g61
(g62
g63
NtRp1432
(dp1433
g66
(dp1434
g74
I3
ssg75
g1428
sg68
(lp1435
S'1'
asbasbasbag61
(g77
g63
NtRp1436
(dp1437
g66
(dp1438
sg75
g1396
sg68
(lp1439
g61
(g82
g63
NtRp1440
(dp1441
g66
(dp1442
sg75
g1436
sg68
(lp1443
g61
(g62
g63
NtRp1444
(dp1445
g66
(dp1446
g74
I3
ssg75
g1440
sg68
(lp1447
S'datetime.datetime(2012, 10, 21, 16, 57, 4)'
p1448
asbasbasbag61
(g77
g63
NtRp1449
(dp1450
g66
(dp1451
sg75
g1396
sg68
(lp1452
g61
(g82
g63
NtRp1453
(dp1454
g66
(dp1455
sg75
g1449
sg68
(lp1456
g61
(g62
g63
NtRp1457
(dp1458
g66
(dp1459
g74
I3
ssg75
g1453
sg68
(lp1460
S'stable'
p1461
asbasbasbasbasbasbasbag61
(g77
g63
NtRp1462
(dp1463
g66
(dp1464
sg75
g479
sg68
(lp1465
g61
(g82
g63
NtRp1466
(dp1467
g66
(dp1468
g86
g87
ssg75
g1462
sg68
(lp1469
S'wsgi_errors'
p1470
asbag61
(g82
g63
NtRp1471
(dp1472
g66
(dp1473
g93
g94
ssg75
g1462
sg68
(lp1474
S':'
asbag61
(g82
g63
NtRp1475
(dp1476
g66
(dp1477
sg75
g1462
sg68
(lp1478
g61
(g62
g63
NtRp1479
(dp1480
g66
(dp1481
g74
I4
ssg75
g1475
sg68
(lp1482
S'<uwsgi_file__bin_user_wsgi_wrapper.ErrorLogWrapper object at 0x1a53ed0>'
p1483
asbasbasbag61
(g77
g63
NtRp1484
(dp1485
g66
(dp1486
sg75
g479
sg68
(lp1487
g61
(g82
g63
NtRp1488
(dp1489
g66
(dp1490
g86
g87
ssg75
g1484
sg68
(lp1491
S'wsgi_file_wrapper'
p1492
asbag61
(g82
g63
NtRp1493
(dp1494
g66
(dp1495
g93
g94
ssg75
g1484
sg68
(lp1496
S':'
asbag61
(g82
g63
NtRp1497
(dp1498
g66
(dp1499
sg75
g1484
sg68
(lp1500
g61
(g62
g63
NtRp1501
(dp1502
g66
(dp1503
g74
I4
ssg75
g1497
sg68
(lp1504
S'<built-in function uwsgi_sendfile>'
p1505
asbasbasbag61
(g77
g63
NtRp1506
(dp1507
g66
(dp1508
sg75
g479
sg68
(lp1509
g61
(g82
g63
NtRp1510
(dp1511
g66
(dp1512
g86
g87
ssg75
g1506
sg68
(lp1513
S'wsgi_input'
p1514
asbag61
(g82
g63
NtRp1515
(dp1516
g66
(dp1517
g93
g94
ssg75
g1506
sg68
(lp1518
S':'
asbag61
(g82
g63
NtRp1519
(dp1520
g66
(dp1521
sg75
g1506
sg68
(lp1522
g61
(g62
g63
NtRp1523
(dp1524
g66
(dp1525
g74
I4
ssg75
g1519
sg68
(lp1526
S'<uwsgi._Input object at 0x2bb3330>'
p1527
asbasbasbag61
(g77
g63
NtRp1528
(dp1529
g66
(dp1530
sg75
g479
sg68
(lp1531
g61
(g82
g63
NtRp1532
(dp1533
g66
(dp1534
g86
g87
ssg75
g1528
sg68
(lp1535
S'wsgi_multiprocess'
p1536
asbag61
(g82
g63
NtRp1537
(dp1538
g66
(dp1539
g93
g94
ssg75
g1528
sg68
(lp1540
S':'
asbag61
(g82
g63
NtRp1541
(dp1542
g66
(dp1543
sg75
g1528
sg68
(lp1544
g61
(g62
g63
NtRp1545
(dp1546
g66
(dp1547
g74
I4
ssg75
g1541
sg68
(lp1548
g104
asbasbasbag61
(g77
g63
NtRp1549
(dp1550
g66
(dp1551
sg75
g479
sg68
(lp1552
g61
(g82
g63
NtRp1553
(dp1554
g66
(dp1555
g86
g87
ssg75
g1549
sg68
(lp1556
S'wsgi_multithread'
p1557
asbag61
(g82
g63
NtRp1558
(dp1559
g66
(dp1560
g93
g94
ssg75
g1549
sg68
(lp1561
S':'
asbag61
(g82
g63
NtRp1562
(dp1563
g66
(dp1564
sg75
g1549
sg68
(lp1565
g61
(g62
g63
NtRp1566
(dp1567
g66
(dp1568
g74
I4
ssg75
g1562
sg68
(lp1569
g104
asbasbasbag61
(g77
g63
NtRp1570
(dp1571
g66
(dp1572
sg75
g479
sg68
(lp1573
g61
(g82
g63
NtRp1574
(dp1575
g66
(dp1576
g86
g87
ssg75
g1570
sg68
(lp1577
S'wsgi_run_once'
p1578
asbag61
(g82
g63
NtRp1579
(dp1580
g66
(dp1581
g93
g94
ssg75
g1570
sg68
(lp1582
S':'
asbag61
(g82
g63
NtRp1583
(dp1584
g66
(dp1585
sg75
g1570
sg68
(lp1586
g61
(g62
g63
NtRp1587
(dp1588
g66
(dp1589
g74
I4
ssg75
g1583
sg68
(lp1590
g104
asbasbasbag61
(g77
g63
NtRp1591
(dp1592
g66
(dp1593
sg75
g479
sg68
(lp1594
g61
(g82
g63
NtRp1595
(dp1596
g66
(dp1597
g86
g87
ssg75
g1591
sg68
(lp1598
S'wsgi_url_scheme'
p1599
asbag61
(g82
g63
NtRp1600
(dp1601
g66
(dp1602
g93
g94
ssg75
g1591
sg68
(lp1603
S':'
asbag61
(g82
g63
NtRp1604
(dp1605
g66
(dp1606
sg75
g1591
sg68
(lp1607
g61
(g62
g63
NtRp1608
(dp1609
g66
(dp1610
g74
I4
ssg75
g1604
sg68
(lp1611
S'http'
p1612
asbasbasbag61
(g77
g63
NtRp1613
(dp1614
g66
(dp1615
sg75
g479
sg68
(lp1616
g61
(g82
g63
NtRp1617
(dp1618
g66
(dp1619
g86
g87
ssg75
g1613
sg68
(lp1620
S'wsgi_version'
p1621
asbag61
(g82
g63
NtRp1622
(dp1623
g66
(dp1624
g93
g94
ssg75
g1613
sg68
(lp1625
S':'
asbag61
(g82
g63
NtRp1626
(dp1627
g66
(dp1628
sg75
g1613
sg68
(lp1629
g61
(g62
g63
NtRp1630
(dp1631
g66
(dp1632
g74
I4
ssg75
g1626
sg68
(lp1633
g61
(g70
g63
NtRp1634
(dp1635
g66
(dp1636
g74
I3
ssg75
Nsg68
(lp1637
g61
(g77
g63
NtRp1638
(dp1639
g66
(dp1640
sg75
g1634
sg68
(lp1641
g61
(g82
g63
NtRp1642
(dp1643
g66
(dp1644
sg75
g1638
sg68
(lp1645
g61
(g62
g63
NtRp1646
(dp1647
g66
(dp1648
g74
I3
ssg75
g1642
sg68
(lp1649
S'1'
asbasbasbag61
(g77
g63
NtRp1650
(dp1651
g66
(dp1652
sg75
g1634
sg68
(lp1653
g61
(g82
g63
NtRp1654
(dp1655
g66
(dp1656
sg75
g1650
sg68
(lp1657
g61
(g62
g63
NtRp1658
(dp1659
g66
(dp1660
g74
I3
ssg75
g1654
sg68
(lp1661
S'0'
asbasbasbasbasbasbasbasbasbasbasbag61
(g77
g63
NtRp1662
(dp1663
g66
(dp1664
sg75
g71
sg68
(lp1665
g61
(g82
g63
NtRp1666
(dp1667
g66
(dp1668
g86
g87
ssg75
g1662
sg68
(lp1669
S'extension'
p1670
asbag61
(g82
g63
NtRp1671
(dp1672
g66
(dp1673
g93
g94
ssg75
g1662
sg68
(lp1674
S':'
asbag61
(g82
g63
NtRp1675
(dp1676
g66
(dp1677
sg75
g1662
sg68
(lp1678
g61
(g62
g63
NtRp1679
(dp1680
g66
(dp1681
g74
I5
ssg75
g1675
sg68
(lp1682
S'html'
p1683
asbasbasbag61
(g77
g63
NtRp1684
(dp1685
g66
(dp1686
sg75
g71
sg68
(lp1687
g61
(g82
g63
NtRp1688
(dp1689
g66
(dp1690
g86
g87
ssg75
g1684
sg68
(lp1691
S'folder'
p1692
asbag61
(g82
g63
NtRp1693
(dp1694
g66
(dp1695
g93
g94
ssg75
g1684
sg68
(lp1696
S':'
asbag61
(g82
g63
NtRp1697
(dp1698
g66
(dp1699
sg75
g1684
sg68
(lp1700
g61
(g62
g63
NtRp1701
(dp1702
g66
(dp1703
g74
I5
ssg75
g1697
sg68
(lp1704
S'/home/rsoutelino/web2py/applications/rsoutelino/'
p1705
asbasbasbag61
(g77
g63
NtRp1706
(dp1707
g66
(dp1708
sg75
g71
sg68
(lp1709
g61
(g82
g63
NtRp1710
(dp1711
g66
(dp1712
g86
g87
ssg75
g1706
sg68
(lp1713
S'function'
p1714
asbag61
(g82
g63
NtRp1715
(dp1716
g66
(dp1717
g93
g94
ssg75
g1706
sg68
(lp1718
S':'
asbag61
(g82
g63
NtRp1719
(dp1720
g66
(dp1721
sg75
g1706
sg68
(lp1722
g61
(g62
g63
NtRp1723
(dp1724
g66
(dp1725
g74
I5
ssg75
g1719
sg68
(lp1726
S'contact'
p1727
asbasbasbag61
(g77
g63
NtRp1728
(dp1729
g66
(dp1730
sg75
g71
sg68
(lp1731
g61
(g82
g63
NtRp1732
(dp1733
g66
(dp1734
g86
g87
ssg75
g1728
sg68
(lp1735
S'get_vars'
p1736
asbag61
(g82
g63
NtRp1737
(dp1738
g66
(dp1739
g93
g94
ssg75
g1728
sg68
(lp1740
S':'
asbag61
(g82
g63
NtRp1741
(dp1742
g66
(dp1743
sg75
g1728
sg68
(lp1744
g61
(g62
g63
NtRp1745
(dp1746
g66
(dp1747
g74
I5
ssg75
g1741
sg68
(lp1748
g61
(g70
g63
NtRp1749
(dp1750
g66
(dp1751
g74
I4
ssg75
Nsg68
(lp1752
sbasbasbasbag61
(g77
g63
NtRp1753
(dp1754
g66
(dp1755
sg75
g71
sg68
(lp1756
g61
(g82
g63
NtRp1757
(dp1758
g66
(dp1759
g86
g87
ssg75
g1753
sg68
(lp1760
S'global_settings'
p1761
asbag61
(g82
g63
NtRp1762
(dp1763
g66
(dp1764
g93
g94
ssg75
g1753
sg68
(lp1765
S':'
asbag61
(g82
g63
NtRp1766
(dp1767
g66
(dp1768
sg75
g1753
sg68
(lp1769
g61
(g62
g63
NtRp1770
(dp1771
g66
(dp1772
g74
I5
ssg75
g1766
sg68
(lp1773
g61
(g70
g63
NtRp1774
(dp1775
g66
(dp1776
g74
I4
ssg75
Nsg68
(lp1777
g61
(g77
g63
NtRp1778
(dp1779
g66
(dp1780
sg75
g1774
sg68
(lp1781
g61
(g82
g63
NtRp1782
(dp1783
g66
(dp1784
g86
g87
ssg75
g1778
sg68
(lp1785
g491
asbag61
(g82
g63
NtRp1786
(dp1787
g66
(dp1788
g93
g94
ssg75
g1778
sg68
(lp1789
S':'
asbag61
(g82
g63
NtRp1790
(dp1791
g66
(dp1792
sg75
g1778
sg68
(lp1793
g61
(g62
g63
NtRp1794
(dp1795
g66
(dp1796
g74
I4
ssg75
g1790
sg68
(lp1797
S"set(['/home/rsoutelino/web2py/applications/rsoutelino/', '/home/rsoutelino/web2py/applications/admin/'])"
p1798
asbasbasbag61
(g77
g63
NtRp1799
(dp1800
g66
(dp1801
sg75
g1774
sg68
(lp1802
g61
(g82
g63
NtRp1803
(dp1804
g66
(dp1805
g86
g87
ssg75
g1799
sg68
(lp1806
g513
asbag61
(g82
g63
NtRp1807
(dp1808
g66
(dp1809
g93
g94
ssg75
g1799
sg68
(lp1810
S':'
asbag61
(g82
g63
NtRp1811
(dp1812
g66
(dp1813
sg75
g1799
sg68
(lp1814
g61
(g62
g63
NtRp1815
(dp1816
g66
(dp1817
g74
I4
ssg75
g1811
sg68
(lp1818
g526
asbasbasbag61
(g77
g63
NtRp1819
(dp1820
g66
(dp1821
sg75
g1774
sg68
(lp1822
g61
(g82
g63
NtRp1823
(dp1824
g66
(dp1825
g86
g87
ssg75
g1819
sg68
(lp1826
g579
asbag61
(g82
g63
NtRp1827
(dp1828
g66
(dp1829
g93
g94
ssg75
g1819
sg68
(lp1830
S':'
asbag61
(g82
g63
NtRp1831
(dp1832
g66
(dp1833
sg75
g1819
sg68
(lp1834
g61
(g62
g63
NtRp1835
(dp1836
g66
(dp1837
g74
I4
ssg75
g1831
sg68
(lp1838
S'set([])'
p1839
asbasbasbag61
(g77
g63
NtRp1840
(dp1841
g66
(dp1842
sg75
g1774
sg68
(lp1843
g61
(g82
g63
NtRp1844
(dp1845
g66
(dp1846
g86
g87
ssg75
g1840
sg68
(lp1847
g601
asbag61
(g82
g63
NtRp1848
(dp1849
g66
(dp1850
g93
g94
ssg75
g1840
sg68
(lp1851
S':'
asbag61
(g82
g63
NtRp1852
(dp1853
g66
(dp1854
sg75
g1840
sg68
(lp1855
g61
(g62
g63
NtRp1856
(dp1857
g66
(dp1858
g74
I4
ssg75
g1852
sg68
(lp1859
g104
asbasbasbag61
(g77
g63
NtRp1860
(dp1861
g66
(dp1862
sg75
g1774
sg68
(lp1863
g61
(g82
g63
NtRp1864
(dp1865
g66
(dp1866
g86
g87
ssg75
g1860
sg68
(lp1867
g644
asbag61
(g82
g63
NtRp1868
(dp1869
g66
(dp1870
g93
g94
ssg75
g1860
sg68
(lp1871
S':'
asbag61
(g82
g63
NtRp1872
(dp1873
g66
(dp1874
sg75
g1860
sg68
(lp1875
g61
(g62
g63
NtRp1876
(dp1877
g66
(dp1878
g74
I4
ssg75
g1872
sg68
(lp1879
g526
asbasbasbag61
(g77
g63
NtRp1880
(dp1881
g66
(dp1882
sg75
g1774
sg68
(lp1883
g61
(g82
g63
NtRp1884
(dp1885
g66
(dp1886
g86
g87
ssg75
g1880
sg68
(lp1887
g994
asbag61
(g82
g63
NtRp1888
(dp1889
g66
(dp1890
g93
g94
ssg75
g1880
sg68
(lp1891
S':'
asbag61
(g82
g63
NtRp1892
(dp1893
g66
(dp1894
sg75
g1880
sg68
(lp1895
g61
(g62
g63
NtRp1896
(dp1897
g66
(dp1898
g74
I4
ssg75
g1892
sg68
(lp1899
g104
asbasbasbag61
(g77
g63
NtRp1900
(dp1901
g66
(dp1902
sg75
g1774
sg68
(lp1903
g61
(g82
g63
NtRp1904
(dp1905
g66
(dp1906
g86
g87
ssg75
g1900
sg68
(lp1907
g1015
asbag61
(g82
g63
NtRp1908
(dp1909
g66
(dp1910
g93
g94
ssg75
g1900
sg68
(lp1911
S':'
asbag61
(g82
g63
NtRp1912
(dp1913
g66
(dp1914
sg75
g1900
sg68
(lp1915
g61
(g62
g63
NtRp1916
(dp1917
g66
(dp1918
g74
I4
ssg75
g1912
sg68
(lp1919
g104
asbasbasbag61
(g77
g63
NtRp1920
(dp1921
g66
(dp1922
sg75
g1774
sg68
(lp1923
g61
(g82
g63
NtRp1924
(dp1925
g66
(dp1926
g86
g87
ssg75
g1920
sg68
(lp1927
g1036
asbag61
(g82
g63
NtRp1928
(dp1929
g66
(dp1930
g93
g94
ssg75
g1920
sg68
(lp1931
S':'
asbag61
(g82
g63
NtRp1932
(dp1933
g66
(dp1934
sg75
g1920
sg68
(lp1935
g61
(g62
g63
NtRp1936
(dp1937
g66
(dp1938
g74
I4
ssg75
g1932
sg68
(lp1939
g61
(g70
g63
NtRp1940
(dp1941
g66
(dp1942
g74
I3
ssg75
Nsg68
(lp1943
g61
(g77
g63
NtRp1944
(dp1945
g66
(dp1946
sg75
g1940
sg68
(lp1947
g61
(g82
g63
NtRp1948
(dp1949
g66
(dp1950
sg75
g1944
sg68
(lp1951
g61
(g62
g63
NtRp1952
(dp1953
g66
(dp1954
g74
I3
ssg75
g1948
sg68
(lp1955
g1065
asbasbasbag61
(g77
g63
NtRp1956
(dp1957
g66
(dp1958
sg75
g1940
sg68
(lp1959
g61
(g82
g63
NtRp1960
(dp1961
g66
(dp1962
sg75
g1956
sg68
(lp1963
g61
(g62
g63
NtRp1964
(dp1965
g66
(dp1966
g74
I3
ssg75
g1960
sg68
(lp1967
g1078
asbasbasbag61
(g77
g63
NtRp1968
(dp1969
g66
(dp1970
sg75
g1940
sg68
(lp1971
g61
(g82
g63
NtRp1972
(dp1973
g66
(dp1974
sg75
g1968
sg68
(lp1975
g61
(g62
g63
NtRp1976
(dp1977
g66
(dp1978
g74
I3
ssg75
g1972
sg68
(lp1979
g1091
asbasbasbasbasbasbasbag61
(g77
g63
NtRp1980
(dp1981
g66
(dp1982
sg75
g1774
sg68
(lp1983
g61
(g82
g63
NtRp1984
(dp1985
g66
(dp1986
g86
g87
ssg75
g1980
sg68
(lp1987
g1383
asbag61
(g82
g63
NtRp1988
(dp1989
g66
(dp1990
g93
g94
ssg75
g1980
sg68
(lp1991
S':'
asbag61
(g82
g63
NtRp1992
(dp1993
g66
(dp1994
sg75
g1980
sg68
(lp1995
g61
(g62
g63
NtRp1996
(dp1997
g66
(dp1998
g74
I4
ssg75
g1992
sg68
(lp1999
g61
(g70
g63
NtRp2000
(dp2001
g66
(dp2002
g74
I3
ssg75
Nsg68
(lp2003
g61
(g77
g63
NtRp2004
(dp2005
g66
(dp2006
sg75
g2000
sg68
(lp2007
g61
(g82
g63
NtRp2008
(dp2009
g66
(dp2010
sg75
g2004
sg68
(lp2011
g61
(g62
g63
NtRp2012
(dp2013
g66
(dp2014
g74
I3
ssg75
g2008
sg68
(lp2015
S'2'
asbasbasbag61
(g77
g63
NtRp2016
(dp2017
g66
(dp2018
sg75
g2000
sg68
(lp2019
g61
(g82
g63
NtRp2020
(dp2021
g66
(dp2022
sg75
g2016
sg68
(lp2023
g61
(g62
g63
NtRp2024
(dp2025
g66
(dp2026
g74
I3
ssg75
g2020
sg68
(lp2027
S'2'
asbasbasbag61
(g77
g63
NtRp2028
(dp2029
g66
(dp2030
sg75
g2000
sg68
(lp2031
g61
(g82
g63
NtRp2032
(dp2033
g66
(dp2034
sg75
g2028
sg68
(lp2035
g61
(g62
g63
NtRp2036
(dp2037
g66
(dp2038
g74
I3
ssg75
g2032
sg68
(lp2039
S'1'
asbasbasbag61
(g77
g63
NtRp2040
(dp2041
g66
(dp2042
sg75
g2000
sg68
(lp2043
g61
(g82
g63
NtRp2044
(dp2045
g66
(dp2046
sg75
g2040
sg68
(lp2047
g61
(g62
g63
NtRp2048
(dp2049
g66
(dp2050
g74
I3
ssg75
g2044
sg68
(lp2051
S'datetime.datetime(2012, 10, 21, 16, 57, 4)'
p2052
asbasbasbag61
(g77
g63
NtRp2053
(dp2054
g66
(dp2055
sg75
g2000
sg68
(lp2056
g61
(g82
g63
NtRp2057
(dp2058
g66
(dp2059
sg75
g2053
sg68
(lp2060
g61
(g62
g63
NtRp2061
(dp2062
g66
(dp2063
g74
I3
ssg75
g2057
sg68
(lp2064
g1461
asbasbasbasbasbasbasbasbasbasbasbag61
(g77
g63
NtRp2065
(dp2066
g66
(dp2067
sg75
g71
sg68
(lp2068
g61
(g82
g63
NtRp2069
(dp2070
g66
(dp2071
g86
g87
ssg75
g2065
sg68
(lp2072
S'is_https'
p2073
asbag61
(g82
g63
NtRp2074
(dp2075
g66
(dp2076
g93
g94
ssg75
g2065
sg68
(lp2077
S':'
asbag61
(g82
g63
NtRp2078
(dp2079
g66
(dp2080
sg75
g2065
sg68
(lp2081
g61
(g62
g63
NtRp2082
(dp2083
g66
(dp2084
g74
I5
ssg75
g2078
sg68
(lp2085
g104
asbasbasbag61
(g77
g63
NtRp2086
(dp2087
g66
(dp2088
sg75
g71
sg68
(lp2089
g61
(g82
g63
NtRp2090
(dp2091
g66
(dp2092
g86
g87
ssg75
g2086
sg68
(lp2093
S'is_local'
p2094
asbag61
(g82
g63
NtRp2095
(dp2096
g66
(dp2097
g93
g94
ssg75
g2086
sg68
(lp2098
S':'
asbag61
(g82
g63
NtRp2099
(dp2100
g66
(dp2101
sg75
g2086
sg68
(lp2102
g61
(g62
g63
NtRp2103
(dp2104
g66
(dp2105
g74
I5
ssg75
g2099
sg68
(lp2106
g104
asbasbasbag61
(g77
g63
NtRp2107
(dp2108
g66
(dp2109
sg75
g71
sg68
(lp2110
g61
(g82
g63
NtRp2111
(dp2112
g66
(dp2113
g86
g87
ssg75
g2107
sg68
(lp2114
S'is_restful'
p2115
asbag61
(g82
g63
NtRp2116
(dp2117
g66
(dp2118
g93
g94
ssg75
g2107
sg68
(lp2119
S':'
asbag61
(g82
g63
NtRp2120
(dp2121
g66
(dp2122
sg75
g2107
sg68
(lp2123
g61
(g62
g63
NtRp2124
(dp2125
g66
(dp2126
g74
I5
ssg75
g2120
sg68
(lp2127
g104
asbasbasbag61
(g77
g63
NtRp2128
(dp2129
g66
(dp2130
sg75
g71
sg68
(lp2131
g61
(g82
g63
NtRp2132
(dp2133
g66
(dp2134
g86
g87
ssg75
g2128
sg68
(lp2135
S'now'
p2136
asbag61
(g82
g63
NtRp2137
(dp2138
g66
(dp2139
g93
g94
ssg75
g2128
sg68
(lp2140
S':'
asbag61
(g82
g63
NtRp2141
(dp2142
g66
(dp2143
sg75
g2128
sg68
(lp2144
g61
(g62
g63
NtRp2145
(dp2146
g66
(dp2147
g74
I5
ssg75
g2141
sg68
(lp2148
S'datetime.datetime(2013, 2, 7, 14, 22, 29, 319510)'
p2149
asbasbasbag61
(g77
g63
NtRp2150
(dp2151
g66
(dp2152
sg75
g71
sg68
(lp2153
g61
(g82
g63
NtRp2154
(dp2155
g66
(dp2156
g86
g87
ssg75
g2150
sg68
(lp2157
S'post_vars'
p2158
asbag61
(g82
g63
NtRp2159
(dp2160
g66
(dp2161
g93
g94
ssg75
g2150
sg68
(lp2162
S':'
asbag61
(g82
g63
NtRp2163
(dp2164
g66
(dp2165
sg75
g2150
sg68
(lp2166
g61
(g62
g63
NtRp2167
(dp2168
g66
(dp2169
g74
I5
ssg75
g2163
sg68
(lp2170
g61
(g70
g63
NtRp2171
(dp2172
g66
(dp2173
g74
I4
ssg75
Nsg68
(lp2174
g61
(g77
g63
NtRp2175
(dp2176
g66
(dp2177
sg75
g2171
sg68
(lp2178
g61
(g82
g63
NtRp2179
(dp2180
g66
(dp2181
g86
g87
ssg75
g2175
sg68
(lp2182
S'adress'
p2183
asbag61
(g82
g63
NtRp2184
(dp2185
g66
(dp2186
g93
g94
ssg75
g2175
sg68
(lp2187
S':'
asbag61
(g82
g63
NtRp2188
(dp2189
g66
(dp2190
sg75
g2175
sg68
(lp2191
g61
(g62
g63
NtRp2192
(dp2193
g66
(dp2194
g74
I4
ssg75
g2188
sg68
(lp2195
S'teste'
p2196
asbasbasbag61
(g77
g63
NtRp2197
(dp2198
g66
(dp2199
sg75
g2171
sg68
(lp2200
g61
(g82
g63
NtRp2201
(dp2202
g66
(dp2203
g86
g87
ssg75
g2197
sg68
(lp2204
S'commentary'
p2205
asbag61
(g82
g63
NtRp2206
(dp2207
g66
(dp2208
g93
g94
ssg75
g2197
sg68
(lp2209
S':'
asbag61
(g82
g63
NtRp2210
(dp2211
g66
(dp2212
sg75
g2197
sg68
(lp2213
g61
(g62
g63
NtRp2214
(dp2215
g66
(dp2216
g74
I4
ssg75
g2210
sg68
(lp2217
S'testetsetsets'
p2218
asbasbasbag61
(g77
g63
NtRp2219
(dp2220
g66
(dp2221
sg75
g2171
sg68
(lp2222
g61
(g82
g63
NtRp2223
(dp2224
g66
(dp2225
g86
g87
ssg75
g2219
sg68
(lp2226
S'email'
p2227
asbag61
(g82
g63
NtRp2228
(dp2229
g66
(dp2230
g93
g94
ssg75
g2219
sg68
(lp2231
S':'
asbag61
(g82
g63
NtRp2232
(dp2233
g66
(dp2234
sg75
g2219
sg68
(lp2235
g61
(g62
g63
NtRp2236
(dp2237
g66
(dp2238
g74
I4
ssg75
g2232
sg68
(lp2239
S'teste.s@teste.com'
p2240
asbasbasbag61
(g77
g63
NtRp2241
(dp2242
g66
(dp2243
sg75
g2171
sg68
(lp2244
g61
(g82
g63
NtRp2245
(dp2246
g66
(dp2247
g86
g87
ssg75
g2241
sg68
(lp2248
S'name'
p2249
asbag61
(g82
g63
NtRp2250
(dp2251
g66
(dp2252
g93
g94
ssg75
g2241
sg68
(lp2253
S':'
asbag61
(g82
g63
NtRp2254
(dp2255
g66
(dp2256
sg75
g2241
sg68
(lp2257
g61
(g62
g63
NtRp2258
(dp2259
g66
(dp2260
g74
I4
ssg75
g2254
sg68
(lp2261
S'teste teste'
p2262
asbasbasbag61
(g77
g63
NtRp2263
(dp2264
g66
(dp2265
sg75
g2171
sg68
(lp2266
g61
(g82
g63
NtRp2267
(dp2268
g66
(dp2269
g86
g87
ssg75
g2263
sg68
(lp2270
S'tel'
p2271
asbag61
(g82
g63
NtRp2272
(dp2273
g66
(dp2274
g93
g94
ssg75
g2263
sg68
(lp2275
S':'
asbag61
(g82
g63
NtRp2276
(dp2277
g66
(dp2278
sg75
g2263
sg68
(lp2279
g61
(g62
g63
NtRp2280
(dp2281
g66
(dp2282
g74
I4
ssg75
g2276
sg68
(lp2283
S'1234567'
p2284
asbasbasbasbasbasbasbag61
(g77
g63
NtRp2285
(dp2286
g66
(dp2287
sg75
g71
sg68
(lp2288
g61
(g82
g63
NtRp2289
(dp2290
g66
(dp2291
g86
g87
ssg75
g2285
sg68
(lp2292
S'raw_args'
p2293
asbag61
(g82
g63
NtRp2294
(dp2295
g66
(dp2296
g93
g94
ssg75
g2285
sg68
(lp2297
S':'
asbag61
(g82
g63
NtRp2298
(dp2299
g66
(dp2300
sg75
g2285
sg68
(lp2301
g61
(g62
g63
NtRp2302
(dp2303
g66
(dp2304
g74
I5
ssg75
g2298
sg68
(lp2305
S''
asbasbasbag61
(g77
g63
NtRp2306
(dp2307
g66
(dp2308
sg75
g71
sg68
(lp2309
g61
(g82
g63
NtRp2310
(dp2311
g66
(dp2312
g86
g87
ssg75
g2306
sg68
(lp2313
S'raw_extension'
p2314
asbag61
(g82
g63
NtRp2315
(dp2316
g66
(dp2317
g93
g94
ssg75
g2306
sg68
(lp2318
S':'
asbag61
(g82
g63
NtRp2319
(dp2320
g66
(dp2321
sg75
g2306
sg68
(lp2322
g61
(g62
g63
NtRp2323
(dp2324
g66
(dp2325
g74
I5
ssg75
g2319
sg68
(lp2326
S'None'
p2327
asbasbasbag61
(g77
g63
NtRp2328
(dp2329
g66
(dp2330
sg75
g71
sg68
(lp2331
g61
(g82
g63
NtRp2332
(dp2333
g66
(dp2334
g86
g87
ssg75
g2328
sg68
(lp2335
S'url'
p2336
asbag61
(g82
g63
NtRp2337
(dp2338
g66
(dp2339
g93
g94
ssg75
g2328
sg68
(lp2340
S':'
asbag61
(g82
g63
NtRp2341
(dp2342
g66
(dp2343
sg75
g2328
sg68
(lp2344
g61
(g62
g63
NtRp2345
(dp2346
g66
(dp2347
g74
I5
ssg75
g2341
sg68
(lp2348
g1113
asbasbasbag61
(g77
g63
NtRp2349
(dp2350
g66
(dp2351
sg75
g71
sg68
(lp2352
g61
(g82
g63
NtRp2353
(dp2354
g66
(dp2355
g86
g87
ssg75
g2349
sg68
(lp2356
S'utcnow'
p2357
asbag61
(g82
g63
NtRp2358
(dp2359
g66
(dp2360
g93
g94
ssg75
g2349
sg68
(lp2361
S':'
asbag61
(g82
g63
NtRp2362
(dp2363
g66
(dp2364
sg75
g2349
sg68
(lp2365
g61
(g62
g63
NtRp2366
(dp2367
g66
(dp2368
g74
I5
ssg75
g2362
sg68
(lp2369
S'datetime.datetime(2013, 2, 7, 14, 22, 29, 319532)'
p2370
asbasbasbag61
(g77
g63
NtRp2371
(dp2372
g66
(dp2373
sg75
g71
sg68
(lp2374
g61
(g82
g63
NtRp2375
(dp2376
g66
(dp2377
g86
g87
ssg75
g2371
sg68
(lp2378
S'uuid'
p2379
asbag61
(g82
g63
NtRp2380
(dp2381
g66
(dp2382
g93
g94
ssg75
g2371
sg68
(lp2383
S':'
asbag61
(g82
g63
NtRp2384
(dp2385
g66
(dp2386
sg75
g2371
sg68
(lp2387
g61
(g62
g63
NtRp2388
(dp2389
g66
(dp2390
g74
I5
ssg75
g2384
sg68
(lp2391
S'rsoutelino/172.30.6.206.2013-02-07.14-22-29.eb900247-33d4-42ae-bb4a-cccaf0e92c67'
p2392
asbasbasbag61
(g77
g63
NtRp2393
(dp2394
g66
(dp2395
sg75
g71
sg68
(lp2396
g61
(g82
g63
NtRp2397
(dp2398
g66
(dp2399
g86
g87
ssg75
g2393
sg68
(lp2400
S'vars'
p2401
asbag61
(g82
g63
NtRp2402
(dp2403
g66
(dp2404
g93
g94
ssg75
g2393
sg68
(lp2405
S':'
asbag61
(g82
g63
NtRp2406
(dp2407
g66
(dp2408
sg75
g2393
sg68
(lp2409
g61
(g62
g63
NtRp2410
(dp2411
g66
(dp2412
g74
I5
ssg75
g2406
sg68
(lp2413
g61
(g70
g63
NtRp2414
(dp2415
g66
(dp2416
g74
I4
ssg75
Nsg68
(lp2417
g61
(g77
g63
NtRp2418
(dp2419
g66
(dp2420
sg75
g2414
sg68
(lp2421
g61
(g82
g63
NtRp2422
(dp2423
g66
(dp2424
g86
g87
ssg75
g2418
sg68
(lp2425
g2183
asbag61
(g82
g63
NtRp2426
(dp2427
g66
(dp2428
g93
g94
ssg75
g2418
sg68
(lp2429
S':'
asbag61
(g82
g63
NtRp2430
(dp2431
g66
(dp2432
sg75
g2418
sg68
(lp2433
g61
(g62
g63
NtRp2434
(dp2435
g66
(dp2436
g74
I4
ssg75
g2430
sg68
(lp2437
g2196
asbasbasbag61
(g77
g63
NtRp2438
(dp2439
g66
(dp2440
sg75
g2414
sg68
(lp2441
g61
(g82
g63
NtRp2442
(dp2443
g66
(dp2444
g86
g87
ssg75
g2438
sg68
(lp2445
g2205
asbag61
(g82
g63
NtRp2446
(dp2447
g66
(dp2448
g93
g94
ssg75
g2438
sg68
(lp2449
S':'
asbag61
(g82
g63
NtRp2450
(dp2451
g66
(dp2452
sg75
g2438
sg68
(lp2453
g61
(g62
g63
NtRp2454
(dp2455
g66
(dp2456
g74
I4
ssg75
g2450
sg68
(lp2457
g2218
asbasbasbag61
(g77
g63
NtRp2458
(dp2459
g66
(dp2460
sg75
g2414
sg68
(lp2461
g61
(g82
g63
NtRp2462
(dp2463
g66
(dp2464
g86
g87
ssg75
g2458
sg68
(lp2465
g2227
asbag61
(g82
g63
NtRp2466
(dp2467
g66
(dp2468
g93
g94
ssg75
g2458
sg68
(lp2469
S':'
asbag61
(g82
g63
NtRp2470
(dp2471
g66
(dp2472
sg75
g2458
sg68
(lp2473
g61
(g62
g63
NtRp2474
(dp2475
g66
(dp2476
g74
I4
ssg75
g2470
sg68
(lp2477
g2240
asbasbasbag61
(g77
g63
NtRp2478
(dp2479
g66
(dp2480
sg75
g2414
sg68
(lp2481
g61
(g82
g63
NtRp2482
(dp2483
g66
(dp2484
g86
g87
ssg75
g2478
sg68
(lp2485
g2249
asbag61
(g82
g63
NtRp2486
(dp2487
g66
(dp2488
g93
g94
ssg75
g2478
sg68
(lp2489
S':'
asbag61
(g82
g63
NtRp2490
(dp2491
g66
(dp2492
sg75
g2478
sg68
(lp2493
g61
(g62
g63
NtRp2494
(dp2495
g66
(dp2496
g74
I4
ssg75
g2490
sg68
(lp2497
g2262
asbasbasbag61
(g77
g63
NtRp2498
(dp2499
g66
(dp2500
sg75
g2414
sg68
(lp2501
g61
(g82
g63
NtRp2502
(dp2503
g66
(dp2504
g86
g87
ssg75
g2498
sg68
(lp2505
g2271
asbag61
(g82
g63
NtRp2506
(dp2507
g66
(dp2508
g93
g94
ssg75
g2498
sg68
(lp2509
S':'
asbag61
(g82
g63
NtRp2510
(dp2511
g66
(dp2512
sg75
g2498
sg68
(lp2513
g61
(g62
g63
NtRp2514
(dp2515
g66
(dp2516
g74
I4
ssg75
g2510
sg68
(lp2517
g2284
asbasbasbasbasbasbasbag61
(g77
g63
NtRp2518
(dp2519
g66
(dp2520
sg75
g71
sg68
(lp2521
g61
(g82
g63
NtRp2522
(dp2523
g66
(dp2524
g86
g87
ssg75
g2518
sg68
(lp2525
S'wsgi'
p2526
asbag61
(g82
g63
NtRp2527
(dp2528
g66
(dp2529
g93
g94
ssg75
g2518
sg68
(lp2530
S':'
asbag61
(g82
g63
NtRp2531
(dp2532
g66
(dp2533
sg75
g2518
sg68
(lp2534
g61
(g62
g63
NtRp2535
(dp2536
g66
(dp2537
g74
I5
ssg75
g2531
sg68
(lp2538
g61
(g70
g63
NtRp2539
(dp2540
g66
(dp2541
g74
I4
ssg75
Nsg68
(lp2542
g61
(g77
g63
NtRp2543
(dp2544
g66
(dp2545
sg75
g2539
sg68
(lp2546
g61
(g82
g63
NtRp2547
(dp2548
g66
(dp2549
g86
g87
ssg75
g2543
sg68
(lp2550
S'environ'
p2551
asbag61
(g82
g63
NtRp2552
(dp2553
g66
(dp2554
g93
g94
ssg75
g2543
sg68
(lp2555
S':'
asbag61
(g82
g63
NtRp2556
(dp2557
g66
(dp2558
sg75
g2543
sg68
(lp2559
g61
(g62
g63
NtRp2560
(dp2561
g66
(dp2562
g74
I4
ssg75
g2556
sg68
(lp2563
g61
(g70
g63
NtRp2564
(dp2565
g66
(dp2566
g74
I3
ssg75
Nsg68
(lp2567
g61
(g77
g63
NtRp2568
(dp2569
g66
(dp2570
sg75
g2564
sg68
(lp2571
g61
(g82
g63
NtRp2572
(dp2573
g66
(dp2574
g86
g87
ssg75
g2568
sg68
(lp2575
S'CONTENT_LENGTH'
p2576
asbag61
(g82
g63
NtRp2577
(dp2578
g66
(dp2579
g93
g94
ssg75
g2568
sg68
(lp2580
S':'
asbag61
(g82
g63
NtRp2581
(dp2582
g66
(dp2583
sg75
g2568
sg68
(lp2584
g61
(g62
g63
NtRp2585
(dp2586
g66
(dp2587
g74
I3
ssg75
g2581
sg68
(lp2588
g548
asbasbasbag61
(g77
g63
NtRp2589
(dp2590
g66
(dp2591
sg75
g2564
sg68
(lp2592
g61
(g82
g63
NtRp2593
(dp2594
g66
(dp2595
g86
g87
ssg75
g2589
sg68
(lp2596
S'CONTENT_TYPE'
p2597
asbag61
(g82
g63
NtRp2598
(dp2599
g66
(dp2600
g93
g94
ssg75
g2589
sg68
(lp2601
S':'
asbag61
(g82
g63
NtRp2602
(dp2603
g66
(dp2604
sg75
g2589
sg68
(lp2605
g61
(g62
g63
NtRp2606
(dp2607
g66
(dp2608
g74
I3
ssg75
g2602
sg68
(lp2609
g570
asbasbasbag61
(g77
g63
NtRp2610
(dp2611
g66
(dp2612
sg75
g2564
sg68
(lp2613
g61
(g82
g63
NtRp2614
(dp2615
g66
(dp2616
g86
g87
ssg75
g2610
sg68
(lp2617
S'DOCUMENT_ROOT'
p2618
asbag61
(g82
g63
NtRp2619
(dp2620
g66
(dp2621
g93
g94
ssg75
g2610
sg68
(lp2622
S':'
asbag61
(g82
g63
NtRp2623
(dp2624
g66
(dp2625
sg75
g2610
sg68
(lp2626
g61
(g62
g63
NtRp2627
(dp2628
g66
(dp2629
g74
I3
ssg75
g2623
sg68
(lp2630
g635
asbasbasbag61
(g77
g63
NtRp2631
(dp2632
g66
(dp2633
sg75
g2564
sg68
(lp2634
g61
(g82
g63
NtRp2635
(dp2636
g66
(dp2637
g86
g87
ssg75
g2631
sg68
(lp2638
S'HTTP_ACCEPT'
p2639
asbag61
(g82
g63
NtRp2640
(dp2641
g66
(dp2642
g93
g94
ssg75
g2631
sg68
(lp2643
S':'
asbag61
(g82
g63
NtRp2644
(dp2645
g66
(dp2646
sg75
g2631
sg68
(lp2647
g61
(g62
g63
NtRp2648
(dp2649
g66
(dp2650
g74
I3
ssg75
g2644
sg68
(lp2651
g678
asbasbasbag61
(g77
g63
NtRp2652
(dp2653
g66
(dp2654
sg75
g2564
sg68
(lp2655
g61
(g82
g63
NtRp2656
(dp2657
g66
(dp2658
g86
g87
ssg75
g2652
sg68
(lp2659
S'HTTP_ACCEPT_CHARSET'
p2660
asbag61
(g82
g63
NtRp2661
(dp2662
g66
(dp2663
g93
g94
ssg75
g2652
sg68
(lp2664
S':'
asbag61
(g82
g63
NtRp2665
(dp2666
g66
(dp2667
sg75
g2652
sg68
(lp2668
g61
(g62
g63
NtRp2669
(dp2670
g66
(dp2671
g74
I3
ssg75
g2665
sg68
(lp2672
g700
asbasbasbag61
(g77
g63
NtRp2673
(dp2674
g66
(dp2675
sg75
g2564
sg68
(lp2676
g61
(g82
g63
NtRp2677
(dp2678
g66
(dp2679
g86
g87
ssg75
g2673
sg68
(lp2680
S'HTTP_ACCEPT_ENCODING'
p2681
asbag61
(g82
g63
NtRp2682
(dp2683
g66
(dp2684
g93
g94
ssg75
g2673
sg68
(lp2685
S':'
asbag61
(g82
g63
NtRp2686
(dp2687
g66
(dp2688
sg75
g2673
sg68
(lp2689
g61
(g62
g63
NtRp2690
(dp2691
g66
(dp2692
g74
I3
ssg75
g2686
sg68
(lp2693
g722
asbasbasbag61
(g77
g63
NtRp2694
(dp2695
g66
(dp2696
sg75
g2564
sg68
(lp2697
g61
(g82
g63
NtRp2698
(dp2699
g66
(dp2700
g86
g87
ssg75
g2694
sg68
(lp2701
S'HTTP_ACCEPT_LANGUAGE'
p2702
asbag61
(g82
g63
NtRp2703
(dp2704
g66
(dp2705
g93
g94
ssg75
g2694
sg68
(lp2706
S':'
asbag61
(g82
g63
NtRp2707
(dp2708
g66
(dp2709
sg75
g2694
sg68
(lp2710
g61
(g62
g63
NtRp2711
(dp2712
g66
(dp2713
g74
I3
ssg75
g2707
sg68
(lp2714
g744
asbasbasbag61
(g77
g63
NtRp2715
(dp2716
g66
(dp2717
sg75
g2564
sg68
(lp2718
g61
(g82
g63
NtRp2719
(dp2720
g66
(dp2721
g86
g87
ssg75
g2715
sg68
(lp2722
S'HTTP_CACHE_CONTROL'
p2723
asbag61
(g82
g63
NtRp2724
(dp2725
g66
(dp2726
g93
g94
ssg75
g2715
sg68
(lp2727
S':'
asbag61
(g82
g63
NtRp2728
(dp2729
g66
(dp2730
sg75
g2715
sg68
(lp2731
g61
(g62
g63
NtRp2732
(dp2733
g66
(dp2734
g74
I3
ssg75
g2728
sg68
(lp2735
g766
asbasbasbag61
(g77
g63
NtRp2736
(dp2737
g66
(dp2738
sg75
g2564
sg68
(lp2739
g61
(g82
g63
NtRp2740
(dp2741
g66
(dp2742
g86
g87
ssg75
g2736
sg68
(lp2743
S'HTTP_CONNECTION'
p2744
asbag61
(g82
g63
NtRp2745
(dp2746
g66
(dp2747
g93
g94
ssg75
g2736
sg68
(lp2748
S':'
asbag61
(g82
g63
NtRp2749
(dp2750
g66
(dp2751
sg75
g2736
sg68
(lp2752
g61
(g62
g63
NtRp2753
(dp2754
g66
(dp2755
g74
I3
ssg75
g2749
sg68
(lp2756
g788
asbasbasbag61
(g77
g63
NtRp2757
(dp2758
g66
(dp2759
sg75
g2564
sg68
(lp2760
g61
(g82
g63
NtRp2761
(dp2762
g66
(dp2763
g86
g87
ssg75
g2757
sg68
(lp2764
S'HTTP_CONTENT_LENGTH'
p2765
asbag61
(g82
g63
NtRp2766
(dp2767
g66
(dp2768
g93
g94
ssg75
g2757
sg68
(lp2769
S':'
asbag61
(g82
g63
NtRp2770
(dp2771
g66
(dp2772
sg75
g2757
sg68
(lp2773
g61
(g62
g63
NtRp2774
(dp2775
g66
(dp2776
g74
I3
ssg75
g2770
sg68
(lp2777
g810
asbasbasbag61
(g77
g63
NtRp2778
(dp2779
g66
(dp2780
sg75
g2564
sg68
(lp2781
g61
(g82
g63
NtRp2782
(dp2783
g66
(dp2784
g86
g87
ssg75
g2778
sg68
(lp2785
S'HTTP_CONTENT_TYPE'
p2786
asbag61
(g82
g63
NtRp2787
(dp2788
g66
(dp2789
g93
g94
ssg75
g2778
sg68
(lp2790
S':'
asbag61
(g82
g63
NtRp2791
(dp2792
g66
(dp2793
sg75
g2778
sg68
(lp2794
g61
(g62
g63
NtRp2795
(dp2796
g66
(dp2797
g74
I3
ssg75
g2791
sg68
(lp2798
g832
asbasbasbag61
(g77
g63
NtRp2799
(dp2800
g66
(dp2801
sg75
g2564
sg68
(lp2802
g61
(g82
g63
NtRp2803
(dp2804
g66
(dp2805
g86
g87
ssg75
g2799
sg68
(lp2806
S'HTTP_COOKIE'
p2807
asbag61
(g82
g63
NtRp2808
(dp2809
g66
(dp2810
g93
g94
ssg75
g2799
sg68
(lp2811
S':'
asbag61
(g82
g63
NtRp2812
(dp2813
g66
(dp2814
sg75
g2799
sg68
(lp2815
g61
(g62
g63
NtRp2816
(dp2817
g66
(dp2818
g74
I3
ssg75
g2812
sg68
(lp2819
g854
asbasbasbag61
(g77
g63
NtRp2820
(dp2821
g66
(dp2822
sg75
g2564
sg68
(lp2823
g61
(g82
g63
NtRp2824
(dp2825
g66
(dp2826
g86
g87
ssg75
g2820
sg68
(lp2827
S'HTTP_HOST'
p2828
asbag61
(g82
g63
NtRp2829
(dp2830
g66
(dp2831
g93
g94
ssg75
g2820
sg68
(lp2832
S':'
asbag61
(g82
g63
NtRp2833
(dp2834
g66
(dp2835
sg75
g2820
sg68
(lp2836
g61
(g62
g63
NtRp2837
(dp2838
g66
(dp2839
g74
I3
ssg75
g2833
sg68
(lp2840
g876
asbasbasbag61
(g77
g63
NtRp2841
(dp2842
g66
(dp2843
sg75
g2564
sg68
(lp2844
g61
(g82
g63
NtRp2845
(dp2846
g66
(dp2847
g86
g87
ssg75
g2841
sg68
(lp2848
S'HTTP_ORIGIN'
p2849
asbag61
(g82
g63
NtRp2850
(dp2851
g66
(dp2852
g93
g94
ssg75
g2841
sg68
(lp2853
S':'
asbag61
(g82
g63
NtRp2854
(dp2855
g66
(dp2856
sg75
g2841
sg68
(lp2857
g61
(g62
g63
NtRp2858
(dp2859
g66
(dp2860
g74
I3
ssg75
g2854
sg68
(lp2861
g898
asbasbasbag61
(g77
g63
NtRp2862
(dp2863
g66
(dp2864
sg75
g2564
sg68
(lp2865
g61
(g82
g63
NtRp2866
(dp2867
g66
(dp2868
g86
g87
ssg75
g2862
sg68
(lp2869
S'HTTP_REFERER'
p2870
asbag61
(g82
g63
NtRp2871
(dp2872
g66
(dp2873
g93
g94
ssg75
g2862
sg68
(lp2874
S':'
asbag61
(g82
g63
NtRp2875
(dp2876
g66
(dp2877
sg75
g2862
sg68
(lp2878
g61
(g62
g63
NtRp2879
(dp2880
g66
(dp2881
g74
I3
ssg75
g2875
sg68
(lp2882
g920
asbasbasbag61
(g77
g63
NtRp2883
(dp2884
g66
(dp2885
sg75
g2564
sg68
(lp2886
g61
(g82
g63
NtRp2887
(dp2888
g66
(dp2889
g86
g87
ssg75
g2883
sg68
(lp2890
S'HTTP_USER_AGENT'
p2891
asbag61
(g82
g63
NtRp2892
(dp2893
g66
(dp2894
g93
g94
ssg75
g2883
sg68
(lp2895
S':'
asbag61
(g82
g63
NtRp2896
(dp2897
g66
(dp2898
sg75
g2883
sg68
(lp2899
g61
(g62
g63
NtRp2900
(dp2901
g66
(dp2902
g74
I3
ssg75
g2896
sg68
(lp2903
g942
asbasbasbag61
(g77
g63
NtRp2904
(dp2905
g66
(dp2906
sg75
g2564
sg68
(lp2907
g61
(g82
g63
NtRp2908
(dp2909
g66
(dp2910
g86
g87
ssg75
g2904
sg68
(lp2911
S'HTTP_VIA'
p2912
asbag61
(g82
g63
NtRp2913
(dp2914
g66
(dp2915
g93
g94
ssg75
g2904
sg68
(lp2916
S':'
asbag61
(g82
g63
NtRp2917
(dp2918
g66
(dp2919
sg75
g2904
sg68
(lp2920
g61
(g62
g63
NtRp2921
(dp2922
g66
(dp2923
g74
I3
ssg75
g2917
sg68
(lp2924
g964
asbasbasbag61
(g77
g63
NtRp2925
(dp2926
g66
(dp2927
sg75
g2564
sg68
(lp2928
g61
(g82
g63
NtRp2929
(dp2930
g66
(dp2931
g86
g87
ssg75
g2925
sg68
(lp2932
S'HTTP_X_FORWARDED_FOR'
p2933
asbag61
(g82
g63
NtRp2934
(dp2935
g66
(dp2936
g93
g94
ssg75
g2925
sg68
(lp2937
S':'
asbag61
(g82
g63
NtRp2938
(dp2939
g66
(dp2940
sg75
g2925
sg68
(lp2941
g61
(g62
g63
NtRp2942
(dp2943
g66
(dp2944
g74
I3
ssg75
g2938
sg68
(lp2945
g216
asbasbasbag61
(g77
g63
NtRp2946
(dp2947
g66
(dp2948
sg75
g2564
sg68
(lp2949
g61
(g82
g63
NtRp2950
(dp2951
g66
(dp2952
g86
g87
ssg75
g2946
sg68
(lp2953
S'PATH_INFO'
p2954
asbag61
(g82
g63
NtRp2955
(dp2956
g66
(dp2957
g93
g94
ssg75
g2946
sg68
(lp2958
S':'
asbag61
(g82
g63
NtRp2959
(dp2960
g66
(dp2961
sg75
g2946
sg68
(lp2962
g61
(g62
g63
NtRp2963
(dp2964
g66
(dp2965
g74
I3
ssg75
g2959
sg68
(lp2966
g1113
asbasbasbag61
(g77
g63
NtRp2967
(dp2968
g66
(dp2969
sg75
g2564
sg68
(lp2970
g61
(g82
g63
NtRp2971
(dp2972
g66
(dp2973
g86
g87
ssg75
g2967
sg68
(lp2974
S'QUERY_STRING'
p2975
asbag61
(g82
g63
NtRp2976
(dp2977
g66
(dp2978
g93
g94
ssg75
g2967
sg68
(lp2979
S':'
asbag61
(g82
g63
NtRp2980
(dp2981
g66
(dp2982
sg75
g2967
sg68
(lp2983
g61
(g62
g63
NtRp2984
(dp2985
g66
(dp2986
g74
I3
ssg75
g2980
sg68
(lp2987
S''
asbasbasbag61
(g77
g63
NtRp2988
(dp2989
g66
(dp2990
sg75
g2564
sg68
(lp2991
g61
(g82
g63
NtRp2992
(dp2993
g66
(dp2994
g86
g87
ssg75
g2988
sg68
(lp2995
S'REMOTE_ADDR'
p2996
asbag61
(g82
g63
NtRp2997
(dp2998
g66
(dp2999
g93
g94
ssg75
g2988
sg68
(lp3000
S':'
asbag61
(g82
g63
NtRp3001
(dp3002
g66
(dp3003
sg75
g2988
sg68
(lp3004
g61
(g62
g63
NtRp3005
(dp3006
g66
(dp3007
g74
I3
ssg75
g3001
sg68
(lp3008
g1156
asbasbasbag61
(g77
g63
NtRp3009
(dp3010
g66
(dp3011
sg75
g2564
sg68
(lp3012
g61
(g82
g63
NtRp3013
(dp3014
g66
(dp3015
g86
g87
ssg75
g3009
sg68
(lp3016
S'REMOTE_PORT'
p3017
asbag61
(g82
g63
NtRp3018
(dp3019
g66
(dp3020
g93
g94
ssg75
g3009
sg68
(lp3021
S':'
asbag61
(g82
g63
NtRp3022
(dp3023
g66
(dp3024
sg75
g3009
sg68
(lp3025
g61
(g62
g63
NtRp3026
(dp3027
g66
(dp3028
g74
I3
ssg75
g3022
sg68
(lp3029
g1178
asbasbasbag61
(g77
g63
NtRp3030
(dp3031
g66
(dp3032
sg75
g2564
sg68
(lp3033
g61
(g82
g63
NtRp3034
(dp3035
g66
(dp3036
g86
g87
ssg75
g3030
sg68
(lp3037
S'REQUEST_METHOD'
p3038
asbag61
(g82
g63
NtRp3039
(dp3040
g66
(dp3041
g93
g94
ssg75
g3030
sg68
(lp3042
S':'
asbag61
(g82
g63
NtRp3043
(dp3044
g66
(dp3045
sg75
g3030
sg68
(lp3046
g61
(g62
g63
NtRp3047
(dp3048
g66
(dp3049
g74
I3
ssg75
g3043
sg68
(lp3050
g1200
asbasbasbag61
(g77
g63
NtRp3051
(dp3052
g66
(dp3053
sg75
g2564
sg68
(lp3054
g61
(g82
g63
NtRp3055
(dp3056
g66
(dp3057
g86
g87
ssg75
g3051
sg68
(lp3058
S'REQUEST_URI'
p3059
asbag61
(g82
g63
NtRp3060
(dp3061
g66
(dp3062
g93
g94
ssg75
g3051
sg68
(lp3063
S':'
asbag61
(g82
g63
NtRp3064
(dp3065
g66
(dp3066
sg75
g3051
sg68
(lp3067
g61
(g62
g63
NtRp3068
(dp3069
g66
(dp3070
g74
I3
ssg75
g3064
sg68
(lp3071
g1222
asbasbasbag61
(g77
g63
NtRp3072
(dp3073
g66
(dp3074
sg75
g2564
sg68
(lp3075
g61
(g82
g63
NtRp3076
(dp3077
g66
(dp3078
g86
g87
ssg75
g3072
sg68
(lp3079
S'SCRIPT_NAME'
p3080
asbag61
(g82
g63
NtRp3081
(dp3082
g66
(dp3083
g93
g94
ssg75
g3072
sg68
(lp3084
S':'
asbag61
(g82
g63
NtRp3085
(dp3086
g66
(dp3087
sg75
g3072
sg68
(lp3088
g61
(g62
g63
NtRp3089
(dp3090
g66
(dp3091
g74
I3
ssg75
g3085
sg68
(lp3092
S''
asbasbasbag61
(g77
g63
NtRp3093
(dp3094
g66
(dp3095
sg75
g2564
sg68
(lp3096
g61
(g82
g63
NtRp3097
(dp3098
g66
(dp3099
g86
g87
ssg75
g3093
sg68
(lp3100
S'SERVER_NAME'
p3101
asbag61
(g82
g63
NtRp3102
(dp3103
g66
(dp3104
g93
g94
ssg75
g3093
sg68
(lp3105
S':'
asbag61
(g82
g63
NtRp3106
(dp3107
g66
(dp3108
sg75
g3093
sg68
(lp3109
g61
(g62
g63
NtRp3110
(dp3111
g66
(dp3112
g74
I3
ssg75
g3106
sg68
(lp3113
g1265
asbasbasbag61
(g77
g63
NtRp3114
(dp3115
g66
(dp3116
sg75
g2564
sg68
(lp3117
g61
(g82
g63
NtRp3118
(dp3119
g66
(dp3120
g86
g87
ssg75
g3114
sg68
(lp3121
S'SERVER_PORT'
p3122
asbag61
(g82
g63
NtRp3123
(dp3124
g66
(dp3125
g93
g94
ssg75
g3114
sg68
(lp3126
S':'
asbag61
(g82
g63
NtRp3127
(dp3128
g66
(dp3129
sg75
g3114
sg68
(lp3130
g61
(g62
g63
NtRp3131
(dp3132
g66
(dp3133
g74
I3
ssg75
g3127
sg68
(lp3134
g1287
asbasbasbag61
(g77
g63
NtRp3135
(dp3136
g66
(dp3137
sg75
g2564
sg68
(lp3138
g61
(g82
g63
NtRp3139
(dp3140
g66
(dp3141
g86
g87
ssg75
g3135
sg68
(lp3142
S'SERVER_PROTOCOL'
p3143
asbag61
(g82
g63
NtRp3144
(dp3145
g66
(dp3146
g93
g94
ssg75
g3135
sg68
(lp3147
S':'
asbag61
(g82
g63
NtRp3148
(dp3149
g66
(dp3150
sg75
g3135
sg68
(lp3151
g61
(g62
g63
NtRp3152
(dp3153
g66
(dp3154
g74
I3
ssg75
g3148
sg68
(lp3155
g1309
asbasbasbag61
(g77
g63
NtRp3156
(dp3157
g66
(dp3158
sg75
g2564
sg68
(lp3159
g61
(g82
g63
NtRp3160
(dp3161
g66
(dp3162
g86
g87
ssg75
g3156
sg68
(lp3163
S'uwsgi.node'
p3164
asbag61
(g82
g63
NtRp3165
(dp3166
g66
(dp3167
g93
g94
ssg75
g3156
sg68
(lp3168
S':'
asbag61
(g82
g63
NtRp3169
(dp3170
g66
(dp3171
sg75
g3156
sg68
(lp3172
g61
(g62
g63
NtRp3173
(dp3174
g66
(dp3175
g74
I3
ssg75
g3169
sg68
(lp3176
g1331
asbasbasbag61
(g77
g63
NtRp3177
(dp3178
g66
(dp3179
sg75
g2564
sg68
(lp3180
g61
(g82
g63
NtRp3181
(dp3182
g66
(dp3183
g86
g87
ssg75
g3177
sg68
(lp3184
S'uwsgi.version'
p3185
asbag61
(g82
g63
NtRp3186
(dp3187
g66
(dp3188
g93
g94
ssg75
g3177
sg68
(lp3189
S':'
asbag61
(g82
g63
NtRp3190
(dp3191
g66
(dp3192
sg75
g3177
sg68
(lp3193
g61
(g62
g63
NtRp3194
(dp3195
g66
(dp3196
g74
I3
ssg75
g3190
sg68
(lp3197
g1353
asbasbasbag61
(g77
g63
NtRp3198
(dp3199
g66
(dp3200
sg75
g2564
sg68
(lp3201
g61
(g82
g63
NtRp3202
(dp3203
g66
(dp3204
g86
g87
ssg75
g3198
sg68
(lp3205
S'wsgi.errors'
p3206
asbag61
(g82
g63
NtRp3207
(dp3208
g66
(dp3209
g93
g94
ssg75
g3198
sg68
(lp3210
S':'
asbag61
(g82
g63
NtRp3211
(dp3212
g66
(dp3213
sg75
g3198
sg68
(lp3214
g61
(g62
g63
NtRp3215
(dp3216
g66
(dp3217
g74
I3
ssg75
g3211
sg68
(lp3218
S'<uwsgi_file__bin_user_wsgi_wrapper.ErrorLogWrapper object at 0x1a53ed0>'
p3219
asbasbasbag61
(g77
g63
NtRp3220
(dp3221
g66
(dp3222
sg75
g2564
sg68
(lp3223
g61
(g82
g63
NtRp3224
(dp3225
g66
(dp3226
g86
g87
ssg75
g3220
sg68
(lp3227
S'wsgi.file_wrapper'
p3228
asbag61
(g82
g63
NtRp3229
(dp3230
g66
(dp3231
g93
g94
ssg75
g3220
sg68
(lp3232
S':'
asbag61
(g82
g63
NtRp3233
(dp3234
g66
(dp3235
sg75
g3220
sg68
(lp3236
g61
(g62
g63
NtRp3237
(dp3238
g66
(dp3239
g74
I3
ssg75
g3233
sg68
(lp3240
S'<built-in function uwsgi_sendfile>'
p3241
asbasbasbag61
(g77
g63
NtRp3242
(dp3243
g66
(dp3244
sg75
g2564
sg68
(lp3245
g61
(g82
g63
NtRp3246
(dp3247
g66
(dp3248
g86
g87
ssg75
g3242
sg68
(lp3249
S'wsgi.input'
p3250
asbag61
(g82
g63
NtRp3251
(dp3252
g66
(dp3253
g93
g94
ssg75
g3242
sg68
(lp3254
S':'
asbag61
(g82
g63
NtRp3255
(dp3256
g66
(dp3257
sg75
g3242
sg68
(lp3258
g61
(g62
g63
NtRp3259
(dp3260
g66
(dp3261
g74
I3
ssg75
g3255
sg68
(lp3262
S"<open file '<fdopen>', mode 'w+b' at 0x2c5f150>"
p3263
asbasbasbag61
(g77
g63
NtRp3264
(dp3265
g66
(dp3266
sg75
g2564
sg68
(lp3267
g61
(g82
g63
NtRp3268
(dp3269
g66
(dp3270
g86
g87
ssg75
g3264
sg68
(lp3271
S'wsgi.multiprocess'
p3272
asbag61
(g82
g63
NtRp3273
(dp3274
g66
(dp3275
g93
g94
ssg75
g3264
sg68
(lp3276
S':'
asbag61
(g82
g63
NtRp3277
(dp3278
g66
(dp3279
sg75
g3264
sg68
(lp3280
g61
(g62
g63
NtRp3281
(dp3282
g66
(dp3283
g74
I3
ssg75
g3277
sg68
(lp3284
g104
asbasbasbag61
(g77
g63
NtRp3285
(dp3286
g66
(dp3287
sg75
g2564
sg68
(lp3288
g61
(g82
g63
NtRp3289
(dp3290
g66
(dp3291
g86
g87
ssg75
g3285
sg68
(lp3292
S'wsgi.multithread'
p3293
asbag61
(g82
g63
NtRp3294
(dp3295
g66
(dp3296
g93
g94
ssg75
g3285
sg68
(lp3297
S':'
asbag61
(g82
g63
NtRp3298
(dp3299
g66
(dp3300
sg75
g3285
sg68
(lp3301
g61
(g62
g63
NtRp3302
(dp3303
g66
(dp3304
g74
I3
ssg75
g3298
sg68
(lp3305
g104
asbasbasbag61
(g77
g63
NtRp3306
(dp3307
g66
(dp3308
sg75
g2564
sg68
(lp3309
g61
(g82
g63
NtRp3310
(dp3311
g66
(dp3312
g86
g87
ssg75
g3306
sg68
(lp3313
S'wsgi.run_once'
p3314
asbag61
(g82
g63
NtRp3315
(dp3316
g66
(dp3317
g93
g94
ssg75
g3306
sg68
(lp3318
S':'
asbag61
(g82
g63
NtRp3319
(dp3320
g66
(dp3321
sg75
g3306
sg68
(lp3322
g61
(g62
g63
NtRp3323
(dp3324
g66
(dp3325
g74
I3
ssg75
g3319
sg68
(lp3326
g104
asbasbasbag61
(g77
g63
NtRp3327
(dp3328
g66
(dp3329
sg75
g2564
sg68
(lp3330
g61
(g82
g63
NtRp3331
(dp3332
g66
(dp3333
g86
g87
ssg75
g3327
sg68
(lp3334
S'wsgi.url_scheme'
p3335
asbag61
(g82
g63
NtRp3336
(dp3337
g66
(dp3338
g93
g94
ssg75
g3327
sg68
(lp3339
S':'
asbag61
(g82
g63
NtRp3340
(dp3341
g66
(dp3342
sg75
g3327
sg68
(lp3343
g61
(g62
g63
NtRp3344
(dp3345
g66
(dp3346
g74
I3
ssg75
g3340
sg68
(lp3347
g1612
asbasbasbag61
(g77
g63
NtRp3348
(dp3349
g66
(dp3350
sg75
g2564
sg68
(lp3351
g61
(g82
g63
NtRp3352
(dp3353
g66
(dp3354
g86
g87
ssg75
g3348
sg68
(lp3355
S'wsgi.version'
p3356
asbag61
(g82
g63
NtRp3357
(dp3358
g66
(dp3359
g93
g94
ssg75
g3348
sg68
(lp3360
S':'
asbag61
(g82
g63
NtRp3361
(dp3362
g66
(dp3363
sg75
g3348
sg68
(lp3364
g61
(g62
g63
NtRp3365
(dp3366
g66
(dp3367
g74
I3
ssg75
g3361
sg68
(lp3368
S'1'
asbasbasbasbasbasbasbasbasbasbasbasbasbsS'frames'
p3369
(lp3370
(dp3371
S'file'
p3372
S'/home/rsoutelino/web2py/gluon/restricted.py'
p3373
sS'dump'
p3374
(dp3375
S'environment'
p3376
S"{'A': <class 'gluon.html.A'>, 'Auth': <class 'gluon.tools.Auth'>, 'B': <class 'gluon.html.B'>, 'BEAUTIFY': <class 'gluon.html.BEAUTIFY'>, 'BODY': <class 'gluon.html.BODY'>, 'BR': <class 'gluon.html.BR'>, 'BUTTON': <class 'gluon.html.BUTTON'>, 'CAT': <class 'gluon.html.CAT'>, 'CENTER': <class 'gluon.html.CENTER'>, 'CLEANUP': <class 'gluon.validators.CLEANUP'>, ...}"
p3377
sS'ccode'
p3378
S'<code object <module> at 0x27ed930, file "/home/...tions/rsoutelino/controllers/contact.py", line 1>'
p3379
ssS'lnum'
p3380
I212
sS'lines'
p3381
(dp3382
I207
S'    try:'
p3383
sI208
S'        if isinstance(code, types.CodeType):'
p3384
sI209
S'            ccode = code'
p3385
sI210
S'        else:'
p3386
sI211
S'            ccode = compile2(code, layer)'
p3387
sI212
S'        exec ccode in environment'
p3388
sI213
S'    except HTTP:'
p3389
sI214
S'        raise'
p3390
sI215
S'    except RestrictedError:'
p3391
sI216
S'        # do not encapsulate (obfuscate) the original RestrictedError'
p3392
ssS'call'
p3393
S'(code=\'def contact():\\n    form = SQLFORM(db.contacts,\\n ... again"\\nresponse._vars=response._caller(contact)\\n\', environment={\'A\': <class \'gluon.html.A\'>, \'Auth\': <class \'gluon.tools.Auth\'>, \'B\': <class \'gluon.html.B\'>, \'BEAUTIFY\': <class \'gluon.html.BEAUTIFY\'>, \'BODY\': <class \'gluon.html.BODY\'>, \'BR\': <class \'gluon.html.BR\'>, \'BUTTON\': <class \'gluon.html.BUTTON\'>, \'CAT\': <class \'gluon.html.CAT\'>, \'CENTER\': <class \'gluon.html.CENTER\'>, \'CLEANUP\': <class \'gluon.validators.CLEANUP\'>, ...}, layer=\'/home/rsoutelino/web2py/applications/rsoutelino/controllers/contact.py\')'
p3394
sS'func'
p3395
S'restricted'
p3396
sa(dp3397
g3372
S'/home/rsoutelino/web2py/applications/rsoutelino/controllers/contact.py'
p3398
sg3374
(dp3399
sg3380
I30
sg3381
(dp3400
I20
S''
sI21
S'#        if form.process().accepted:'
p3401
sI22
S'#        message = "%s %s %s" %(form.vars.name, form.vars.email, form.vars.commentary)'
p3402
sI23
S'#        status = mail.send(to="rsoutelino@gmail.com", subject="You received a message through rsoutelino.com", reply_to=form.vars.email, message=[message])'
p3403
sI24
S'#        if status==True:'
p3404
sI25
S'#            response.flash=T("Your message was successfully sent!")'
p3405
sI26
S'#        else:'
p3406
sI27
S'#            response.flash="Ops, something went wrong, try again please..."'
p3407
sI28
S'#    else:'
p3408
sI29
S'#        response.flash="try again"'
p3409
ssg3393
S'()'
p3410
sg3395
S'<module>'
p3411
sa(dp3412
g3372
S'/home/rsoutelino/web2py/gluon/globals.py'
p3413
sg3374
(dp3414
S'self'
p3415
S'undefined'
p3416
sS'f'
S'<function contact>'
p3417
ssg3380
I188
sg3381
(dp3418
I192
S''
sI183
S'        self.menu = []             # used by the default view layout'
p3419
sI184
S'        self.files = []            # used by web2py_ajax.html'
p3420
sI185
S'        self.generic_patterns = []  # patterns to allow generic views'
p3421
sI186
S"        self.delimiters = ('{{', '}}')"
p3422
sI187
S'        self._vars = None'
p3423
sI188
S'        self._caller = lambda f: f()'
p3424
sI189
S'        self._view_environment = None'
p3425
sI190
S'        self._custom_commit = None'
p3426
sI191
S'        self._custom_rollback = None'
p3427
ssg3393
S'(f=<function contact>)'
p3428
sg3395
S'<lambda>'
p3429
sa(dp3430
g3372
S'/home/rsoutelino/web2py/applications/rsoutelino/controllers/contact.py'
p3431
sg3374
(dp3432
S'form.process'
p3433
S'<bound method SQLFORM.process of <gluon.sqlhtml.SQLFORM object>>'
p3434
sS').accepted'
p3435
g3416
sS'form'
p3436
S'<gluon.sqlhtml.SQLFORM object>'
p3437
ssg3380
I6
sg3381
(dp3438
I2
S'    form = SQLFORM(db.contacts,'
p3439
sI3
S'        labels = {"name":"Nome",'
p3440
sI4
S'                    "email":"E-mail", "tel":"Telefone",'
p3441
sI5
S'                    "adress":"Endereco", "commentary":"Comentario"})'
p3442
sI6
S'    if form.process().accepted:'
p3443
sI7
S'        message = ("Nome: %(name)s\\n"'
p3444
sI8
S'                    "E-mail: %(email)s\\n"'
p3445
sI9
S'                    "Telefone: %(tel)s\\n"'
p3446
sI10
S'                    "Endereco: %(adress)s\\n"'
p3447
sI11
S'                    "Comentario: %(commentary)s\\n")'
p3448
ssg3393
S'()'
p3449
sg3395
S'contact'
p3450
sa(dp3451
g3372
S'/home/rsoutelino/web2py/gluon/html.py'
p3452
sg3374
(dp3453
S'self'
p3454
S'<gluon.sqlhtml.SQLFORM object>'
p3455
sS'self.validate'
p3456
S'<bound method SQLFORM.validate of <gluon.sqlhtml.SQLFORM object>>'
p3457
sS'kwargs'
p3458
S"{'dbio': True}"
p3459
ssg3380
I2170
sg3381
(dp3460
I2165
S'        def action():'
p3461
sI2166
S'            return dict(form=SQLFORM(db.table).process(onsuccess=my_callback)'
p3462
sI2167
S'        """'
p3463
sI2168
S"        kwargs['dbio'] = kwargs.get('dbio', True)"
p3464
sI2169
S'                                    # necessary for SQLHTML forms'
p3465
sI2170
S'        self.validate(**kwargs)'
p3466
sI2171
S'        return self'
p3467
sI2172
S''
sI2173
S'    REDIRECT_JS = "window.location=\'%s\';return false"'
p3468
sI2174
S''
ssg3393
S"(self=<gluon.sqlhtml.SQLFORM object>, **kwargs={'dbio': True})"
p3469
sg3395
S'process'
p3470
sa(dp3471
g3372
S'/home/rsoutelino/web2py/gluon/html.py'
p3472
sg3374
(dp3473
S'self'
p3474
S'<gluon.sqlhtml.SQLFORM object>'
p3475
sS'self.accepts'
p3476
S'<bound method SQLFORM.accepts of <gluon.sqlhtml.SQLFORM object>>'
p3477
sS'kwargs'
p3478
S"{'dbio': True, 'request_vars': <Storage {'tel': '1234567', 'name': 'teste teste...dress': 'teste', '_formname': 'contacts/create'}>, 'session': <Storage {'_session_hash': 'ecc6e43ac9b8105f26d1...reate]': 'cd906b79-aad2-4b47-a66c-c57f53ac13b4'}>}"
p3479
ssg3380
I2109
sg3381
(dp3480
I2112
S'                    current.session.flash = message_onsuccess'
p3481
sI2113
S'                else:'
p3482
sI2104
S"        for key in ('message_onsuccess', 'message_onfailure', 'onsuccess',"
p3483
sI2105
S"                    'onfailure', 'next', 'message_onchange', 'onchange'):"
p3484
sI2106
S'            if key in kwargs:'
p3485
sI2107
S'                del kwargs[key]'
p3486
sI2108
S''
sI2109
S'        if self.accepts(**kwargs):'
p3487
sI2110
S"            if onsuccess == 'flash':"
p3488
sI2111
S'                if next:'
p3489
ssg3393
S"(self=<gluon.sqlhtml.SQLFORM object>, **kwargs={'dbio': True, 'request_vars': <Storage {'tel': '1234567', 'name': 'teste teste...dress': 'teste', '_formname': 'contacts/create'}>, 'session': <Storage {'_session_hash': 'ecc6e43ac9b8105f26d1...reate]': 'cd906b79-aad2-4b47-a66c-c57f53ac13b4'}>})"
p3490
sg3395
S'validate'
p3491
sa(dp3492
g3372
S'/home/rsoutelino/web2py/gluon/sqlhtml.py'
p3493
sg3374
(dp3494
S'self.vars.id'
p3495
S'None'
p3496
sS'fields'
p3497
S"{'adress': 'teste', 'commentary': 'testetsetsets', 'email': 'teste.s@teste.com', 'name': 'teste teste', 'tel': '1234567'}"
p3498
sS'self'
p3499
S'<gluon.sqlhtml.SQLFORM object>'
p3500
sS'self.vars'
p3501
S"<Storage {'adress': 'teste', 'commentary': 'test...e': 'teste teste', 'email': 'teste.s@teste.com'}>"
p3502
sS'self.table.insert'
p3503
S'<bound method Table.insert of <Table contacts (id,name,email,tel,adress,commentary)>>'
p3504
sS'self.table'
p3505
S'<Table contacts (id,name,email,tel,adress,commentary)>'
p3506
ssg3380
I1475
sg3381
(dp3507
I1472
S'                        self.table._db(self.table._id == self.record['
p3508
sI1473
S'                                       self.id_field_name]).update(**fields)'
p3509
sI1474
S'                else:'
p3510
sI1475
S'                    self.vars.id = self.table.insert(**fields)'
p3511
sI1476
S'        self.accepted = ret'
p3512
sI1477
S'        return ret'
p3513
sI1478
S''
sI1479
S'    AUTOTYPES = {'
p3514
sI1470
S'                    self.vars.id = self.record[self.id_field_name]'
p3515
sI1471
S'                    if fields:'
p3516
ssg3393
S"(self=<gluon.sqlhtml.SQLFORM object>, request_vars=<Storage {'tel': '1234567', 'name': 'teste teste...dress': 'teste', '_formname': 'contacts/create'}>, session=<Storage {'_session_hash': 'ecc6e43ac9b8105f26d1...reate]': 'cd906b79-aad2-4b47-a66c-c57f53ac13b4'}>, formname='contacts/create', keepvalues=False, onvalidation=None, dbio=True, hideerror=False, detect_record_change=False, **kwargs={})"
p3517
sg3395
S'accepts'
p3518
sa(dp3519
g3372
S'/home/rsoutelino/web2py/gluon/dal.py'
p3520
sg3374
(dp3521
S'self._listify'
p3522
S'<bound method Table._listify of <Table contacts (id,name,email,tel,adress,commentary)>>'
p3523
sS'fields'
p3524
S"{'adress': 'teste', 'commentary': 'testetsetsets', 'email': 'teste.s@teste.com', 'name': 'teste teste', 'tel': '1234567'}"
p3525
sS'self'
p3526
S'<Table contacts (id,name,email,tel,adress,commentary)>'
p3527
sS'ret'
p3528
g3416
sS'self._db._adapter'
p3529
S'<gluon.dal.SQLiteAdapter object>'
p3530
sS'self._db._adapter.insert'
p3531
S'<bound method SQLiteAdapter.insert of <gluon.dal.SQLiteAdapter object>>'
p3532
sS'self._db'
p3533
S'<DAL uri="sqlite://contacts.sqlite">'
p3534
ssg3380
I7806
sg3381
(dp3535
I7808
S'            fields = Row(fields)'
p3536
sI7809
S'            [f(fields,ret) for f in self._after_insert]'
p3537
sI7810
S'        return ret'
p3538
sI7801
S'        return self._db._adapter._insert(self,self._listify(fields))'
p3539
sI7802
S''
sI7803
S'    def insert(self, **fields):'
p3540
sI7804
S'        self._attempt_upload(fields)'
p3541
sI7805
S'        if any(f(fields) for f in self._before_insert): return 0'
p3542
sI7806
S'        ret =  self._db._adapter.insert(self,self._listify(fields))'
p3543
sI7807
S'        if ret and self._after_insert:'
p3544
ssg3393
S"(self=<Table contacts (id,name,email,tel,adress,commentary)>, **fields={'adress': 'teste', 'commentary': 'testetsetsets', 'email': 'teste.s@teste.com', 'name': 'teste teste', 'tel': '1234567'})"
p3545
sg3395
S'insert'
p3546
sa(dp3547
g3372
S'/home/rsoutelino/web2py/gluon/dal.py'
p3548
sg3374
(dp3549
S'e'
S"IntegrityError('column name is not unique',)"
p3550
ssg3380
I1161
sg3381
(dp3551
I1156
S'        try:'
p3552
sI1157
S'            self.execute(query)'
p3553
sI1158
S'        except Exception, e:'
p3554
sI1159
S'            if isinstance(e,self.integrity_error_class()):'
p3555
sI1160
S'                return None'
p3556
sI1161
S'            raise e'
p3557
sI1162
S"        if hasattr(table,'_primarykey'):"
p3558
sI1163
S'            return dict([(k[0].name, k[1]) for k in fields \\'
p3559
sI1164
S'                             if k[0].name in table._primarykey])'
p3560
sI1165
S'        id = self.lastrowid(table)'
p3561
ssg3393
S"(self=<gluon.dal.SQLiteAdapter object>, table=<Table contacts (id,name,email,tel,adress,commentary)>, fields=[(<gluon.dal.Field object>, 'testetsetsets'), (<gluon.dal.Field object>, 'teste.s@teste.com'), (<gluon.dal.Field object>, '1234567'), (<gluon.dal.Field object>, 'teste teste'), (<gluon.dal.Field object>, 'teste')])"
p3562
sg3395
g3546
sasS'pyver'
p3563
S'Python 2.7.3: /usr/local/bin/uwsgi'
p3564
sS'session'
p3565
g61
(g62
g63
NtRp3566
(dp3567
g66
(dp3568
sg68
(lp3569
g61
(g70
g63
NtRp3570
(dp3571
g66
(dp3572
g74
I5
ssg75
Nsg68
(lp3573
sbasbsS'etype'
p3574
S"<class 'sqlite3.IntegrityError'>"
p3575
sS'date'
p3576
S'Thu Feb  7 14:22:29 2013'
p3577
sS'response'
p3578
g61
(g62
g63
NtRp3579
(dp3580
g66
(dp3581
sg68
(lp3582
g61
(g70
g63
NtRp3583
(dp3584
g66
(dp3585
g74
I5
ssg75
Nsg68
(lp3586
g61
(g77
g63
NtRp3587
(dp3588
g66
(dp3589
sg75
g3583
sg68
(lp3590
g61
(g82
g63
NtRp3591
(dp3592
g66
(dp3593
g86
g87
ssg75
g3587
sg68
(lp3594
g159
asbag61
(g82
g63
NtRp3595
(dp3596
g66
(dp3597
g93
g94
ssg75
g3587
sg68
(lp3598
S':'
asbag61
(g82
g63
NtRp3599
(dp3600
g66
(dp3601
sg75
g3587
sg68
(lp3602
g61
(g62
g63
NtRp3603
(dp3604
g66
(dp3605
g74
I5
ssg75
g3599
sg68
(lp3606
S'<cStringIO.StringO object at 0x27c68f0>'
p3607
asbasbasbag61
(g77
g63
NtRp3608
(dp3609
g66
(dp3610
sg75
g3583
sg68
(lp3611
g61
(g82
g63
NtRp3612
(dp3613
g66
(dp3614
g86
g87
ssg75
g3608
sg68
(lp3615
g247
asbag61
(g82
g63
NtRp3616
(dp3617
g66
(dp3618
g93
g94
ssg75
g3608
sg68
(lp3619
S':'
asbag61
(g82
g63
NtRp3620
(dp3621
g66
(dp3622
sg75
g3608
sg68
(lp3623
g61
(g62
g63
NtRp3624
(dp3625
g66
(dp3626
g74
I5
ssg75
g3620
sg68
(lp3627
g61
(g70
g63
NtRp3628
(dp3629
g66
(dp3630
g74
I4
ssg75
Nsg68
(lp3631
g61
(g77
g63
NtRp3632
(dp3633
g66
(dp3634
sg75
g3628
sg68
(lp3635
g61
(g82
g63
NtRp3636
(dp3637
g66
(dp3638
g86
g87
ssg75
g3632
sg68
(lp3639
S'session_id_rsoutelino'
p3640
asbag61
(g82
g63
NtRp3641
(dp3642
g66
(dp3643
g93
g94
ssg75
g3632
sg68
(lp3644
S':'
asbag61
(g82
g63
NtRp3645
(dp3646
g66
(dp3647
sg75
g3632
sg68
(lp3648
g61
(g62
g63
NtRp3649
(dp3650
g66
(dp3651
g74
I4
ssg75
g3645
sg68
(lp3652
g285
ag61
(g70
g63
NtRp3653
(dp3654
g66
(dp3655
g74
I3
ssg75
Nsg68
(lp3656
g61
(g77
g63
NtRp3657
(dp3658
g66
(dp3659
sg75
g3653
sg68
(lp3660
g61
(g82
g63
NtRp3661
(dp3662
g66
(dp3663
g86
g87
ssg75
g3657
sg68
(lp3664
g298
asbag61
(g82
g63
NtRp3665
(dp3666
g66
(dp3667
g93
g94
ssg75
g3657
sg68
(lp3668
S':'
asbag61
(g82
g63
NtRp3669
(dp3670
g66
(dp3671
sg75
g3657
sg68
(lp3672
g61
(g62
g63
NtRp3673
(dp3674
g66
(dp3675
g74
I3
ssg75
g3669
sg68
(lp3676
S''
asbasbasbag61
(g77
g63
NtRp3677
(dp3678
g66
(dp3679
sg75
g3653
sg68
(lp3680
g61
(g82
g63
NtRp3681
(dp3682
g66
(dp3683
g86
g87
ssg75
g3677
sg68
(lp3684
g319
asbag61
(g82
g63
NtRp3685
(dp3686
g66
(dp3687
g93
g94
ssg75
g3677
sg68
(lp3688
S':'
asbag61
(g82
g63
NtRp3689
(dp3690
g66
(dp3691
sg75
g3677
sg68
(lp3692
g61
(g62
g63
NtRp3693
(dp3694
g66
(dp3695
g74
I3
ssg75
g3689
sg68
(lp3696
S''
asbasbasbag61
(g77
g63
NtRp3697
(dp3698
g66
(dp3699
sg75
g3653
sg68
(lp3700
g61
(g82
g63
NtRp3701
(dp3702
g66
(dp3703
g86
g87
ssg75
g3697
sg68
(lp3704
g340
asbag61
(g82
g63
NtRp3705
(dp3706
g66
(dp3707
g93
g94
ssg75
g3697
sg68
(lp3708
S':'
asbag61
(g82
g63
NtRp3709
(dp3710
g66
(dp3711
sg75
g3697
sg68
(lp3712
g61
(g62
g63
NtRp3713
(dp3714
g66
(dp3715
g74
I3
ssg75
g3709
sg68
(lp3716
S''
asbasbasbag61
(g77
g63
NtRp3717
(dp3718
g66
(dp3719
sg75
g3653
sg68
(lp3720
g61
(g82
g63
NtRp3721
(dp3722
g66
(dp3723
g86
g87
ssg75
g3717
sg68
(lp3724
g361
asbag61
(g82
g63
NtRp3725
(dp3726
g66
(dp3727
g93
g94
ssg75
g3717
sg68
(lp3728
S':'
asbag61
(g82
g63
NtRp3729
(dp3730
g66
(dp3731
sg75
g3717
sg68
(lp3732
g61
(g62
g63
NtRp3733
(dp3734
g66
(dp3735
g74
I3
ssg75
g3729
sg68
(lp3736
S''
asbasbasbag61
(g77
g63
NtRp3737
(dp3738
g66
(dp3739
sg75
g3653
sg68
(lp3740
g61
(g82
g63
NtRp3741
(dp3742
g66
(dp3743
g86
g87
ssg75
g3737
sg68
(lp3744
g382
asbag61
(g82
g63
NtRp3745
(dp3746
g66
(dp3747
g93
g94
ssg75
g3737
sg68
(lp3748
S':'
asbag61
(g82
g63
NtRp3749
(dp3750
g66
(dp3751
sg75
g3737
sg68
(lp3752
g61
(g62
g63
NtRp3753
(dp3754
g66
(dp3755
g74
I3
ssg75
g3749
sg68
(lp3756
S''
asbasbasbag61
(g77
g63
NtRp3757
(dp3758
g66
(dp3759
sg75
g3653
sg68
(lp3760
g61
(g82
g63
NtRp3761
(dp3762
g66
(dp3763
g86
g87
ssg75
g3757
sg68
(lp3764
g403
asbag61
(g82
g63
NtRp3765
(dp3766
g66
(dp3767
g93
g94
ssg75
g3757
sg68
(lp3768
S':'
asbag61
(g82
g63
NtRp3769
(dp3770
g66
(dp3771
sg75
g3757
sg68
(lp3772
g61
(g62
g63
NtRp3773
(dp3774
g66
(dp3775
g74
I3
ssg75
g3769
sg68
(lp3776
S'/'
asbasbasbag61
(g77
g63
NtRp3777
(dp3778
g66
(dp3779
sg75
g3653
sg68
(lp3780
g61
(g82
g63
NtRp3781
(dp3782
g66
(dp3783
g86
g87
ssg75
g3777
sg68
(lp3784
g424
asbag61
(g82
g63
NtRp3785
(dp3786
g66
(dp3787
g93
g94
ssg75
g3777
sg68
(lp3788
S':'
asbag61
(g82
g63
NtRp3789
(dp3790
g66
(dp3791
sg75
g3777
sg68
(lp3792
g61
(g62
g63
NtRp3793
(dp3794
g66
(dp3795
g74
I3
ssg75
g3789
sg68
(lp3796
S''
asbasbasbag61
(g77
g63
NtRp3797
(dp3798
g66
(dp3799
sg75
g3653
sg68
(lp3800
g61
(g82
g63
NtRp3801
(dp3802
g66
(dp3803
g86
g87
ssg75
g3797
sg68
(lp3804
g445
asbag61
(g82
g63
NtRp3805
(dp3806
g66
(dp3807
g93
g94
ssg75
g3797
sg68
(lp3808
S':'
asbag61
(g82
g63
NtRp3809
(dp3810
g66
(dp3811
sg75
g3797
sg68
(lp3812
g61
(g62
g63
NtRp3813
(dp3814
g66
(dp3815
g74
I3
ssg75
g3809
sg68
(lp3816
S''
asbasbasbasbasbasbasbasbasbasbasbag61
(g77
g63
NtRp3817
(dp3818
g66
(dp3819
sg75
g3583
sg68
(lp3820
g61
(g82
g63
NtRp3821
(dp3822
g66
(dp3823
g86
g87
ssg75
g3817
sg68
(lp3824
S'delimiters'
p3825
asbag61
(g82
g63
NtRp3826
(dp3827
g66
(dp3828
g93
g94
ssg75
g3817
sg68
(lp3829
S':'
asbag61
(g82
g63
NtRp3830
(dp3831
g66
(dp3832
sg75
g3817
sg68
(lp3833
g61
(g62
g63
NtRp3834
(dp3835
g66
(dp3836
g74
I5
ssg75
g3830
sg68
(lp3837
g61
(g70
g63
NtRp3838
(dp3839
g66
(dp3840
g74
I4
ssg75
Nsg68
(lp3841
g61
(g77
g63
NtRp3842
(dp3843
g66
(dp3844
sg75
g3838
sg68
(lp3845
g61
(g82
g63
NtRp3846
(dp3847
g66
(dp3848
sg75
g3842
sg68
(lp3849
g61
(g62
g63
NtRp3850
(dp3851
g66
(dp3852
g74
I4
ssg75
g3846
sg68
(lp3853
S'{{'
p3854
asbasbasbag61
(g77
g63
NtRp3855
(dp3856
g66
(dp3857
sg75
g3838
sg68
(lp3858
g61
(g82
g63
NtRp3859
(dp3860
g66
(dp3861
sg75
g3855
sg68
(lp3862
g61
(g62
g63
NtRp3863
(dp3864
g66
(dp3865
g74
I4
ssg75
g3859
sg68
(lp3866
S'}}'
p3867
asbasbasbasbasbasbasbag61
(g77
g63
NtRp3868
(dp3869
g66
(dp3870
sg75
g3583
sg68
(lp3871
g61
(g82
g63
NtRp3872
(dp3873
g66
(dp3874
g86
g87
ssg75
g3868
sg68
(lp3875
S'files'
p3876
asbag61
(g82
g63
NtRp3877
(dp3878
g66
(dp3879
g93
g94
ssg75
g3868
sg68
(lp3880
S':'
asbag61
(g82
g63
NtRp3881
(dp3882
g66
(dp3883
sg75
g3868
sg68
(lp3884
g61
(g62
g63
NtRp3885
(dp3886
g66
(dp3887
g74
I5
ssg75
g3881
sg68
(lp3888
g61
(g70
g63
NtRp3889
(dp3890
g66
(dp3891
g74
I4
ssg75
Nsg68
(lp3892
sbasbasbasbag61
(g77
g63
NtRp3893
(dp3894
g66
(dp3895
sg75
g3583
sg68
(lp3896
g61
(g82
g63
NtRp3897
(dp3898
g66
(dp3899
g86
g87
ssg75
g3893
sg68
(lp3900
S'flash'
p3901
asbag61
(g82
g63
NtRp3902
(dp3903
g66
(dp3904
g93
g94
ssg75
g3893
sg68
(lp3905
S':'
asbag61
(g82
g63
NtRp3906
(dp3907
g66
(dp3908
sg75
g3893
sg68
(lp3909
g61
(g62
g63
NtRp3910
(dp3911
g66
(dp3912
g74
I5
ssg75
g3906
sg68
(lp3913
S''
asbasbasbag61
(g77
g63
NtRp3914
(dp3915
g66
(dp3916
sg75
g3583
sg68
(lp3917
g61
(g82
g63
NtRp3918
(dp3919
g66
(dp3920
g86
g87
ssg75
g3914
sg68
(lp3921
S'generic_patterns'
p3922
asbag61
(g82
g63
NtRp3923
(dp3924
g66
(dp3925
g93
g94
ssg75
g3914
sg68
(lp3926
S':'
asbag61
(g82
g63
NtRp3927
(dp3928
g66
(dp3929
sg75
g3914
sg68
(lp3930
g61
(g62
g63
NtRp3931
(dp3932
g66
(dp3933
g74
I5
ssg75
g3927
sg68
(lp3934
g61
(g70
g63
NtRp3935
(dp3936
g66
(dp3937
g74
I4
ssg75
Nsg68
(lp3938
g61
(g77
g63
NtRp3939
(dp3940
g66
(dp3941
sg75
g3935
sg68
(lp3942
g61
(g82
g63
NtRp3943
(dp3944
g66
(dp3945
sg75
g3939
sg68
(lp3946
g61
(g62
g63
NtRp3947
(dp3948
g66
(dp3949
g74
I4
ssg75
g3943
sg68
(lp3950
S'*'
asbasbasbasbasbasbasbag61
(g77
g63
NtRp3951
(dp3952
g66
(dp3953
sg75
g3583
sg68
(lp3954
g61
(g82
g63
NtRp3955
(dp3956
g66
(dp3957
g86
g87
ssg75
g3951
sg68
(lp3958
S'headers'
p3959
asbag61
(g82
g63
NtRp3960
(dp3961
g66
(dp3962
g93
g94
ssg75
g3951
sg68
(lp3963
S':'
asbag61
(g82
g63
NtRp3964
(dp3965
g66
(dp3966
sg75
g3951
sg68
(lp3967
g61
(g62
g63
NtRp3968
(dp3969
g66
(dp3970
g74
I5
ssg75
g3964
sg68
(lp3971
g61
(g70
g63
NtRp3972
(dp3973
g66
(dp3974
g74
I4
ssg75
Nsg68
(lp3975
g61
(g77
g63
NtRp3976
(dp3977
g66
(dp3978
sg75
g3972
sg68
(lp3979
g61
(g82
g63
NtRp3980
(dp3981
g66
(dp3982
g86
g87
ssg75
g3976
sg68
(lp3983
S'X-Powered-By'
p3984
asbag61
(g82
g63
NtRp3985
(dp3986
g66
(dp3987
g93
g94
ssg75
g3976
sg68
(lp3988
S':'
asbag61
(g82
g63
NtRp3989
(dp3990
g66
(dp3991
sg75
g3976
sg68
(lp3992
g61
(g62
g63
NtRp3993
(dp3994
g66
(dp3995
g74
I4
ssg75
g3989
sg68
(lp3996
S'web2py'
p3997
asbasbasbasbasbasbasbag61
(g77
g63
NtRp3998
(dp3999
g66
(dp4000
sg75
g3583
sg68
(lp4001
g61
(g82
g63
NtRp4002
(dp4003
g66
(dp4004
g86
g87
ssg75
g3998
sg68
(lp4005
S'menu'
p4006
asbag61
(g82
g63
NtRp4007
(dp4008
g66
(dp4009
g93
g94
ssg75
g3998
sg68
(lp4010
S':'
asbag61
(g82
g63
NtRp4011
(dp4012
g66
(dp4013
sg75
g3998
sg68
(lp4014
g61
(g62
g63
NtRp4015
(dp4016
g66
(dp4017
g74
I5
ssg75
g4011
sg68
(lp4018
g61
(g70
g63
NtRp4019
(dp4020
g66
(dp4021
g74
I4
ssg75
Nsg68
(lp4022
sbasbasbasbag61
(g77
g63
NtRp4023
(dp4024
g66
(dp4025
sg75
g3583
sg68
(lp4026
g61
(g82
g63
NtRp4027
(dp4028
g66
(dp4029
g86
g87
ssg75
g4023
sg68
(lp4030
S'meta'
p4031
asbag61
(g82
g63
NtRp4032
(dp4033
g66
(dp4034
g93
g94
ssg75
g4023
sg68
(lp4035
S':'
asbag61
(g82
g63
NtRp4036
(dp4037
g66
(dp4038
sg75
g4023
sg68
(lp4039
g61
(g62
g63
NtRp4040
(dp4041
g66
(dp4042
g74
I5
ssg75
g4036
sg68
(lp4043
g61
(g70
g63
NtRp4044
(dp4045
g66
(dp4046
g74
I4
ssg75
Nsg68
(lp4047
g61
(g77
g63
NtRp4048
(dp4049
g66
(dp4050
sg75
g4044
sg68
(lp4051
g61
(g82
g63
NtRp4052
(dp4053
g66
(dp4054
g86
g87
ssg75
g4048
sg68
(lp4055
S'author'
p4056
asbag61
(g82
g63
NtRp4057
(dp4058
g66
(dp4059
g93
g94
ssg75
g4048
sg68
(lp4060
S':'
asbag61
(g82
g63
NtRp4061
(dp4062
g66
(dp4063
sg75
g4048
sg68
(lp4064
g61
(g62
g63
NtRp4065
(dp4066
g66
(dp4067
g74
I4
ssg75
g4061
sg68
(lp4068
S'Diego Miranda'
p4069
asbasbasbag61
(g77
g63
NtRp4070
(dp4071
g66
(dp4072
sg75
g4044
sg68
(lp4073
g61
(g82
g63
NtRp4074
(dp4075
g66
(dp4076
g86
g87
ssg75
g4070
sg68
(lp4077
S'copyright'
p4078
asbag61
(g82
g63
NtRp4079
(dp4080
g66
(dp4081
g93
g94
ssg75
g4070
sg68
(lp4082
S':'
asbag61
(g82
g63
NtRp4083
(dp4084
g66
(dp4085
sg75
g4070
sg68
(lp4086
g61
(g62
g63
NtRp4087
(dp4088
g66
(dp4089
g74
I4
ssg75
g4083
sg68
(lp4090
S'Copyright 2012'
p4091
asbasbasbag61
(g77
g63
NtRp4092
(dp4093
g66
(dp4094
sg75
g4044
sg68
(lp4095
g61
(g82
g63
NtRp4096
(dp4097
g66
(dp4098
g86
g87
ssg75
g4092
sg68
(lp4099
S'description'
p4100
asbag61
(g82
g63
NtRp4101
(dp4102
g66
(dp4103
g93
g94
ssg75
g4092
sg68
(lp4104
S':'
asbag61
(g82
g63
NtRp4105
(dp4106
g66
(dp4107
sg75
g4092
sg68
(lp4108
g61
(g62
g63
NtRp4109
(dp4110
g66
(dp4111
g74
I4
ssg75
g4105
sg68
(lp4112
S'Rafael App'
p4113
asbasbasbag61
(g77
g63
NtRp4114
(dp4115
g66
(dp4116
sg75
g4044
sg68
(lp4117
g61
(g82
g63
NtRp4118
(dp4119
g66
(dp4120
g86
g87
ssg75
g4114
sg68
(lp4121
S'generator'
p4122
asbag61
(g82
g63
NtRp4123
(dp4124
g66
(dp4125
g93
g94
ssg75
g4114
sg68
(lp4126
S':'
asbag61
(g82
g63
NtRp4127
(dp4128
g66
(dp4129
sg75
g4114
sg68
(lp4130
g61
(g62
g63
NtRp4131
(dp4132
g66
(dp4133
g74
I4
ssg75
g4127
sg68
(lp4134
S'web2py web framework'
p4135
asbasbasbag61
(g77
g63
NtRp4136
(dp4137
g66
(dp4138
sg75
g4044
sg68
(lp4139
g61
(g82
g63
NtRp4140
(dp4141
g66
(dp4142
g86
g87
ssg75
g4136
sg68
(lp4143
S'keywords'
p4144
asbag61
(g82
g63
NtRp4145
(dp4146
g66
(dp4147
g93
g94
ssg75
g4136
sg68
(lp4148
S':'
asbag61
(g82
g63
NtRp4149
(dp4150
g66
(dp4151
sg75
g4136
sg68
(lp4152
g61
(g62
g63
NtRp4153
(dp4154
g66
(dp4155
g74
I4
ssg75
g4149
sg68
(lp4156
S'web2py, python framework'
p4157
asbasbasbasbasbasbasbag61
(g77
g63
NtRp4158
(dp4159
g66
(dp4160
sg75
g3583
sg68
(lp4161
g61
(g82
g63
NtRp4162
(dp4163
g66
(dp4164
g86
g87
ssg75
g4158
sg68
(lp4165
S'models_to_run'
p4166
asbag61
(g82
g63
NtRp4167
(dp4168
g66
(dp4169
g93
g94
ssg75
g4158
sg68
(lp4170
S':'
asbag61
(g82
g63
NtRp4171
(dp4172
g66
(dp4173
sg75
g4158
sg68
(lp4174
g61
(g62
g63
NtRp4175
(dp4176
g66
(dp4177
g74
I5
ssg75
g4171
sg68
(lp4178
g61
(g70
g63
NtRp4179
(dp4180
g66
(dp4181
g74
I4
ssg75
Nsg68
(lp4182
g61
(g77
g63
NtRp4183
(dp4184
g66
(dp4185
sg75
g4179
sg68
(lp4186
g61
(g82
g63
NtRp4187
(dp4188
g66
(dp4189
sg75
g4183
sg68
(lp4190
g61
(g62
g63
NtRp4191
(dp4192
g66
(dp4193
g74
I4
ssg75
g4187
sg68
(lp4194
S'^\\w+\\.py$'
p4195
asbasbasbag61
(g77
g63
NtRp4196
(dp4197
g66
(dp4198
sg75
g4179
sg68
(lp4199
g61
(g82
g63
NtRp4200
(dp4201
g66
(dp4202
sg75
g4196
sg68
(lp4203
g61
(g62
g63
NtRp4204
(dp4205
g66
(dp4206
g74
I4
ssg75
g4200
sg68
(lp4207
S'^contact/\\w+\\.py$'
p4208
asbasbasbag61
(g77
g63
NtRp4209
(dp4210
g66
(dp4211
sg75
g4179
sg68
(lp4212
g61
(g82
g63
NtRp4213
(dp4214
g66
(dp4215
sg75
g4209
sg68
(lp4216
g61
(g62
g63
NtRp4217
(dp4218
g66
(dp4219
g74
I4
ssg75
g4213
sg68
(lp4220
S'^contact/contact/\\w+\\.py$'
p4221
asbasbasbasbasbasbasbag61
(g77
g63
NtRp4222
(dp4223
g66
(dp4224
sg75
g3583
sg68
(lp4225
g61
(g82
g63
NtRp4226
(dp4227
g66
(dp4228
g86
g87
ssg75
g4222
sg68
(lp4229
S'postprocessing'
p4230
asbag61
(g82
g63
NtRp4231
(dp4232
g66
(dp4233
g93
g94
ssg75
g4222
sg68
(lp4234
S':'
asbag61
(g82
g63
NtRp4235
(dp4236
g66
(dp4237
sg75
g4222
sg68
(lp4238
g61
(g62
g63
NtRp4239
(dp4240
g66
(dp4241
g74
I5
ssg75
g4235
sg68
(lp4242
g61
(g70
g63
NtRp4243
(dp4244
g66
(dp4245
g74
I4
ssg75
Nsg68
(lp4246
sbasbasbasbag61
(g77
g63
NtRp4247
(dp4248
g66
(dp4249
sg75
g3583
sg68
(lp4250
g61
(g82
g63
NtRp4251
(dp4252
g66
(dp4253
g86
g87
ssg75
g4247
sg68
(lp4254
S'session_cookie_expires'
p4255
asbag61
(g82
g63
NtRp4256
(dp4257
g66
(dp4258
g93
g94
ssg75
g4247
sg68
(lp4259
S':'
asbag61
(g82
g63
NtRp4260
(dp4261
g66
(dp4262
sg75
g4247
sg68
(lp4263
g61
(g62
g63
NtRp4264
(dp4265
g66
(dp4266
g74
I5
ssg75
g4260
sg68
(lp4267
S'None'
p4268
asbasbasbag61
(g77
g63
NtRp4269
(dp4270
g66
(dp4271
sg75
g3583
sg68
(lp4272
g61
(g82
g63
NtRp4273
(dp4274
g66
(dp4275
g86
g87
ssg75
g4269
sg68
(lp4276
S'session_data_name'
p4277
asbag61
(g82
g63
NtRp4278
(dp4279
g66
(dp4280
g93
g94
ssg75
g4269
sg68
(lp4281
S':'
asbag61
(g82
g63
NtRp4282
(dp4283
g66
(dp4284
sg75
g4269
sg68
(lp4285
g61
(g62
g63
NtRp4286
(dp4287
g66
(dp4288
g74
I5
ssg75
g4282
sg68
(lp4289
S'session_data_rsoutelino'
p4290
asbasbasbag61
(g77
g63
NtRp4291
(dp4292
g66
(dp4293
sg75
g3583
sg68
(lp4294
g61
(g82
g63
NtRp4295
(dp4296
g66
(dp4297
g86
g87
ssg75
g4291
sg68
(lp4298
S'session_file'
p4299
asbag61
(g82
g63
NtRp4300
(dp4301
g66
(dp4302
g93
g94
ssg75
g4291
sg68
(lp4303
S':'
asbag61
(g82
g63
NtRp4304
(dp4305
g66
(dp4306
sg75
g4291
sg68
(lp4307
g61
(g62
g63
NtRp4308
(dp4309
g66
(dp4310
g74
I5
ssg75
g4304
sg68
(lp4311
S"<open file '/home/rsoutelino/web2py/applications/rsoutelino/sessions/172.30.6.206-16871bca-409f-481d-bcdc-3705bd27bb78', mode 'rb+' at 0x2c5f0c0>"
p4312
asbasbasbag61
(g77
g63
NtRp4313
(dp4314
g66
(dp4315
sg75
g3583
sg68
(lp4316
g61
(g82
g63
NtRp4317
(dp4318
g66
(dp4319
g86
g87
ssg75
g4313
sg68
(lp4320
S'session_filename'
p4321
asbag61
(g82
g63
NtRp4322
(dp4323
g66
(dp4324
g93
g94
ssg75
g4313
sg68
(lp4325
S':'
asbag61
(g82
g63
NtRp4326
(dp4327
g66
(dp4328
sg75
g4313
sg68
(lp4329
g61
(g62
g63
NtRp4330
(dp4331
g66
(dp4332
g74
I5
ssg75
g4326
sg68
(lp4333
S'/home/rsoutelino/web2py/applications/rsoutelino/sessions/172.30.6.206-16871bca-409f-481d-bcdc-3705bd27bb78'
p4334
asbasbasbag61
(g77
g63
NtRp4335
(dp4336
g66
(dp4337
sg75
g3583
sg68
(lp4338
g61
(g82
g63
NtRp4339
(dp4340
g66
(dp4341
g86
g87
ssg75
g4335
sg68
(lp4342
S'session_id'
p4343
asbag61
(g82
g63
NtRp4344
(dp4345
g66
(dp4346
g93
g94
ssg75
g4335
sg68
(lp4347
S':'
asbag61
(g82
g63
NtRp4348
(dp4349
g66
(dp4350
sg75
g4335
sg68
(lp4351
g61
(g62
g63
NtRp4352
(dp4353
g66
(dp4354
g74
I5
ssg75
g4348
sg68
(lp4355
g285
asbasbasbag61
(g77
g63
NtRp4356
(dp4357
g66
(dp4358
sg75
g3583
sg68
(lp4359
g61
(g82
g63
NtRp4360
(dp4361
g66
(dp4362
g86
g87
ssg75
g4356
sg68
(lp4363
S'session_id_name'
p4364
asbag61
(g82
g63
NtRp4365
(dp4366
g66
(dp4367
g93
g94
ssg75
g4356
sg68
(lp4368
S':'
asbag61
(g82
g63
NtRp4369
(dp4370
g66
(dp4371
sg75
g4356
sg68
(lp4372
g61
(g62
g63
NtRp4373
(dp4374
g66
(dp4375
g74
I5
ssg75
g4369
sg68
(lp4376
g3640
asbasbasbag61
(g77
g63
NtRp4377
(dp4378
g66
(dp4379
sg75
g3583
sg68
(lp4380
g61
(g82
g63
NtRp4381
(dp4382
g66
(dp4383
g86
g87
ssg75
g4377
sg68
(lp4384
S'session_locked'
p4385
asbag61
(g82
g63
NtRp4386
(dp4387
g66
(dp4388
g93
g94
ssg75
g4377
sg68
(lp4389
S':'
asbag61
(g82
g63
NtRp4390
(dp4391
g66
(dp4392
sg75
g4377
sg68
(lp4393
g61
(g62
g63
NtRp4394
(dp4395
g66
(dp4396
g74
I5
ssg75
g4390
sg68
(lp4397
S'True'
p4398
asbasbasbag61
(g77
g63
NtRp4399
(dp4400
g66
(dp4401
sg75
g3583
sg68
(lp4402
g61
(g82
g63
NtRp4403
(dp4404
g66
(dp4405
g86
g87
ssg75
g4399
sg68
(lp4406
S'session_new'
p4407
asbag61
(g82
g63
NtRp4408
(dp4409
g66
(dp4410
g93
g94
ssg75
g4399
sg68
(lp4411
S':'
asbag61
(g82
g63
NtRp4412
(dp4413
g66
(dp4414
sg75
g4399
sg68
(lp4415
g61
(g62
g63
NtRp4416
(dp4417
g66
(dp4418
g74
I5
ssg75
g4412
sg68
(lp4419
g104
asbasbasbag61
(g77
g63
NtRp4420
(dp4421
g66
(dp4422
sg75
g3583
sg68
(lp4423
g61
(g82
g63
NtRp4424
(dp4425
g66
(dp4426
g86
g87
ssg75
g4420
sg68
(lp4427
S'session_storage_type'
p4428
asbag61
(g82
g63
NtRp4429
(dp4430
g66
(dp4431
g93
g94
ssg75
g4420
sg68
(lp4432
S':'
asbag61
(g82
g63
NtRp4433
(dp4434
g66
(dp4435
sg75
g4420
sg68
(lp4436
g61
(g62
g63
NtRp4437
(dp4438
g66
(dp4439
g74
I5
ssg75
g4433
sg68
(lp4440
g3372
asbasbasbag61
(g77
g63
NtRp4441
(dp4442
g66
(dp4443
sg75
g3583
sg68
(lp4444
g61
(g82
g63
NtRp4445
(dp4446
g66
(dp4447
g86
g87
ssg75
g4441
sg68
(lp4448
S'status'
p4449
asbag61
(g82
g63
NtRp4450
(dp4451
g66
(dp4452
g93
g94
ssg75
g4441
sg68
(lp4453
S':'
asbag61
(g82
g63
NtRp4454
(dp4455
g66
(dp4456
sg75
g4441
sg68
(lp4457
g61
(g62
g63
NtRp4458
(dp4459
g66
(dp4460
g74
I5
ssg75
g4454
sg68
(lp4461
S'200'
p4462
asbasbasbag61
(g77
g63
NtRp4463
(dp4464
g66
(dp4465
sg75
g3583
sg68
(lp4466
g61
(g82
g63
NtRp4467
(dp4468
g66
(dp4469
g86
g87
ssg75
g4463
sg68
(lp4470
S'subtitle'
p4471
asbag61
(g82
g63
NtRp4472
(dp4473
g66
(dp4474
g93
g94
ssg75
g4463
sg68
(lp4475
S':'
asbag61
(g82
g63
NtRp4476
(dp4477
g66
(dp4478
sg75
g4463
sg68
(lp4479
g61
(g62
g63
NtRp4480
(dp4481
g66
(dp4482
g74
I5
ssg75
g4476
sg68
(lp4483
cgluon.languages
lazyT_unpickle
p4484
(S's\x10\x00\x00\x00Rafael Soutelino'
tRp4485
asbasbasbag61
(g77
g63
NtRp4486
(dp4487
g66
(dp4488
sg75
g3583
sg68
(lp4489
g61
(g82
g63
NtRp4490
(dp4491
g66
(dp4492
g86
g87
ssg75
g4486
sg68
(lp4493
S'title'
p4494
asbag61
(g82
g63
NtRp4495
(dp4496
g66
(dp4497
g93
g94
ssg75
g4486
sg68
(lp4498
S':'
asbag61
(g82
g63
NtRp4499
(dp4500
g66
(dp4501
sg75
g4486
sg68
(lp4502
g61
(g62
g63
NtRp4503
(dp4504
g66
(dp4505
g74
I5
ssg75
g4499
sg68
(lp4506
S'Rafael Soutelino: Academic Website'
p4507
asbasbasbag61
(g77
g63
NtRp4508
(dp4509
g66
(dp4510
sg75
g3583
sg68
(lp4511
g61
(g82
g63
NtRp4512
(dp4513
g66
(dp4514
g86
g87
ssg75
g4508
sg68
(lp4515
S'view'
p4516
asbag61
(g82
g63
NtRp4517
(dp4518
g66
(dp4519
g93
g94
ssg75
g4508
sg68
(lp4520
S':'
asbag61
(g82
g63
NtRp4521
(dp4522
g66
(dp4523
sg75
g4508
sg68
(lp4524
g61
(g62
g63
NtRp4525
(dp4526
g66
(dp4527
g74
I5
ssg75
g4521
sg68
(lp4528
S'contact/contact.html'
p4529
asbasbasbasbasbsS'locals'
p4530
(dp4531
S'query'
p4532
S'"INSERT INTO contacts(commentary,email,tel,name,a...te.s@teste.com\',\'1234567\',\'teste teste\',\'teste\');"'
p4533
sS'self'
p4534
S'<gluon.dal.SQLiteAdapter object>'
p4535
sS'e'
S"IntegrityError('column name is not unique',)"
p4536
sS'fields'
p4537
S"[(<gluon.dal.Field object>, 'testetsetsets'), (<gluon.dal.Field object>, 'teste.s@teste.com'), (<gluon.dal.Field object>, '1234567'), (<gluon.dal.Field object>, 'teste teste'), (<gluon.dal.Field object>, 'teste')]"
p4538
sS'table'
p4539
S'<Table contacts (id,name,email,tel,adress,commentary)>'
p4540
sssS'traceback'
p4541
S'Traceback (most recent call last):\n  File "/home/rsoutelino/web2py/gluon/restricted.py", line 212, in restricted\n    exec ccode in environment\n  File "/home/rsoutelino/web2py/applications/rsoutelino/controllers/contact.py", line 30, in <module>\n  File "/home/rsoutelino/web2py/gluon/globals.py", line 188, in <lambda>\n    self._caller = lambda f: f()\n  File "/home/rsoutelino/web2py/applications/rsoutelino/controllers/contact.py", line 6, in contact\n    if form.process().accepted:\n  File "/home/rsoutelino/web2py/gluon/html.py", line 2170, in process\n    self.validate(**kwargs)\n  File "/home/rsoutelino/web2py/gluon/html.py", line 2109, in validate\n    if self.accepts(**kwargs):\n  File "/home/rsoutelino/web2py/gluon/sqlhtml.py", line 1475, in accepts\n    self.vars.id = self.table.insert(**fields)\n  File "/home/rsoutelino/web2py/gluon/dal.py", line 7806, in insert\n    ret =  self._db._adapter.insert(self,self._listify(fields))\n  File "/home/rsoutelino/web2py/gluon/dal.py", line 1161, in insert\n    raise e\nIntegrityError: column name is not unique\n'
p4542
s.