(dp1
S'output'
p2
S"<type 'exceptions.IndentationError'> unexpected indent (contact.py, line 4)"
p3
sS'layer'
p4
S'/home/rsoutelino/web2py/applications/rsoutelino/controllers/contact.py'
p5
sS'code'
p6
S'\ndef contact():\n    form = SQLFORM(db.contacts)\n\tif form.process(request.args(0)).accepted:\n        message = "%s %s %s" %(forms.vars.name, forms.vars.email, forms.vars.commentary)\n        mail.send(to="rsoutelino@gmail.com", subject="You received a message through rsoutelino.com", reply_to=form.vars.email, message=message)\n        response.flash="success"\n    else:\n        response.flash="try again"\n\treturn dict(form=form)\nresponse._vars=response._caller(contact)\n'
p7
sS'snapshot'
p8
(dp9
S'exception'
p10
(dp11
S'__getslice__'
p12
S"<method-wrapper '__getslice__' of exceptions.IndentationError object>"
p13
sS'text'
p14
S"'\\tif form.process(request.args(0)).accepted:\\n'"
p15
sS'__str__'
p16
S"<method-wrapper '__str__' of exceptions.IndentationError object>"
p17
sS'__reduce__'
p18
S'<built-in method __reduce__ of exceptions.IndentationError object>'
p19
sS'__dict__'
p20
S'{}'
p21
sS'__sizeof__'
p22
S'<built-in method __sizeof__ of exceptions.IndentationError object>'
p23
sS'__init__'
p24
S"<method-wrapper '__init__' of exceptions.IndentationError object>"
p25
sS'__setattr__'
p26
S"<method-wrapper '__setattr__' of exceptions.IndentationError object>"
p27
sS'__reduce_ex__'
p28
S'<built-in method __reduce_ex__ of exceptions.IndentationError object>'
p29
sS'__new__'
p30
S'<built-in method __new__ of type object>'
p31
sS'__format__'
p32
S'<built-in method __format__ of exceptions.IndentationError object>'
p33
sS'__class__'
p34
S"<type 'exceptions.IndentationError'>"
p35
sS'filename'
p36
S"'/home/rsoutelino/web2py/applications/rsoutelino/controllers/contact.py'"
p37
sS'lineno'
p38
S'4'
sS'msg'
p39
S"'unexpected indent'"
p40
sS'__doc__'
p41
S"'Improper indentation.'"
p42
sS'__getitem__'
p43
S"<method-wrapper '__getitem__' of exceptions.IndentationError object>"
p44
sS'__setstate__'
p45
S'<built-in method __setstate__ of exceptions.IndentationError object>'
p46
sS'__getattribute__'
p47
S"<method-wrapper '__getattribute__' of exceptions.IndentationError object>"
p48
sS'print_file_and_line'
p49
S'None'
p50
sS'args'
p51
S"('unexpected indent', ('/home/rsoutelino/web2py/applications/rsoutelino/controllers/contact.py', 4, 1, '\\tif form.process(request.args(0)).accepted:\\n'))"
p52
sS'__subclasshook__'
p53
S'<built-in method __subclasshook__ of type object>'
p54
sS'offset'
p55
S'1'
sS'__unicode__'
p56
S'<built-in method __unicode__ of exceptions.IndentationError object>'
p57
sS'__delattr__'
p58
S"<method-wrapper '__delattr__' of exceptions.IndentationError object>"
p59
sS'__repr__'
p60
S"<method-wrapper '__repr__' of exceptions.IndentationError object>"
p61
sS'__hash__'
p62
S"<method-wrapper '__hash__' of exceptions.IndentationError object>"
p63
ssS'evalue'
p64
S'unexpected indent (contact.py, line 4)'
p65
sS'request'
p66
ccopy_reg
_reconstructor
p67
(cgluon.html
BEAUTIFY
p68
c__builtin__
object
p69
NtRp70
(dp71
S'attributes'
p72
(dp73
sS'components'
p74
(lp75
g67
(cgluon.html
TABLE
p76
g69
NtRp77
(dp78
g72
(dp79
S'level'
p80
I5
ssS'parent'
p81
Nsg74
(lp82
g67
(cgluon.html
TR
p83
g69
NtRp84
(dp85
g72
(dp86
sg81
g77
sg74
(lp87
g67
(cgluon.html
TD
p88
g69
NtRp89
(dp90
g72
(dp91
S'_style'
p92
S'font-weight:bold;vertical-align:top'
p93
ssg81
g84
sg74
(lp94
S'ajax'
p95
asbag67
(g88
g69
NtRp96
(dp97
g72
(dp98
S'_valign'
p99
S'top'
p100
ssg81
g84
sg74
(lp101
S':'
asbag67
(g88
g69
NtRp102
(dp103
g72
(dp104
sg81
g84
sg74
(lp105
g67
(g68
g69
NtRp106
(dp107
g72
(dp108
g80
I5
ssg81
g102
sg74
(lp109
S'False'
p110
asbasbasbag67
(g83
g69
NtRp111
(dp112
g72
(dp113
sg81
g77
sg74
(lp114
g67
(g88
g69
NtRp115
(dp116
g72
(dp117
g92
g93
ssg81
g111
sg74
(lp118
S'application'
p119
asbag67
(g88
g69
NtRp120
(dp121
g72
(dp122
g99
g100
ssg81
g111
sg74
(lp123
S':'
asbag67
(g88
g69
NtRp124
(dp125
g72
(dp126
sg81
g111
sg74
(lp127
g67
(g68
g69
NtRp128
(dp129
g72
(dp130
g80
I5
ssg81
g124
sg74
(lp131
S'rsoutelino'
p132
asbasbasbag67
(g83
g69
NtRp133
(dp134
g72
(dp135
sg81
g77
sg74
(lp136
g67
(g88
g69
NtRp137
(dp138
g72
(dp139
g92
g93
ssg81
g133
sg74
(lp140
g51
asbag67
(g88
g69
NtRp141
(dp142
g72
(dp143
g99
g100
ssg81
g133
sg74
(lp144
S':'
asbag67
(g88
g69
NtRp145
(dp146
g72
(dp147
sg81
g133
sg74
(lp148
g67
(g68
g69
NtRp149
(dp150
g72
(dp151
g80
I5
ssg81
g145
sg74
(lp152
g67
(g76
g69
NtRp153
(dp154
g72
(dp155
g80
I4
ssg81
Nsg74
(lp156
sbasbasbasbag67
(g83
g69
NtRp157
(dp158
g72
(dp159
sg81
g77
sg74
(lp160
g67
(g88
g69
NtRp161
(dp162
g72
(dp163
g92
g93
ssg81
g157
sg74
(lp164
S'body'
p165
asbag67
(g88
g69
NtRp166
(dp167
g72
(dp168
g99
g100
ssg81
g157
sg74
(lp169
S':'
asbag67
(g88
g69
NtRp170
(dp171
g72
(dp172
sg81
g157
sg74
(lp173
g67
(g68
g69
NtRp174
(dp175
g72
(dp176
g80
I5
ssg81
g170
sg74
(lp177
S'<cStringIO.StringO object at 0x2cdc7a0>'
p178
asbasbasbag67
(g83
g69
NtRp179
(dp180
g72
(dp181
sg81
g77
sg74
(lp182
g67
(g88
g69
NtRp183
(dp184
g72
(dp185
g92
g93
ssg81
g179
sg74
(lp186
S'cid'
p187
asbag67
(g88
g69
NtRp188
(dp189
g72
(dp190
g99
g100
ssg81
g179
sg74
(lp191
S':'
asbag67
(g88
g69
NtRp192
(dp193
g72
(dp194
sg81
g179
sg74
(lp195
g67
(g68
g69
NtRp196
(dp197
g72
(dp198
g80
I5
ssg81
g192
sg74
(lp199
S'None'
p200
asbasbasbag67
(g83
g69
NtRp201
(dp202
g72
(dp203
sg81
g77
sg74
(lp204
g67
(g88
g69
NtRp205
(dp206
g72
(dp207
g92
g93
ssg81
g201
sg74
(lp208
S'client'
p209
asbag67
(g88
g69
NtRp210
(dp211
g72
(dp212
g99
g100
ssg81
g201
sg74
(lp213
S':'
asbag67
(g88
g69
NtRp214
(dp215
g72
(dp216
sg81
g201
sg74
(lp217
g67
(g68
g69
NtRp218
(dp219
g72
(dp220
g80
I5
ssg81
g214
sg74
(lp221
S'172.30.6.206'
p222
asbasbasbag67
(g83
g69
NtRp223
(dp224
g72
(dp225
sg81
g77
sg74
(lp226
g67
(g88
g69
NtRp227
(dp228
g72
(dp229
g92
g93
ssg81
g223
sg74
(lp230
S'controller'
p231
asbag67
(g88
g69
NtRp232
(dp233
g72
(dp234
g99
g100
ssg81
g223
sg74
(lp235
S':'
asbag67
(g88
g69
NtRp236
(dp237
g72
(dp238
sg81
g223
sg74
(lp239
g67
(g68
g69
NtRp240
(dp241
g72
(dp242
g80
I5
ssg81
g236
sg74
(lp243
S'contact'
p244
asbasbasbag67
(g83
g69
NtRp245
(dp246
g72
(dp247
sg81
g77
sg74
(lp248
g67
(g88
g69
NtRp249
(dp250
g72
(dp251
g92
g93
ssg81
g245
sg74
(lp252
S'cookies'
p253
asbag67
(g88
g69
NtRp254
(dp255
g72
(dp256
g99
g100
ssg81
g245
sg74
(lp257
S':'
asbag67
(g88
g69
NtRp258
(dp259
g72
(dp260
sg81
g245
sg74
(lp261
g67
(g68
g69
NtRp262
(dp263
g72
(dp264
g80
I5
ssg81
g258
sg74
(lp265
g67
(g76
g69
NtRp266
(dp267
g72
(dp268
g80
I4
ssg81
Nsg74
(lp269
g67
(g83
g69
NtRp270
(dp271
g72
(dp272
sg81
g266
sg74
(lp273
g67
(g88
g69
NtRp274
(dp275
g72
(dp276
g92
g93
ssg81
g270
sg74
(lp277
S'session_id_rsoutelino'
p278
asbag67
(g88
g69
NtRp279
(dp280
g72
(dp281
g99
g100
ssg81
g270
sg74
(lp282
S':'
asbag67
(g88
g69
NtRp283
(dp284
g72
(dp285
sg81
g270
sg74
(lp286
g67
(g68
g69
NtRp287
(dp288
g72
(dp289
g80
I4
ssg81
g283
sg74
(lp290
S'172.30.6.206-1fe7764a-faa1-4a14-8e00-c9403f8df8a3'
p291
ag67
(g76
g69
NtRp292
(dp293
g72
(dp294
g80
I3
ssg81
Nsg74
(lp295
g67
(g83
g69
NtRp296
(dp297
g72
(dp298
sg81
g292
sg74
(lp299
g67
(g88
g69
NtRp300
(dp301
g72
(dp302
g92
g93
ssg81
g296
sg74
(lp303
S'comment'
p304
asbag67
(g88
g69
NtRp305
(dp306
g72
(dp307
g99
g100
ssg81
g296
sg74
(lp308
S':'
asbag67
(g88
g69
NtRp309
(dp310
g72
(dp311
sg81
g296
sg74
(lp312
g67
(g68
g69
NtRp313
(dp314
g72
(dp315
g80
I3
ssg81
g309
sg74
(lp316
S''
asbasbasbag67
(g83
g69
NtRp317
(dp318
g72
(dp319
sg81
g292
sg74
(lp320
g67
(g88
g69
NtRp321
(dp322
g72
(dp323
g92
g93
ssg81
g317
sg74
(lp324
S'domain'
p325
asbag67
(g88
g69
NtRp326
(dp327
g72
(dp328
g99
g100
ssg81
g317
sg74
(lp329
S':'
asbag67
(g88
g69
NtRp330
(dp331
g72
(dp332
sg81
g317
sg74
(lp333
g67
(g68
g69
NtRp334
(dp335
g72
(dp336
g80
I3
ssg81
g330
sg74
(lp337
S''
asbasbasbag67
(g83
g69
NtRp338
(dp339
g72
(dp340
sg81
g292
sg74
(lp341
g67
(g88
g69
NtRp342
(dp343
g72
(dp344
g92
g93
ssg81
g338
sg74
(lp345
S'expires'
p346
asbag67
(g88
g69
NtRp347
(dp348
g72
(dp349
g99
g100
ssg81
g338
sg74
(lp350
S':'
asbag67
(g88
g69
NtRp351
(dp352
g72
(dp353
sg81
g338
sg74
(lp354
g67
(g68
g69
NtRp355
(dp356
g72
(dp357
g80
I3
ssg81
g351
sg74
(lp358
S''
asbasbasbag67
(g83
g69
NtRp359
(dp360
g72
(dp361
sg81
g292
sg74
(lp362
g67
(g88
g69
NtRp363
(dp364
g72
(dp365
g92
g93
ssg81
g359
sg74
(lp366
S'httponly'
p367
asbag67
(g88
g69
NtRp368
(dp369
g72
(dp370
g99
g100
ssg81
g359
sg74
(lp371
S':'
asbag67
(g88
g69
NtRp372
(dp373
g72
(dp374
sg81
g359
sg74
(lp375
g67
(g68
g69
NtRp376
(dp377
g72
(dp378
g80
I3
ssg81
g372
sg74
(lp379
S''
asbasbasbag67
(g83
g69
NtRp380
(dp381
g72
(dp382
sg81
g292
sg74
(lp383
g67
(g88
g69
NtRp384
(dp385
g72
(dp386
g92
g93
ssg81
g380
sg74
(lp387
S'max-age'
p388
asbag67
(g88
g69
NtRp389
(dp390
g72
(dp391
g99
g100
ssg81
g380
sg74
(lp392
S':'
asbag67
(g88
g69
NtRp393
(dp394
g72
(dp395
sg81
g380
sg74
(lp396
g67
(g68
g69
NtRp397
(dp398
g72
(dp399
g80
I3
ssg81
g393
sg74
(lp400
S''
asbasbasbag67
(g83
g69
NtRp401
(dp402
g72
(dp403
sg81
g292
sg74
(lp404
g67
(g88
g69
NtRp405
(dp406
g72
(dp407
g92
g93
ssg81
g401
sg74
(lp408
S'path'
p409
asbag67
(g88
g69
NtRp410
(dp411
g72
(dp412
g99
g100
ssg81
g401
sg74
(lp413
S':'
asbag67
(g88
g69
NtRp414
(dp415
g72
(dp416
sg81
g401
sg74
(lp417
g67
(g68
g69
NtRp418
(dp419
g72
(dp420
g80
I3
ssg81
g414
sg74
(lp421
S''
asbasbasbag67
(g83
g69
NtRp422
(dp423
g72
(dp424
sg81
g292
sg74
(lp425
g67
(g88
g69
NtRp426
(dp427
g72
(dp428
g92
g93
ssg81
g422
sg74
(lp429
S'secure'
p430
asbag67
(g88
g69
NtRp431
(dp432
g72
(dp433
g99
g100
ssg81
g422
sg74
(lp434
S':'
asbag67
(g88
g69
NtRp435
(dp436
g72
(dp437
sg81
g422
sg74
(lp438
g67
(g68
g69
NtRp439
(dp440
g72
(dp441
g80
I3
ssg81
g435
sg74
(lp442
S''
asbasbasbag67
(g83
g69
NtRp443
(dp444
g72
(dp445
sg81
g292
sg74
(lp446
g67
(g88
g69
NtRp447
(dp448
g72
(dp449
g92
g93
ssg81
g443
sg74
(lp450
S'version'
p451
asbag67
(g88
g69
NtRp452
(dp453
g72
(dp454
g99
g100
ssg81
g443
sg74
(lp455
S':'
asbag67
(g88
g69
NtRp456
(dp457
g72
(dp458
sg81
g443
sg74
(lp459
g67
(g68
g69
NtRp460
(dp461
g72
(dp462
g80
I3
ssg81
g456
sg74
(lp463
S''
asbasbasbasbasbasbasbasbasbasbasbag67
(g83
g69
NtRp464
(dp465
g72
(dp466
sg81
g77
sg74
(lp467
g67
(g88
g69
NtRp468
(dp469
g72
(dp470
g92
g93
ssg81
g464
sg74
(lp471
S'env'
p472
asbag67
(g88
g69
NtRp473
(dp474
g72
(dp475
g99
g100
ssg81
g464
sg74
(lp476
S':'
asbag67
(g88
g69
NtRp477
(dp478
g72
(dp479
sg81
g464
sg74
(lp480
g67
(g68
g69
NtRp481
(dp482
g72
(dp483
g80
I5
ssg81
g477
sg74
(lp484
g67
(g76
g69
NtRp485
(dp486
g72
(dp487
g80
I4
ssg81
Nsg74
(lp488
g67
(g83
g69
NtRp489
(dp490
g72
(dp491
sg81
g485
sg74
(lp492
g67
(g88
g69
NtRp493
(dp494
g72
(dp495
g92
g93
ssg81
g489
sg74
(lp496
S'app_folders'
p497
asbag67
(g88
g69
NtRp498
(dp499
g72
(dp500
g99
g100
ssg81
g489
sg74
(lp501
S':'
asbag67
(g88
g69
NtRp502
(dp503
g72
(dp504
sg81
g489
sg74
(lp505
g67
(g68
g69
NtRp506
(dp507
g72
(dp508
g80
I4
ssg81
g502
sg74
(lp509
S"set(['/home/rsoutelino/web2py/applications/rsoutelino/'])"
p510
asbasbasbag67
(g83
g69
NtRp511
(dp512
g72
(dp513
sg81
g485
sg74
(lp514
g67
(g88
g69
NtRp515
(dp516
g72
(dp517
g92
g93
ssg81
g511
sg74
(lp518
S'applications_parent'
p519
asbag67
(g88
g69
NtRp520
(dp521
g72
(dp522
g99
g100
ssg81
g511
sg74
(lp523
S':'
asbag67
(g88
g69
NtRp524
(dp525
g72
(dp526
sg81
g511
sg74
(lp527
g67
(g68
g69
NtRp528
(dp529
g72
(dp530
g80
I4
ssg81
g524
sg74
(lp531
S'/home/rsoutelino/web2py'
p532
asbasbasbag67
(g83
g69
NtRp533
(dp534
g72
(dp535
sg81
g485
sg74
(lp536
g67
(g88
g69
NtRp537
(dp538
g72
(dp539
g92
g93
ssg81
g533
sg74
(lp540
S'content_length'
p541
asbag67
(g88
g69
NtRp542
(dp543
g72
(dp544
g99
g100
ssg81
g533
sg74
(lp545
S':'
asbag67
(g88
g69
NtRp546
(dp547
g72
(dp548
sg81
g533
sg74
(lp549
g67
(g68
g69
NtRp550
(dp551
g72
(dp552
g80
I4
ssg81
g546
sg74
(lp553
S''
asbasbasbag67
(g83
g69
NtRp554
(dp555
g72
(dp556
sg81
g485
sg74
(lp557
g67
(g88
g69
NtRp558
(dp559
g72
(dp560
g92
g93
ssg81
g554
sg74
(lp561
S'content_type'
p562
asbag67
(g88
g69
NtRp563
(dp564
g72
(dp565
g99
g100
ssg81
g554
sg74
(lp566
S':'
asbag67
(g88
g69
NtRp567
(dp568
g72
(dp569
sg81
g554
sg74
(lp570
g67
(g68
g69
NtRp571
(dp572
g72
(dp573
g80
I4
ssg81
g567
sg74
(lp574
S''
asbasbasbag67
(g83
g69
NtRp575
(dp576
g72
(dp577
sg81
g485
sg74
(lp578
g67
(g88
g69
NtRp579
(dp580
g72
(dp581
g92
g93
ssg81
g575
sg74
(lp582
S'db_sessions'
p583
asbag67
(g88
g69
NtRp584
(dp585
g72
(dp586
g99
g100
ssg81
g575
sg74
(lp587
S':'
asbag67
(g88
g69
NtRp588
(dp589
g72
(dp590
sg81
g575
sg74
(lp591
g67
(g68
g69
NtRp592
(dp593
g72
(dp594
g80
I4
ssg81
g588
sg74
(lp595
S'set([])'
p596
asbasbasbag67
(g83
g69
NtRp597
(dp598
g72
(dp599
sg81
g485
sg74
(lp600
g67
(g88
g69
NtRp601
(dp602
g72
(dp603
g92
g93
ssg81
g597
sg74
(lp604
S'debugging'
p605
asbag67
(g88
g69
NtRp606
(dp607
g72
(dp608
g99
g100
ssg81
g597
sg74
(lp609
S':'
asbag67
(g88
g69
NtRp610
(dp611
g72
(dp612
sg81
g597
sg74
(lp613
g67
(g68
g69
NtRp614
(dp615
g72
(dp616
g80
I4
ssg81
g610
sg74
(lp617
g110
asbasbasbag67
(g83
g69
NtRp618
(dp619
g72
(dp620
sg81
g485
sg74
(lp621
g67
(g88
g69
NtRp622
(dp623
g72
(dp624
g92
g93
ssg81
g618
sg74
(lp625
S'document_root'
p626
asbag67
(g88
g69
NtRp627
(dp628
g72
(dp629
g99
g100
ssg81
g618
sg74
(lp630
S':'
asbag67
(g88
g69
NtRp631
(dp632
g72
(dp633
sg81
g618
sg74
(lp634
g67
(g68
g69
NtRp635
(dp636
g72
(dp637
g80
I4
ssg81
g631
sg74
(lp638
S'/var/log/nginx/user_logs'
p639
asbasbasbag67
(g83
g69
NtRp640
(dp641
g72
(dp642
sg81
g485
sg74
(lp643
g67
(g88
g69
NtRp644
(dp645
g72
(dp646
g92
g93
ssg81
g640
sg74
(lp647
S'gluon_parent'
p648
asbag67
(g88
g69
NtRp649
(dp650
g72
(dp651
g99
g100
ssg81
g640
sg74
(lp652
S':'
asbag67
(g88
g69
NtRp653
(dp654
g72
(dp655
sg81
g640
sg74
(lp656
g67
(g68
g69
NtRp657
(dp658
g72
(dp659
g80
I4
ssg81
g653
sg74
(lp660
g532
asbasbasbag67
(g83
g69
NtRp661
(dp662
g72
(dp663
sg81
g485
sg74
(lp664
g67
(g88
g69
NtRp665
(dp666
g72
(dp667
g92
g93
ssg81
g661
sg74
(lp668
S'http_accept'
p669
asbag67
(g88
g69
NtRp670
(dp671
g72
(dp672
g99
g100
ssg81
g661
sg74
(lp673
S':'
asbag67
(g88
g69
NtRp674
(dp675
g72
(dp676
sg81
g661
sg74
(lp677
g67
(g68
g69
NtRp678
(dp679
g72
(dp680
g80
I4
ssg81
g674
sg74
(lp681
S'text/html,application/xhtml+xml,application/xml;q=0.9,*/*;q=0.8'
p682
asbasbasbag67
(g83
g69
NtRp683
(dp684
g72
(dp685
sg81
g485
sg74
(lp686
g67
(g88
g69
NtRp687
(dp688
g72
(dp689
g92
g93
ssg81
g683
sg74
(lp690
S'http_accept_charset'
p691
asbag67
(g88
g69
NtRp692
(dp693
g72
(dp694
g99
g100
ssg81
g683
sg74
(lp695
S':'
asbag67
(g88
g69
NtRp696
(dp697
g72
(dp698
sg81
g683
sg74
(lp699
g67
(g68
g69
NtRp700
(dp701
g72
(dp702
g80
I4
ssg81
g696
sg74
(lp703
S'ISO-8859-1,utf-8;q=0.7,*;q=0.3'
p704
asbasbasbag67
(g83
g69
NtRp705
(dp706
g72
(dp707
sg81
g485
sg74
(lp708
g67
(g88
g69
NtRp709
(dp710
g72
(dp711
g92
g93
ssg81
g705
sg74
(lp712
S'http_accept_encoding'
p713
asbag67
(g88
g69
NtRp714
(dp715
g72
(dp716
g99
g100
ssg81
g705
sg74
(lp717
S':'
asbag67
(g88
g69
NtRp718
(dp719
g72
(dp720
sg81
g705
sg74
(lp721
g67
(g68
g69
NtRp722
(dp723
g72
(dp724
g80
I4
ssg81
g718
sg74
(lp725
S'gzip,deflate,sdch'
p726
asbasbasbag67
(g83
g69
NtRp727
(dp728
g72
(dp729
sg81
g485
sg74
(lp730
g67
(g88
g69
NtRp731
(dp732
g72
(dp733
g92
g93
ssg81
g727
sg74
(lp734
S'http_accept_language'
p735
asbag67
(g88
g69
NtRp736
(dp737
g72
(dp738
g99
g100
ssg81
g727
sg74
(lp739
S':'
asbag67
(g88
g69
NtRp740
(dp741
g72
(dp742
sg81
g727
sg74
(lp743
g67
(g68
g69
NtRp744
(dp745
g72
(dp746
g80
I4
ssg81
g740
sg74
(lp747
S'en-US,en;q=0.8'
p748
asbasbasbag67
(g83
g69
NtRp749
(dp750
g72
(dp751
sg81
g485
sg74
(lp752
g67
(g88
g69
NtRp753
(dp754
g72
(dp755
g92
g93
ssg81
g749
sg74
(lp756
S'http_connection'
p757
asbag67
(g88
g69
NtRp758
(dp759
g72
(dp760
g99
g100
ssg81
g749
sg74
(lp761
S':'
asbag67
(g88
g69
NtRp762
(dp763
g72
(dp764
sg81
g749
sg74
(lp765
g67
(g68
g69
NtRp766
(dp767
g72
(dp768
g80
I4
ssg81
g762
sg74
(lp769
S'Keep-Alive'
p770
asbasbasbag67
(g83
g69
NtRp771
(dp772
g72
(dp773
sg81
g485
sg74
(lp774
g67
(g88
g69
NtRp775
(dp776
g72
(dp777
g92
g93
ssg81
g771
sg74
(lp778
S'http_cookie'
p779
asbag67
(g88
g69
NtRp780
(dp781
g72
(dp782
g99
g100
ssg81
g771
sg74
(lp783
S':'
asbag67
(g88
g69
NtRp784
(dp785
g72
(dp786
sg81
g771
sg74
(lp787
g67
(g68
g69
NtRp788
(dp789
g72
(dp790
g80
I4
ssg81
g784
sg74
(lp791
S'session_id_rsoutelino=172.30.6.206-1fe7764a-faa1-4a14-8e00-c9403f8df8a3'
p792
asbasbasbag67
(g83
g69
NtRp793
(dp794
g72
(dp795
sg81
g485
sg74
(lp796
g67
(g88
g69
NtRp797
(dp798
g72
(dp799
g92
g93
ssg81
g793
sg74
(lp800
S'http_host'
p801
asbag67
(g88
g69
NtRp802
(dp803
g72
(dp804
g99
g100
ssg81
g793
sg74
(lp805
S':'
asbag67
(g88
g69
NtRp806
(dp807
g72
(dp808
sg81
g793
sg74
(lp809
g67
(g68
g69
NtRp810
(dp811
g72
(dp812
g80
I4
ssg81
g806
sg74
(lp813
S'www.rsoutelino.com'
p814
asbasbasbag67
(g83
g69
NtRp815
(dp816
g72
(dp817
sg81
g485
sg74
(lp818
g67
(g88
g69
NtRp819
(dp820
g72
(dp821
g92
g93
ssg81
g815
sg74
(lp822
S'http_referer'
p823
asbag67
(g88
g69
NtRp824
(dp825
g72
(dp826
g99
g100
ssg81
g815
sg74
(lp827
S':'
asbag67
(g88
g69
NtRp828
(dp829
g72
(dp830
sg81
g815
sg74
(lp831
g67
(g68
g69
NtRp832
(dp833
g72
(dp834
g80
I4
ssg81
g828
sg74
(lp835
S'http://www.rsoutelino.com/'
p836
asbasbasbag67
(g83
g69
NtRp837
(dp838
g72
(dp839
sg81
g485
sg74
(lp840
g67
(g88
g69
NtRp841
(dp842
g72
(dp843
g92
g93
ssg81
g837
sg74
(lp844
S'http_user_agent'
p845
asbag67
(g88
g69
NtRp846
(dp847
g72
(dp848
g99
g100
ssg81
g837
sg74
(lp849
S':'
asbag67
(g88
g69
NtRp850
(dp851
g72
(dp852
sg81
g837
sg74
(lp853
g67
(g68
g69
NtRp854
(dp855
g72
(dp856
g80
I4
ssg81
g850
sg74
(lp857
S'Mozilla/5.0 (X11; Linux x86_64) AppleWebKit/537.17 (KHTML, like Gecko) Chrome/24.0.1312.57 Safari/537.17'
p858
asbasbasbag67
(g83
g69
NtRp859
(dp860
g72
(dp861
sg81
g485
sg74
(lp862
g67
(g88
g69
NtRp863
(dp864
g72
(dp865
g92
g93
ssg81
g859
sg74
(lp866
S'http_via'
p867
asbag67
(g88
g69
NtRp868
(dp869
g72
(dp870
g99
g100
ssg81
g859
sg74
(lp871
S':'
asbag67
(g88
g69
NtRp872
(dp873
g72
(dp874
sg81
g859
sg74
(lp875
g67
(g68
g69
NtRp876
(dp877
g72
(dp878
g80
I4
ssg81
g872
sg74
(lp879
S'1.1 10.6.32.12 (McAfee Web Gateway 7.2.0.4.0.14188)'
p880
asbasbasbag67
(g83
g69
NtRp881
(dp882
g72
(dp883
sg81
g485
sg74
(lp884
g67
(g88
g69
NtRp885
(dp886
g72
(dp887
g92
g93
ssg81
g881
sg74
(lp888
S'http_x_forwarded_for'
p889
asbag67
(g88
g69
NtRp890
(dp891
g72
(dp892
g99
g100
ssg81
g881
sg74
(lp893
S':'
asbag67
(g88
g69
NtRp894
(dp895
g72
(dp896
sg81
g881
sg74
(lp897
g67
(g68
g69
NtRp898
(dp899
g72
(dp900
g80
I4
ssg81
g894
sg74
(lp901
g222
asbasbasbag67
(g83
g69
NtRp902
(dp903
g72
(dp904
sg81
g485
sg74
(lp905
g67
(g88
g69
NtRp906
(dp907
g72
(dp908
g92
g93
ssg81
g902
sg74
(lp909
S'is_jython'
p910
asbag67
(g88
g69
NtRp911
(dp912
g72
(dp913
g99
g100
ssg81
g902
sg74
(lp914
S':'
asbag67
(g88
g69
NtRp915
(dp916
g72
(dp917
sg81
g902
sg74
(lp918
g67
(g68
g69
NtRp919
(dp920
g72
(dp921
g80
I4
ssg81
g915
sg74
(lp922
g110
asbasbasbag67
(g83
g69
NtRp923
(dp924
g72
(dp925
sg81
g485
sg74
(lp926
g67
(g88
g69
NtRp927
(dp928
g72
(dp929
g92
g93
ssg81
g923
sg74
(lp930
S'is_pypy'
p931
asbag67
(g88
g69
NtRp932
(dp933
g72
(dp934
g99
g100
ssg81
g923
sg74
(lp935
S':'
asbag67
(g88
g69
NtRp936
(dp937
g72
(dp938
sg81
g923
sg74
(lp939
g67
(g68
g69
NtRp940
(dp941
g72
(dp942
g80
I4
ssg81
g936
sg74
(lp943
g110
asbasbasbag67
(g83
g69
NtRp944
(dp945
g72
(dp946
sg81
g485
sg74
(lp947
g67
(g88
g69
NtRp948
(dp949
g72
(dp950
g92
g93
ssg81
g944
sg74
(lp951
S'local_hosts'
p952
asbag67
(g88
g69
NtRp953
(dp954
g72
(dp955
g99
g100
ssg81
g944
sg74
(lp956
S':'
asbag67
(g88
g69
NtRp957
(dp958
g72
(dp959
sg81
g944
sg74
(lp960
g67
(g68
g69
NtRp961
(dp962
g72
(dp963
g80
I4
ssg81
g957
sg74
(lp964
g67
(g76
g69
NtRp965
(dp966
g72
(dp967
g80
I3
ssg81
Nsg74
(lp968
g67
(g83
g69
NtRp969
(dp970
g72
(dp971
sg81
g965
sg74
(lp972
g67
(g88
g69
NtRp973
(dp974
g72
(dp975
sg81
g969
sg74
(lp976
g67
(g68
g69
NtRp977
(dp978
g72
(dp979
g80
I3
ssg81
g973
sg74
(lp980
S'127.0.0.1'
p981
asbasbasbag67
(g83
g69
NtRp982
(dp983
g72
(dp984
sg81
g965
sg74
(lp985
g67
(g88
g69
NtRp986
(dp987
g72
(dp988
sg81
g982
sg74
(lp989
g67
(g68
g69
NtRp990
(dp991
g72
(dp992
g80
I3
ssg81
g986
sg74
(lp993
S'::ffff:127.0.0.1'
p994
asbasbasbag67
(g83
g69
NtRp995
(dp996
g72
(dp997
sg81
g965
sg74
(lp998
g67
(g88
g69
NtRp999
(dp1000
g72
(dp1001
sg81
g995
sg74
(lp1002
g67
(g68
g69
NtRp1003
(dp1004
g72
(dp1005
g80
I3
ssg81
g999
sg74
(lp1006
S'hansel-liveweb'
p1007
asbasbasbasbasbasbasbag67
(g83
g69
NtRp1008
(dp1009
g72
(dp1010
sg81
g485
sg74
(lp1011
g67
(g88
g69
NtRp1012
(dp1013
g72
(dp1014
g92
g93
ssg81
g1008
sg74
(lp1015
S'path_info'
p1016
asbag67
(g88
g69
NtRp1017
(dp1018
g72
(dp1019
g99
g100
ssg81
g1008
sg74
(lp1020
S':'
asbag67
(g88
g69
NtRp1021
(dp1022
g72
(dp1023
sg81
g1008
sg74
(lp1024
g67
(g68
g69
NtRp1025
(dp1026
g72
(dp1027
g80
I4
ssg81
g1021
sg74
(lp1028
S'/rsoutelino/contact/contact'
p1029
asbasbasbag67
(g83
g69
NtRp1030
(dp1031
g72
(dp1032
sg81
g485
sg74
(lp1033
g67
(g88
g69
NtRp1034
(dp1035
g72
(dp1036
g92
g93
ssg81
g1030
sg74
(lp1037
S'query_string'
p1038
asbag67
(g88
g69
NtRp1039
(dp1040
g72
(dp1041
g99
g100
ssg81
g1030
sg74
(lp1042
S':'
asbag67
(g88
g69
NtRp1043
(dp1044
g72
(dp1045
sg81
g1030
sg74
(lp1046
g67
(g68
g69
NtRp1047
(dp1048
g72
(dp1049
g80
I4
ssg81
g1043
sg74
(lp1050
S''
asbasbasbag67
(g83
g69
NtRp1051
(dp1052
g72
(dp1053
sg81
g485
sg74
(lp1054
g67
(g88
g69
NtRp1055
(dp1056
g72
(dp1057
g92
g93
ssg81
g1051
sg74
(lp1058
S'remote_addr'
p1059
asbag67
(g88
g69
NtRp1060
(dp1061
g72
(dp1062
g99
g100
ssg81
g1051
sg74
(lp1063
S':'
asbag67
(g88
g69
NtRp1064
(dp1065
g72
(dp1066
sg81
g1051
sg74
(lp1067
g67
(g68
g69
NtRp1068
(dp1069
g72
(dp1070
g80
I4
ssg81
g1064
sg74
(lp1071
S'189.125.114.245'
p1072
asbasbasbag67
(g83
g69
NtRp1073
(dp1074
g72
(dp1075
sg81
g485
sg74
(lp1076
g67
(g88
g69
NtRp1077
(dp1078
g72
(dp1079
g92
g93
ssg81
g1073
sg74
(lp1080
S'remote_port'
p1081
asbag67
(g88
g69
NtRp1082
(dp1083
g72
(dp1084
g99
g100
ssg81
g1073
sg74
(lp1085
S':'
asbag67
(g88
g69
NtRp1086
(dp1087
g72
(dp1088
sg81
g1073
sg74
(lp1089
g67
(g68
g69
NtRp1090
(dp1091
g72
(dp1092
g80
I4
ssg81
g1086
sg74
(lp1093
S'45438'
p1094
asbasbasbag67
(g83
g69
NtRp1095
(dp1096
g72
(dp1097
sg81
g485
sg74
(lp1098
g67
(g88
g69
NtRp1099
(dp1100
g72
(dp1101
g92
g93
ssg81
g1095
sg74
(lp1102
S'request_method'
p1103
asbag67
(g88
g69
NtRp1104
(dp1105
g72
(dp1106
g99
g100
ssg81
g1095
sg74
(lp1107
S':'
asbag67
(g88
g69
NtRp1108
(dp1109
g72
(dp1110
sg81
g1095
sg74
(lp1111
g67
(g68
g69
NtRp1112
(dp1113
g72
(dp1114
g80
I4
ssg81
g1108
sg74
(lp1115
S'GET'
p1116
asbasbasbag67
(g83
g69
NtRp1117
(dp1118
g72
(dp1119
sg81
g485
sg74
(lp1120
g67
(g88
g69
NtRp1121
(dp1122
g72
(dp1123
g92
g93
ssg81
g1117
sg74
(lp1124
S'request_uri'
p1125
asbag67
(g88
g69
NtRp1126
(dp1127
g72
(dp1128
g99
g100
ssg81
g1117
sg74
(lp1129
S':'
asbag67
(g88
g69
NtRp1130
(dp1131
g72
(dp1132
sg81
g1117
sg74
(lp1133
g67
(g68
g69
NtRp1134
(dp1135
g72
(dp1136
g80
I4
ssg81
g1130
sg74
(lp1137
S'/rsoutelino/contact/contact'
p1138
asbasbasbag67
(g83
g69
NtRp1139
(dp1140
g72
(dp1141
sg81
g485
sg74
(lp1142
g67
(g88
g69
NtRp1143
(dp1144
g72
(dp1145
g92
g93
ssg81
g1139
sg74
(lp1146
S'script_name'
p1147
asbag67
(g88
g69
NtRp1148
(dp1149
g72
(dp1150
g99
g100
ssg81
g1139
sg74
(lp1151
S':'
asbag67
(g88
g69
NtRp1152
(dp1153
g72
(dp1154
sg81
g1139
sg74
(lp1155
g67
(g68
g69
NtRp1156
(dp1157
g72
(dp1158
g80
I4
ssg81
g1152
sg74
(lp1159
S''
asbasbasbag67
(g83
g69
NtRp1160
(dp1161
g72
(dp1162
sg81
g485
sg74
(lp1163
g67
(g88
g69
NtRp1164
(dp1165
g72
(dp1166
g92
g93
ssg81
g1160
sg74
(lp1167
S'server_name'
p1168
asbag67
(g88
g69
NtRp1169
(dp1170
g72
(dp1171
g99
g100
ssg81
g1160
sg74
(lp1172
S':'
asbag67
(g88
g69
NtRp1173
(dp1174
g72
(dp1175
sg81
g1160
sg74
(lp1176
g67
(g68
g69
NtRp1177
(dp1178
g72
(dp1179
g80
I4
ssg81
g1173
sg74
(lp1180
S'~(?<domain>.+)$'
p1181
asbasbasbag67
(g83
g69
NtRp1182
(dp1183
g72
(dp1184
sg81
g485
sg74
(lp1185
g67
(g88
g69
NtRp1186
(dp1187
g72
(dp1188
g92
g93
ssg81
g1182
sg74
(lp1189
S'server_port'
p1190
asbag67
(g88
g69
NtRp1191
(dp1192
g72
(dp1193
g99
g100
ssg81
g1182
sg74
(lp1194
S':'
asbag67
(g88
g69
NtRp1195
(dp1196
g72
(dp1197
sg81
g1182
sg74
(lp1198
g67
(g68
g69
NtRp1199
(dp1200
g72
(dp1201
g80
I4
ssg81
g1195
sg74
(lp1202
S'80'
p1203
asbasbasbag67
(g83
g69
NtRp1204
(dp1205
g72
(dp1206
sg81
g485
sg74
(lp1207
g67
(g88
g69
NtRp1208
(dp1209
g72
(dp1210
g92
g93
ssg81
g1204
sg74
(lp1211
S'server_protocol'
p1212
asbag67
(g88
g69
NtRp1213
(dp1214
g72
(dp1215
g99
g100
ssg81
g1204
sg74
(lp1216
S':'
asbag67
(g88
g69
NtRp1217
(dp1218
g72
(dp1219
sg81
g1204
sg74
(lp1220
g67
(g68
g69
NtRp1221
(dp1222
g72
(dp1223
g80
I4
ssg81
g1217
sg74
(lp1224
S'HTTP/1.1'
p1225
asbasbasbag67
(g83
g69
NtRp1226
(dp1227
g72
(dp1228
sg81
g485
sg74
(lp1229
g67
(g88
g69
NtRp1230
(dp1231
g72
(dp1232
g92
g93
ssg81
g1226
sg74
(lp1233
S'uwsgi_node'
p1234
asbag67
(g88
g69
NtRp1235
(dp1236
g72
(dp1237
g99
g100
ssg81
g1226
sg74
(lp1238
S':'
asbag67
(g88
g69
NtRp1239
(dp1240
g72
(dp1241
sg81
g1226
sg74
(lp1242
g67
(g68
g69
NtRp1243
(dp1244
g72
(dp1245
g80
I4
ssg81
g1239
sg74
(lp1246
S'hansel-liveweb'
p1247
asbasbasbag67
(g83
g69
NtRp1248
(dp1249
g72
(dp1250
sg81
g485
sg74
(lp1251
g67
(g88
g69
NtRp1252
(dp1253
g72
(dp1254
g92
g93
ssg81
g1248
sg74
(lp1255
S'uwsgi_version'
p1256
asbag67
(g88
g69
NtRp1257
(dp1258
g72
(dp1259
g99
g100
ssg81
g1248
sg74
(lp1260
S':'
asbag67
(g88
g69
NtRp1261
(dp1262
g72
(dp1263
sg81
g1248
sg74
(lp1264
g67
(g68
g69
NtRp1265
(dp1266
g72
(dp1267
g80
I4
ssg81
g1261
sg74
(lp1268
S'1.4.4'
p1269
asbasbasbag67
(g83
g69
NtRp1270
(dp1271
g72
(dp1272
sg81
g485
sg74
(lp1273
g67
(g88
g69
NtRp1274
(dp1275
g72
(dp1276
g92
g93
ssg81
g1270
sg74
(lp1277
S'web2py_path'
p1278
asbag67
(g88
g69
NtRp1279
(dp1280
g72
(dp1281
g99
g100
ssg81
g1270
sg74
(lp1282
S':'
asbag67
(g88
g69
NtRp1283
(dp1284
g72
(dp1285
sg81
g1270
sg74
(lp1286
g67
(g68
g69
NtRp1287
(dp1288
g72
(dp1289
g80
I4
ssg81
g1283
sg74
(lp1290
g532
asbasbasbag67
(g83
g69
NtRp1291
(dp1292
g72
(dp1293
sg81
g485
sg74
(lp1294
g67
(g88
g69
NtRp1295
(dp1296
g72
(dp1297
g92
g93
ssg81
g1291
sg74
(lp1298
S'web2py_version'
p1299
asbag67
(g88
g69
NtRp1300
(dp1301
g72
(dp1302
g99
g100
ssg81
g1291
sg74
(lp1303
S':'
asbag67
(g88
g69
NtRp1304
(dp1305
g72
(dp1306
sg81
g1291
sg74
(lp1307
g67
(g68
g69
NtRp1308
(dp1309
g72
(dp1310
g80
I4
ssg81
g1304
sg74
(lp1311
g67
(g76
g69
NtRp1312
(dp1313
g72
(dp1314
g80
I3
ssg81
Nsg74
(lp1315
g67
(g83
g69
NtRp1316
(dp1317
g72
(dp1318
sg81
g1312
sg74
(lp1319
g67
(g88
g69
NtRp1320
(dp1321
g72
(dp1322
sg81
g1316
sg74
(lp1323
g67
(g68
g69
NtRp1324
(dp1325
g72
(dp1326
g80
I3
ssg81
g1320
sg74
(lp1327
S'2'
asbasbasbag67
(g83
g69
NtRp1328
(dp1329
g72
(dp1330
sg81
g1312
sg74
(lp1331
g67
(g88
g69
NtRp1332
(dp1333
g72
(dp1334
sg81
g1328
sg74
(lp1335
g67
(g68
g69
NtRp1336
(dp1337
g72
(dp1338
g80
I3
ssg81
g1332
sg74
(lp1339
S'2'
asbasbasbag67
(g83
g69
NtRp1340
(dp1341
g72
(dp1342
sg81
g1312
sg74
(lp1343
g67
(g88
g69
NtRp1344
(dp1345
g72
(dp1346
sg81
g1340
sg74
(lp1347
g67
(g68
g69
NtRp1348
(dp1349
g72
(dp1350
g80
I3
ssg81
g1344
sg74
(lp1351
S'1'
asbasbasbag67
(g83
g69
NtRp1352
(dp1353
g72
(dp1354
sg81
g1312
sg74
(lp1355
g67
(g88
g69
NtRp1356
(dp1357
g72
(dp1358
sg81
g1352
sg74
(lp1359
g67
(g68
g69
NtRp1360
(dp1361
g72
(dp1362
g80
I3
ssg81
g1356
sg74
(lp1363
S'datetime.datetime(2012, 10, 21, 16, 57, 4)'
p1364
asbasbasbag67
(g83
g69
NtRp1365
(dp1366
g72
(dp1367
sg81
g1312
sg74
(lp1368
g67
(g88
g69
NtRp1369
(dp1370
g72
(dp1371
sg81
g1365
sg74
(lp1372
g67
(g68
g69
NtRp1373
(dp1374
g72
(dp1375
g80
I3
ssg81
g1369
sg74
(lp1376
S'stable'
p1377
asbasbasbasbasbasbasbag67
(g83
g69
NtRp1378
(dp1379
g72
(dp1380
sg81
g485
sg74
(lp1381
g67
(g88
g69
NtRp1382
(dp1383
g72
(dp1384
g92
g93
ssg81
g1378
sg74
(lp1385
S'wsgi_errors'
p1386
asbag67
(g88
g69
NtRp1387
(dp1388
g72
(dp1389
g99
g100
ssg81
g1378
sg74
(lp1390
S':'
asbag67
(g88
g69
NtRp1391
(dp1392
g72
(dp1393
sg81
g1378
sg74
(lp1394
g67
(g68
g69
NtRp1395
(dp1396
g72
(dp1397
g80
I4
ssg81
g1391
sg74
(lp1398
S'<uwsgi_file__bin_user_wsgi_wrapper.ErrorLogWrapper object at 0x2b07ed0>'
p1399
asbasbasbag67
(g83
g69
NtRp1400
(dp1401
g72
(dp1402
sg81
g485
sg74
(lp1403
g67
(g88
g69
NtRp1404
(dp1405
g72
(dp1406
g92
g93
ssg81
g1400
sg74
(lp1407
S'wsgi_file_wrapper'
p1408
asbag67
(g88
g69
NtRp1409
(dp1410
g72
(dp1411
g99
g100
ssg81
g1400
sg74
(lp1412
S':'
asbag67
(g88
g69
NtRp1413
(dp1414
g72
(dp1415
sg81
g1400
sg74
(lp1416
g67
(g68
g69
NtRp1417
(dp1418
g72
(dp1419
g80
I4
ssg81
g1413
sg74
(lp1420
S'<built-in function uwsgi_sendfile>'
p1421
asbasbasbag67
(g83
g69
NtRp1422
(dp1423
g72
(dp1424
sg81
g485
sg74
(lp1425
g67
(g88
g69
NtRp1426
(dp1427
g72
(dp1428
g92
g93
ssg81
g1422
sg74
(lp1429
S'wsgi_input'
p1430
asbag67
(g88
g69
NtRp1431
(dp1432
g72
(dp1433
g99
g100
ssg81
g1422
sg74
(lp1434
S':'
asbag67
(g88
g69
NtRp1435
(dp1436
g72
(dp1437
sg81
g1422
sg74
(lp1438
g67
(g68
g69
NtRp1439
(dp1440
g72
(dp1441
g80
I4
ssg81
g1435
sg74
(lp1442
S'<uwsgi._Input object at 0x2ea76b0>'
p1443
asbasbasbag67
(g83
g69
NtRp1444
(dp1445
g72
(dp1446
sg81
g485
sg74
(lp1447
g67
(g88
g69
NtRp1448
(dp1449
g72
(dp1450
g92
g93
ssg81
g1444
sg74
(lp1451
S'wsgi_multiprocess'
p1452
asbag67
(g88
g69
NtRp1453
(dp1454
g72
(dp1455
g99
g100
ssg81
g1444
sg74
(lp1456
S':'
asbag67
(g88
g69
NtRp1457
(dp1458
g72
(dp1459
sg81
g1444
sg74
(lp1460
g67
(g68
g69
NtRp1461
(dp1462
g72
(dp1463
g80
I4
ssg81
g1457
sg74
(lp1464
g110
asbasbasbag67
(g83
g69
NtRp1465
(dp1466
g72
(dp1467
sg81
g485
sg74
(lp1468
g67
(g88
g69
NtRp1469
(dp1470
g72
(dp1471
g92
g93
ssg81
g1465
sg74
(lp1472
S'wsgi_multithread'
p1473
asbag67
(g88
g69
NtRp1474
(dp1475
g72
(dp1476
g99
g100
ssg81
g1465
sg74
(lp1477
S':'
asbag67
(g88
g69
NtRp1478
(dp1479
g72
(dp1480
sg81
g1465
sg74
(lp1481
g67
(g68
g69
NtRp1482
(dp1483
g72
(dp1484
g80
I4
ssg81
g1478
sg74
(lp1485
g110
asbasbasbag67
(g83
g69
NtRp1486
(dp1487
g72
(dp1488
sg81
g485
sg74
(lp1489
g67
(g88
g69
NtRp1490
(dp1491
g72
(dp1492
g92
g93
ssg81
g1486
sg74
(lp1493
S'wsgi_run_once'
p1494
asbag67
(g88
g69
NtRp1495
(dp1496
g72
(dp1497
g99
g100
ssg81
g1486
sg74
(lp1498
S':'
asbag67
(g88
g69
NtRp1499
(dp1500
g72
(dp1501
sg81
g1486
sg74
(lp1502
g67
(g68
g69
NtRp1503
(dp1504
g72
(dp1505
g80
I4
ssg81
g1499
sg74
(lp1506
g110
asbasbasbag67
(g83
g69
NtRp1507
(dp1508
g72
(dp1509
sg81
g485
sg74
(lp1510
g67
(g88
g69
NtRp1511
(dp1512
g72
(dp1513
g92
g93
ssg81
g1507
sg74
(lp1514
S'wsgi_url_scheme'
p1515
asbag67
(g88
g69
NtRp1516
(dp1517
g72
(dp1518
g99
g100
ssg81
g1507
sg74
(lp1519
S':'
asbag67
(g88
g69
NtRp1520
(dp1521
g72
(dp1522
sg81
g1507
sg74
(lp1523
g67
(g68
g69
NtRp1524
(dp1525
g72
(dp1526
g80
I4
ssg81
g1520
sg74
(lp1527
S'http'
p1528
asbasbasbag67
(g83
g69
NtRp1529
(dp1530
g72
(dp1531
sg81
g485
sg74
(lp1532
g67
(g88
g69
NtRp1533
(dp1534
g72
(dp1535
g92
g93
ssg81
g1529
sg74
(lp1536
S'wsgi_version'
p1537
asbag67
(g88
g69
NtRp1538
(dp1539
g72
(dp1540
g99
g100
ssg81
g1529
sg74
(lp1541
S':'
asbag67
(g88
g69
NtRp1542
(dp1543
g72
(dp1544
sg81
g1529
sg74
(lp1545
g67
(g68
g69
NtRp1546
(dp1547
g72
(dp1548
g80
I4
ssg81
g1542
sg74
(lp1549
g67
(g76
g69
NtRp1550
(dp1551
g72
(dp1552
g80
I3
ssg81
Nsg74
(lp1553
g67
(g83
g69
NtRp1554
(dp1555
g72
(dp1556
sg81
g1550
sg74
(lp1557
g67
(g88
g69
NtRp1558
(dp1559
g72
(dp1560
sg81
g1554
sg74
(lp1561
g67
(g68
g69
NtRp1562
(dp1563
g72
(dp1564
g80
I3
ssg81
g1558
sg74
(lp1565
S'1'
asbasbasbag67
(g83
g69
NtRp1566
(dp1567
g72
(dp1568
sg81
g1550
sg74
(lp1569
g67
(g88
g69
NtRp1570
(dp1571
g72
(dp1572
sg81
g1566
sg74
(lp1573
g67
(g68
g69
NtRp1574
(dp1575
g72
(dp1576
g80
I3
ssg81
g1570
sg74
(lp1577
S'0'
asbasbasbasbasbasbasbasbasbasbasbag67
(g83
g69
NtRp1578
(dp1579
g72
(dp1580
sg81
g77
sg74
(lp1581
g67
(g88
g69
NtRp1582
(dp1583
g72
(dp1584
g92
g93
ssg81
g1578
sg74
(lp1585
S'extension'
p1586
asbag67
(g88
g69
NtRp1587
(dp1588
g72
(dp1589
g99
g100
ssg81
g1578
sg74
(lp1590
S':'
asbag67
(g88
g69
NtRp1591
(dp1592
g72
(dp1593
sg81
g1578
sg74
(lp1594
g67
(g68
g69
NtRp1595
(dp1596
g72
(dp1597
g80
I5
ssg81
g1591
sg74
(lp1598
S'html'
p1599
asbasbasbag67
(g83
g69
NtRp1600
(dp1601
g72
(dp1602
sg81
g77
sg74
(lp1603
g67
(g88
g69
NtRp1604
(dp1605
g72
(dp1606
g92
g93
ssg81
g1600
sg74
(lp1607
S'folder'
p1608
asbag67
(g88
g69
NtRp1609
(dp1610
g72
(dp1611
g99
g100
ssg81
g1600
sg74
(lp1612
S':'
asbag67
(g88
g69
NtRp1613
(dp1614
g72
(dp1615
sg81
g1600
sg74
(lp1616
g67
(g68
g69
NtRp1617
(dp1618
g72
(dp1619
g80
I5
ssg81
g1613
sg74
(lp1620
S'/home/rsoutelino/web2py/applications/rsoutelino/'
p1621
asbasbasbag67
(g83
g69
NtRp1622
(dp1623
g72
(dp1624
sg81
g77
sg74
(lp1625
g67
(g88
g69
NtRp1626
(dp1627
g72
(dp1628
g92
g93
ssg81
g1622
sg74
(lp1629
S'function'
p1630
asbag67
(g88
g69
NtRp1631
(dp1632
g72
(dp1633
g99
g100
ssg81
g1622
sg74
(lp1634
S':'
asbag67
(g88
g69
NtRp1635
(dp1636
g72
(dp1637
sg81
g1622
sg74
(lp1638
g67
(g68
g69
NtRp1639
(dp1640
g72
(dp1641
g80
I5
ssg81
g1635
sg74
(lp1642
S'contact'
p1643
asbasbasbag67
(g83
g69
NtRp1644
(dp1645
g72
(dp1646
sg81
g77
sg74
(lp1647
g67
(g88
g69
NtRp1648
(dp1649
g72
(dp1650
g92
g93
ssg81
g1644
sg74
(lp1651
S'get_vars'
p1652
asbag67
(g88
g69
NtRp1653
(dp1654
g72
(dp1655
g99
g100
ssg81
g1644
sg74
(lp1656
S':'
asbag67
(g88
g69
NtRp1657
(dp1658
g72
(dp1659
sg81
g1644
sg74
(lp1660
g67
(g68
g69
NtRp1661
(dp1662
g72
(dp1663
g80
I5
ssg81
g1657
sg74
(lp1664
g67
(g76
g69
NtRp1665
(dp1666
g72
(dp1667
g80
I4
ssg81
Nsg74
(lp1668
sbasbasbasbag67
(g83
g69
NtRp1669
(dp1670
g72
(dp1671
sg81
g77
sg74
(lp1672
g67
(g88
g69
NtRp1673
(dp1674
g72
(dp1675
g92
g93
ssg81
g1669
sg74
(lp1676
S'global_settings'
p1677
asbag67
(g88
g69
NtRp1678
(dp1679
g72
(dp1680
g99
g100
ssg81
g1669
sg74
(lp1681
S':'
asbag67
(g88
g69
NtRp1682
(dp1683
g72
(dp1684
sg81
g1669
sg74
(lp1685
g67
(g68
g69
NtRp1686
(dp1687
g72
(dp1688
g80
I5
ssg81
g1682
sg74
(lp1689
g67
(g76
g69
NtRp1690
(dp1691
g72
(dp1692
g80
I4
ssg81
Nsg74
(lp1693
g67
(g83
g69
NtRp1694
(dp1695
g72
(dp1696
sg81
g1690
sg74
(lp1697
g67
(g88
g69
NtRp1698
(dp1699
g72
(dp1700
g92
g93
ssg81
g1694
sg74
(lp1701
g497
asbag67
(g88
g69
NtRp1702
(dp1703
g72
(dp1704
g99
g100
ssg81
g1694
sg74
(lp1705
S':'
asbag67
(g88
g69
NtRp1706
(dp1707
g72
(dp1708
sg81
g1694
sg74
(lp1709
g67
(g68
g69
NtRp1710
(dp1711
g72
(dp1712
g80
I4
ssg81
g1706
sg74
(lp1713
S"set(['/home/rsoutelino/web2py/applications/rsoutelino/'])"
p1714
asbasbasbag67
(g83
g69
NtRp1715
(dp1716
g72
(dp1717
sg81
g1690
sg74
(lp1718
g67
(g88
g69
NtRp1719
(dp1720
g72
(dp1721
g92
g93
ssg81
g1715
sg74
(lp1722
g519
asbag67
(g88
g69
NtRp1723
(dp1724
g72
(dp1725
g99
g100
ssg81
g1715
sg74
(lp1726
S':'
asbag67
(g88
g69
NtRp1727
(dp1728
g72
(dp1729
sg81
g1715
sg74
(lp1730
g67
(g68
g69
NtRp1731
(dp1732
g72
(dp1733
g80
I4
ssg81
g1727
sg74
(lp1734
g532
asbasbasbag67
(g83
g69
NtRp1735
(dp1736
g72
(dp1737
sg81
g1690
sg74
(lp1738
g67
(g88
g69
NtRp1739
(dp1740
g72
(dp1741
g92
g93
ssg81
g1735
sg74
(lp1742
g583
asbag67
(g88
g69
NtRp1743
(dp1744
g72
(dp1745
g99
g100
ssg81
g1735
sg74
(lp1746
S':'
asbag67
(g88
g69
NtRp1747
(dp1748
g72
(dp1749
sg81
g1735
sg74
(lp1750
g67
(g68
g69
NtRp1751
(dp1752
g72
(dp1753
g80
I4
ssg81
g1747
sg74
(lp1754
S'set([])'
p1755
asbasbasbag67
(g83
g69
NtRp1756
(dp1757
g72
(dp1758
sg81
g1690
sg74
(lp1759
g67
(g88
g69
NtRp1760
(dp1761
g72
(dp1762
g92
g93
ssg81
g1756
sg74
(lp1763
g605
asbag67
(g88
g69
NtRp1764
(dp1765
g72
(dp1766
g99
g100
ssg81
g1756
sg74
(lp1767
S':'
asbag67
(g88
g69
NtRp1768
(dp1769
g72
(dp1770
sg81
g1756
sg74
(lp1771
g67
(g68
g69
NtRp1772
(dp1773
g72
(dp1774
g80
I4
ssg81
g1768
sg74
(lp1775
g110
asbasbasbag67
(g83
g69
NtRp1776
(dp1777
g72
(dp1778
sg81
g1690
sg74
(lp1779
g67
(g88
g69
NtRp1780
(dp1781
g72
(dp1782
g92
g93
ssg81
g1776
sg74
(lp1783
g648
asbag67
(g88
g69
NtRp1784
(dp1785
g72
(dp1786
g99
g100
ssg81
g1776
sg74
(lp1787
S':'
asbag67
(g88
g69
NtRp1788
(dp1789
g72
(dp1790
sg81
g1776
sg74
(lp1791
g67
(g68
g69
NtRp1792
(dp1793
g72
(dp1794
g80
I4
ssg81
g1788
sg74
(lp1795
g532
asbasbasbag67
(g83
g69
NtRp1796
(dp1797
g72
(dp1798
sg81
g1690
sg74
(lp1799
g67
(g88
g69
NtRp1800
(dp1801
g72
(dp1802
g92
g93
ssg81
g1796
sg74
(lp1803
g910
asbag67
(g88
g69
NtRp1804
(dp1805
g72
(dp1806
g99
g100
ssg81
g1796
sg74
(lp1807
S':'
asbag67
(g88
g69
NtRp1808
(dp1809
g72
(dp1810
sg81
g1796
sg74
(lp1811
g67
(g68
g69
NtRp1812
(dp1813
g72
(dp1814
g80
I4
ssg81
g1808
sg74
(lp1815
g110
asbasbasbag67
(g83
g69
NtRp1816
(dp1817
g72
(dp1818
sg81
g1690
sg74
(lp1819
g67
(g88
g69
NtRp1820
(dp1821
g72
(dp1822
g92
g93
ssg81
g1816
sg74
(lp1823
g931
asbag67
(g88
g69
NtRp1824
(dp1825
g72
(dp1826
g99
g100
ssg81
g1816
sg74
(lp1827
S':'
asbag67
(g88
g69
NtRp1828
(dp1829
g72
(dp1830
sg81
g1816
sg74
(lp1831
g67
(g68
g69
NtRp1832
(dp1833
g72
(dp1834
g80
I4
ssg81
g1828
sg74
(lp1835
g110
asbasbasbag67
(g83
g69
NtRp1836
(dp1837
g72
(dp1838
sg81
g1690
sg74
(lp1839
g67
(g88
g69
NtRp1840
(dp1841
g72
(dp1842
g92
g93
ssg81
g1836
sg74
(lp1843
g952
asbag67
(g88
g69
NtRp1844
(dp1845
g72
(dp1846
g99
g100
ssg81
g1836
sg74
(lp1847
S':'
asbag67
(g88
g69
NtRp1848
(dp1849
g72
(dp1850
sg81
g1836
sg74
(lp1851
g67
(g68
g69
NtRp1852
(dp1853
g72
(dp1854
g80
I4
ssg81
g1848
sg74
(lp1855
g67
(g76
g69
NtRp1856
(dp1857
g72
(dp1858
g80
I3
ssg81
Nsg74
(lp1859
g67
(g83
g69
NtRp1860
(dp1861
g72
(dp1862
sg81
g1856
sg74
(lp1863
g67
(g88
g69
NtRp1864
(dp1865
g72
(dp1866
sg81
g1860
sg74
(lp1867
g67
(g68
g69
NtRp1868
(dp1869
g72
(dp1870
g80
I3
ssg81
g1864
sg74
(lp1871
g981
asbasbasbag67
(g83
g69
NtRp1872
(dp1873
g72
(dp1874
sg81
g1856
sg74
(lp1875
g67
(g88
g69
NtRp1876
(dp1877
g72
(dp1878
sg81
g1872
sg74
(lp1879
g67
(g68
g69
NtRp1880
(dp1881
g72
(dp1882
g80
I3
ssg81
g1876
sg74
(lp1883
g994
asbasbasbag67
(g83
g69
NtRp1884
(dp1885
g72
(dp1886
sg81
g1856
sg74
(lp1887
g67
(g88
g69
NtRp1888
(dp1889
g72
(dp1890
sg81
g1884
sg74
(lp1891
g67
(g68
g69
NtRp1892
(dp1893
g72
(dp1894
g80
I3
ssg81
g1888
sg74
(lp1895
g1007
asbasbasbasbasbasbasbag67
(g83
g69
NtRp1896
(dp1897
g72
(dp1898
sg81
g1690
sg74
(lp1899
g67
(g88
g69
NtRp1900
(dp1901
g72
(dp1902
g92
g93
ssg81
g1896
sg74
(lp1903
g1299
asbag67
(g88
g69
NtRp1904
(dp1905
g72
(dp1906
g99
g100
ssg81
g1896
sg74
(lp1907
S':'
asbag67
(g88
g69
NtRp1908
(dp1909
g72
(dp1910
sg81
g1896
sg74
(lp1911
g67
(g68
g69
NtRp1912
(dp1913
g72
(dp1914
g80
I4
ssg81
g1908
sg74
(lp1915
g67
(g76
g69
NtRp1916
(dp1917
g72
(dp1918
g80
I3
ssg81
Nsg74
(lp1919
g67
(g83
g69
NtRp1920
(dp1921
g72
(dp1922
sg81
g1916
sg74
(lp1923
g67
(g88
g69
NtRp1924
(dp1925
g72
(dp1926
sg81
g1920
sg74
(lp1927
g67
(g68
g69
NtRp1928
(dp1929
g72
(dp1930
g80
I3
ssg81
g1924
sg74
(lp1931
S'2'
asbasbasbag67
(g83
g69
NtRp1932
(dp1933
g72
(dp1934
sg81
g1916
sg74
(lp1935
g67
(g88
g69
NtRp1936
(dp1937
g72
(dp1938
sg81
g1932
sg74
(lp1939
g67
(g68
g69
NtRp1940
(dp1941
g72
(dp1942
g80
I3
ssg81
g1936
sg74
(lp1943
S'2'
asbasbasbag67
(g83
g69
NtRp1944
(dp1945
g72
(dp1946
sg81
g1916
sg74
(lp1947
g67
(g88
g69
NtRp1948
(dp1949
g72
(dp1950
sg81
g1944
sg74
(lp1951
g67
(g68
g69
NtRp1952
(dp1953
g72
(dp1954
g80
I3
ssg81
g1948
sg74
(lp1955
S'1'
asbasbasbag67
(g83
g69
NtRp1956
(dp1957
g72
(dp1958
sg81
g1916
sg74
(lp1959
g67
(g88
g69
NtRp1960
(dp1961
g72
(dp1962
sg81
g1956
sg74
(lp1963
g67
(g68
g69
NtRp1964
(dp1965
g72
(dp1966
g80
I3
ssg81
g1960
sg74
(lp1967
S'datetime.datetime(2012, 10, 21, 16, 57, 4)'
p1968
asbasbasbag67
(g83
g69
NtRp1969
(dp1970
g72
(dp1971
sg81
g1916
sg74
(lp1972
g67
(g88
g69
NtRp1973
(dp1974
g72
(dp1975
sg81
g1969
sg74
(lp1976
g67
(g68
g69
NtRp1977
(dp1978
g72
(dp1979
g80
I3
ssg81
g1973
sg74
(lp1980
g1377
asbasbasbasbasbasbasbasbasbasbasbag67
(g83
g69
NtRp1981
(dp1982
g72
(dp1983
sg81
g77
sg74
(lp1984
g67
(g88
g69
NtRp1985
(dp1986
g72
(dp1987
g92
g93
ssg81
g1981
sg74
(lp1988
S'is_https'
p1989
asbag67
(g88
g69
NtRp1990
(dp1991
g72
(dp1992
g99
g100
ssg81
g1981
sg74
(lp1993
S':'
asbag67
(g88
g69
NtRp1994
(dp1995
g72
(dp1996
sg81
g1981
sg74
(lp1997
g67
(g68
g69
NtRp1998
(dp1999
g72
(dp2000
g80
I5
ssg81
g1994
sg74
(lp2001
g110
asbasbasbag67
(g83
g69
NtRp2002
(dp2003
g72
(dp2004
sg81
g77
sg74
(lp2005
g67
(g88
g69
NtRp2006
(dp2007
g72
(dp2008
g92
g93
ssg81
g2002
sg74
(lp2009
S'is_local'
p2010
asbag67
(g88
g69
NtRp2011
(dp2012
g72
(dp2013
g99
g100
ssg81
g2002
sg74
(lp2014
S':'
asbag67
(g88
g69
NtRp2015
(dp2016
g72
(dp2017
sg81
g2002
sg74
(lp2018
g67
(g68
g69
NtRp2019
(dp2020
g72
(dp2021
g80
I5
ssg81
g2015
sg74
(lp2022
g110
asbasbasbag67
(g83
g69
NtRp2023
(dp2024
g72
(dp2025
sg81
g77
sg74
(lp2026
g67
(g88
g69
NtRp2027
(dp2028
g72
(dp2029
g92
g93
ssg81
g2023
sg74
(lp2030
S'is_restful'
p2031
asbag67
(g88
g69
NtRp2032
(dp2033
g72
(dp2034
g99
g100
ssg81
g2023
sg74
(lp2035
S':'
asbag67
(g88
g69
NtRp2036
(dp2037
g72
(dp2038
sg81
g2023
sg74
(lp2039
g67
(g68
g69
NtRp2040
(dp2041
g72
(dp2042
g80
I5
ssg81
g2036
sg74
(lp2043
g110
asbasbasbag67
(g83
g69
NtRp2044
(dp2045
g72
(dp2046
sg81
g77
sg74
(lp2047
g67
(g88
g69
NtRp2048
(dp2049
g72
(dp2050
g92
g93
ssg81
g2044
sg74
(lp2051
S'now'
p2052
asbag67
(g88
g69
NtRp2053
(dp2054
g72
(dp2055
g99
g100
ssg81
g2044
sg74
(lp2056
S':'
asbag67
(g88
g69
NtRp2057
(dp2058
g72
(dp2059
sg81
g2044
sg74
(lp2060
g67
(g68
g69
NtRp2061
(dp2062
g72
(dp2063
g80
I5
ssg81
g2057
sg74
(lp2064
S'datetime.datetime(2013, 2, 7, 12, 10, 34, 740677)'
p2065
asbasbasbag67
(g83
g69
NtRp2066
(dp2067
g72
(dp2068
sg81
g77
sg74
(lp2069
g67
(g88
g69
NtRp2070
(dp2071
g72
(dp2072
g92
g93
ssg81
g2066
sg74
(lp2073
S'post_vars'
p2074
asbag67
(g88
g69
NtRp2075
(dp2076
g72
(dp2077
g99
g100
ssg81
g2066
sg74
(lp2078
S':'
asbag67
(g88
g69
NtRp2079
(dp2080
g72
(dp2081
sg81
g2066
sg74
(lp2082
g67
(g68
g69
NtRp2083
(dp2084
g72
(dp2085
g80
I5
ssg81
g2079
sg74
(lp2086
g67
(g76
g69
NtRp2087
(dp2088
g72
(dp2089
g80
I4
ssg81
Nsg74
(lp2090
sbasbasbasbag67
(g83
g69
NtRp2091
(dp2092
g72
(dp2093
sg81
g77
sg74
(lp2094
g67
(g88
g69
NtRp2095
(dp2096
g72
(dp2097
g92
g93
ssg81
g2091
sg74
(lp2098
S'raw_args'
p2099
asbag67
(g88
g69
NtRp2100
(dp2101
g72
(dp2102
g99
g100
ssg81
g2091
sg74
(lp2103
S':'
asbag67
(g88
g69
NtRp2104
(dp2105
g72
(dp2106
sg81
g2091
sg74
(lp2107
g67
(g68
g69
NtRp2108
(dp2109
g72
(dp2110
g80
I5
ssg81
g2104
sg74
(lp2111
S''
asbasbasbag67
(g83
g69
NtRp2112
(dp2113
g72
(dp2114
sg81
g77
sg74
(lp2115
g67
(g88
g69
NtRp2116
(dp2117
g72
(dp2118
g92
g93
ssg81
g2112
sg74
(lp2119
S'raw_extension'
p2120
asbag67
(g88
g69
NtRp2121
(dp2122
g72
(dp2123
g99
g100
ssg81
g2112
sg74
(lp2124
S':'
asbag67
(g88
g69
NtRp2125
(dp2126
g72
(dp2127
sg81
g2112
sg74
(lp2128
g67
(g68
g69
NtRp2129
(dp2130
g72
(dp2131
g80
I5
ssg81
g2125
sg74
(lp2132
S'None'
p2133
asbasbasbag67
(g83
g69
NtRp2134
(dp2135
g72
(dp2136
sg81
g77
sg74
(lp2137
g67
(g88
g69
NtRp2138
(dp2139
g72
(dp2140
g92
g93
ssg81
g2134
sg74
(lp2141
S'url'
p2142
asbag67
(g88
g69
NtRp2143
(dp2144
g72
(dp2145
g99
g100
ssg81
g2134
sg74
(lp2146
S':'
asbag67
(g88
g69
NtRp2147
(dp2148
g72
(dp2149
sg81
g2134
sg74
(lp2150
g67
(g68
g69
NtRp2151
(dp2152
g72
(dp2153
g80
I5
ssg81
g2147
sg74
(lp2154
g1029
asbasbasbag67
(g83
g69
NtRp2155
(dp2156
g72
(dp2157
sg81
g77
sg74
(lp2158
g67
(g88
g69
NtRp2159
(dp2160
g72
(dp2161
g92
g93
ssg81
g2155
sg74
(lp2162
S'utcnow'
p2163
asbag67
(g88
g69
NtRp2164
(dp2165
g72
(dp2166
g99
g100
ssg81
g2155
sg74
(lp2167
S':'
asbag67
(g88
g69
NtRp2168
(dp2169
g72
(dp2170
sg81
g2155
sg74
(lp2171
g67
(g68
g69
NtRp2172
(dp2173
g72
(dp2174
g80
I5
ssg81
g2168
sg74
(lp2175
S'datetime.datetime(2013, 2, 7, 12, 10, 34, 740707)'
p2176
asbasbasbag67
(g83
g69
NtRp2177
(dp2178
g72
(dp2179
sg81
g77
sg74
(lp2180
g67
(g88
g69
NtRp2181
(dp2182
g72
(dp2183
g92
g93
ssg81
g2177
sg74
(lp2184
S'uuid'
p2185
asbag67
(g88
g69
NtRp2186
(dp2187
g72
(dp2188
g99
g100
ssg81
g2177
sg74
(lp2189
S':'
asbag67
(g88
g69
NtRp2190
(dp2191
g72
(dp2192
sg81
g2177
sg74
(lp2193
g67
(g68
g69
NtRp2194
(dp2195
g72
(dp2196
g80
I5
ssg81
g2190
sg74
(lp2197
S'rsoutelino/172.30.6.206.2013-02-07.12-10-34.81542cbd-6f62-41c6-8d5c-efc69eddce35'
p2198
asbasbasbag67
(g83
g69
NtRp2199
(dp2200
g72
(dp2201
sg81
g77
sg74
(lp2202
g67
(g88
g69
NtRp2203
(dp2204
g72
(dp2205
g92
g93
ssg81
g2199
sg74
(lp2206
S'vars'
p2207
asbag67
(g88
g69
NtRp2208
(dp2209
g72
(dp2210
g99
g100
ssg81
g2199
sg74
(lp2211
S':'
asbag67
(g88
g69
NtRp2212
(dp2213
g72
(dp2214
sg81
g2199
sg74
(lp2215
g67
(g68
g69
NtRp2216
(dp2217
g72
(dp2218
g80
I5
ssg81
g2212
sg74
(lp2219
g67
(g76
g69
NtRp2220
(dp2221
g72
(dp2222
g80
I4
ssg81
Nsg74
(lp2223
sbasbasbasbag67
(g83
g69
NtRp2224
(dp2225
g72
(dp2226
sg81
g77
sg74
(lp2227
g67
(g88
g69
NtRp2228
(dp2229
g72
(dp2230
g92
g93
ssg81
g2224
sg74
(lp2231
S'wsgi'
p2232
asbag67
(g88
g69
NtRp2233
(dp2234
g72
(dp2235
g99
g100
ssg81
g2224
sg74
(lp2236
S':'
asbag67
(g88
g69
NtRp2237
(dp2238
g72
(dp2239
sg81
g2224
sg74
(lp2240
g67
(g68
g69
NtRp2241
(dp2242
g72
(dp2243
g80
I5
ssg81
g2237
sg74
(lp2244
g67
(g76
g69
NtRp2245
(dp2246
g72
(dp2247
g80
I4
ssg81
Nsg74
(lp2248
g67
(g83
g69
NtRp2249
(dp2250
g72
(dp2251
sg81
g2245
sg74
(lp2252
g67
(g88
g69
NtRp2253
(dp2254
g72
(dp2255
g92
g93
ssg81
g2249
sg74
(lp2256
S'environ'
p2257
asbag67
(g88
g69
NtRp2258
(dp2259
g72
(dp2260
g99
g100
ssg81
g2249
sg74
(lp2261
S':'
asbag67
(g88
g69
NtRp2262
(dp2263
g72
(dp2264
sg81
g2249
sg74
(lp2265
g67
(g68
g69
NtRp2266
(dp2267
g72
(dp2268
g80
I4
ssg81
g2262
sg74
(lp2269
g67
(g76
g69
NtRp2270
(dp2271
g72
(dp2272
g80
I3
ssg81
Nsg74
(lp2273
g67
(g83
g69
NtRp2274
(dp2275
g72
(dp2276
sg81
g2270
sg74
(lp2277
g67
(g88
g69
NtRp2278
(dp2279
g72
(dp2280
g92
g93
ssg81
g2274
sg74
(lp2281
S'CONTENT_LENGTH'
p2282
asbag67
(g88
g69
NtRp2283
(dp2284
g72
(dp2285
g99
g100
ssg81
g2274
sg74
(lp2286
S':'
asbag67
(g88
g69
NtRp2287
(dp2288
g72
(dp2289
sg81
g2274
sg74
(lp2290
g67
(g68
g69
NtRp2291
(dp2292
g72
(dp2293
g80
I3
ssg81
g2287
sg74
(lp2294
S''
asbasbasbag67
(g83
g69
NtRp2295
(dp2296
g72
(dp2297
sg81
g2270
sg74
(lp2298
g67
(g88
g69
NtRp2299
(dp2300
g72
(dp2301
g92
g93
ssg81
g2295
sg74
(lp2302
S'CONTENT_TYPE'
p2303
asbag67
(g88
g69
NtRp2304
(dp2305
g72
(dp2306
g99
g100
ssg81
g2295
sg74
(lp2307
S':'
asbag67
(g88
g69
NtRp2308
(dp2309
g72
(dp2310
sg81
g2295
sg74
(lp2311
g67
(g68
g69
NtRp2312
(dp2313
g72
(dp2314
g80
I3
ssg81
g2308
sg74
(lp2315
S''
asbasbasbag67
(g83
g69
NtRp2316
(dp2317
g72
(dp2318
sg81
g2270
sg74
(lp2319
g67
(g88
g69
NtRp2320
(dp2321
g72
(dp2322
g92
g93
ssg81
g2316
sg74
(lp2323
S'DOCUMENT_ROOT'
p2324
asbag67
(g88
g69
NtRp2325
(dp2326
g72
(dp2327
g99
g100
ssg81
g2316
sg74
(lp2328
S':'
asbag67
(g88
g69
NtRp2329
(dp2330
g72
(dp2331
sg81
g2316
sg74
(lp2332
g67
(g68
g69
NtRp2333
(dp2334
g72
(dp2335
g80
I3
ssg81
g2329
sg74
(lp2336
g639
asbasbasbag67
(g83
g69
NtRp2337
(dp2338
g72
(dp2339
sg81
g2270
sg74
(lp2340
g67
(g88
g69
NtRp2341
(dp2342
g72
(dp2343
g92
g93
ssg81
g2337
sg74
(lp2344
S'HTTP_ACCEPT'
p2345
asbag67
(g88
g69
NtRp2346
(dp2347
g72
(dp2348
g99
g100
ssg81
g2337
sg74
(lp2349
S':'
asbag67
(g88
g69
NtRp2350
(dp2351
g72
(dp2352
sg81
g2337
sg74
(lp2353
g67
(g68
g69
NtRp2354
(dp2355
g72
(dp2356
g80
I3
ssg81
g2350
sg74
(lp2357
g682
asbasbasbag67
(g83
g69
NtRp2358
(dp2359
g72
(dp2360
sg81
g2270
sg74
(lp2361
g67
(g88
g69
NtRp2362
(dp2363
g72
(dp2364
g92
g93
ssg81
g2358
sg74
(lp2365
S'HTTP_ACCEPT_CHARSET'
p2366
asbag67
(g88
g69
NtRp2367
(dp2368
g72
(dp2369
g99
g100
ssg81
g2358
sg74
(lp2370
S':'
asbag67
(g88
g69
NtRp2371
(dp2372
g72
(dp2373
sg81
g2358
sg74
(lp2374
g67
(g68
g69
NtRp2375
(dp2376
g72
(dp2377
g80
I3
ssg81
g2371
sg74
(lp2378
g704
asbasbasbag67
(g83
g69
NtRp2379
(dp2380
g72
(dp2381
sg81
g2270
sg74
(lp2382
g67
(g88
g69
NtRp2383
(dp2384
g72
(dp2385
g92
g93
ssg81
g2379
sg74
(lp2386
S'HTTP_ACCEPT_ENCODING'
p2387
asbag67
(g88
g69
NtRp2388
(dp2389
g72
(dp2390
g99
g100
ssg81
g2379
sg74
(lp2391
S':'
asbag67
(g88
g69
NtRp2392
(dp2393
g72
(dp2394
sg81
g2379
sg74
(lp2395
g67
(g68
g69
NtRp2396
(dp2397
g72
(dp2398
g80
I3
ssg81
g2392
sg74
(lp2399
g726
asbasbasbag67
(g83
g69
NtRp2400
(dp2401
g72
(dp2402
sg81
g2270
sg74
(lp2403
g67
(g88
g69
NtRp2404
(dp2405
g72
(dp2406
g92
g93
ssg81
g2400
sg74
(lp2407
S'HTTP_ACCEPT_LANGUAGE'
p2408
asbag67
(g88
g69
NtRp2409
(dp2410
g72
(dp2411
g99
g100
ssg81
g2400
sg74
(lp2412
S':'
asbag67
(g88
g69
NtRp2413
(dp2414
g72
(dp2415
sg81
g2400
sg74
(lp2416
g67
(g68
g69
NtRp2417
(dp2418
g72
(dp2419
g80
I3
ssg81
g2413
sg74
(lp2420
g748
asbasbasbag67
(g83
g69
NtRp2421
(dp2422
g72
(dp2423
sg81
g2270
sg74
(lp2424
g67
(g88
g69
NtRp2425
(dp2426
g72
(dp2427
g92
g93
ssg81
g2421
sg74
(lp2428
S'HTTP_CONNECTION'
p2429
asbag67
(g88
g69
NtRp2430
(dp2431
g72
(dp2432
g99
g100
ssg81
g2421
sg74
(lp2433
S':'
asbag67
(g88
g69
NtRp2434
(dp2435
g72
(dp2436
sg81
g2421
sg74
(lp2437
g67
(g68
g69
NtRp2438
(dp2439
g72
(dp2440
g80
I3
ssg81
g2434
sg74
(lp2441
g770
asbasbasbag67
(g83
g69
NtRp2442
(dp2443
g72
(dp2444
sg81
g2270
sg74
(lp2445
g67
(g88
g69
NtRp2446
(dp2447
g72
(dp2448
g92
g93
ssg81
g2442
sg74
(lp2449
S'HTTP_COOKIE'
p2450
asbag67
(g88
g69
NtRp2451
(dp2452
g72
(dp2453
g99
g100
ssg81
g2442
sg74
(lp2454
S':'
asbag67
(g88
g69
NtRp2455
(dp2456
g72
(dp2457
sg81
g2442
sg74
(lp2458
g67
(g68
g69
NtRp2459
(dp2460
g72
(dp2461
g80
I3
ssg81
g2455
sg74
(lp2462
g792
asbasbasbag67
(g83
g69
NtRp2463
(dp2464
g72
(dp2465
sg81
g2270
sg74
(lp2466
g67
(g88
g69
NtRp2467
(dp2468
g72
(dp2469
g92
g93
ssg81
g2463
sg74
(lp2470
S'HTTP_HOST'
p2471
asbag67
(g88
g69
NtRp2472
(dp2473
g72
(dp2474
g99
g100
ssg81
g2463
sg74
(lp2475
S':'
asbag67
(g88
g69
NtRp2476
(dp2477
g72
(dp2478
sg81
g2463
sg74
(lp2479
g67
(g68
g69
NtRp2480
(dp2481
g72
(dp2482
g80
I3
ssg81
g2476
sg74
(lp2483
g814
asbasbasbag67
(g83
g69
NtRp2484
(dp2485
g72
(dp2486
sg81
g2270
sg74
(lp2487
g67
(g88
g69
NtRp2488
(dp2489
g72
(dp2490
g92
g93
ssg81
g2484
sg74
(lp2491
S'HTTP_REFERER'
p2492
asbag67
(g88
g69
NtRp2493
(dp2494
g72
(dp2495
g99
g100
ssg81
g2484
sg74
(lp2496
S':'
asbag67
(g88
g69
NtRp2497
(dp2498
g72
(dp2499
sg81
g2484
sg74
(lp2500
g67
(g68
g69
NtRp2501
(dp2502
g72
(dp2503
g80
I3
ssg81
g2497
sg74
(lp2504
g836
asbasbasbag67
(g83
g69
NtRp2505
(dp2506
g72
(dp2507
sg81
g2270
sg74
(lp2508
g67
(g88
g69
NtRp2509
(dp2510
g72
(dp2511
g92
g93
ssg81
g2505
sg74
(lp2512
S'HTTP_USER_AGENT'
p2513
asbag67
(g88
g69
NtRp2514
(dp2515
g72
(dp2516
g99
g100
ssg81
g2505
sg74
(lp2517
S':'
asbag67
(g88
g69
NtRp2518
(dp2519
g72
(dp2520
sg81
g2505
sg74
(lp2521
g67
(g68
g69
NtRp2522
(dp2523
g72
(dp2524
g80
I3
ssg81
g2518
sg74
(lp2525
g858
asbasbasbag67
(g83
g69
NtRp2526
(dp2527
g72
(dp2528
sg81
g2270
sg74
(lp2529
g67
(g88
g69
NtRp2530
(dp2531
g72
(dp2532
g92
g93
ssg81
g2526
sg74
(lp2533
S'HTTP_VIA'
p2534
asbag67
(g88
g69
NtRp2535
(dp2536
g72
(dp2537
g99
g100
ssg81
g2526
sg74
(lp2538
S':'
asbag67
(g88
g69
NtRp2539
(dp2540
g72
(dp2541
sg81
g2526
sg74
(lp2542
g67
(g68
g69
NtRp2543
(dp2544
g72
(dp2545
g80
I3
ssg81
g2539
sg74
(lp2546
g880
asbasbasbag67
(g83
g69
NtRp2547
(dp2548
g72
(dp2549
sg81
g2270
sg74
(lp2550
g67
(g88
g69
NtRp2551
(dp2552
g72
(dp2553
g92
g93
ssg81
g2547
sg74
(lp2554
S'HTTP_X_FORWARDED_FOR'
p2555
asbag67
(g88
g69
NtRp2556
(dp2557
g72
(dp2558
g99
g100
ssg81
g2547
sg74
(lp2559
S':'
asbag67
(g88
g69
NtRp2560
(dp2561
g72
(dp2562
sg81
g2547
sg74
(lp2563
g67
(g68
g69
NtRp2564
(dp2565
g72
(dp2566
g80
I3
ssg81
g2560
sg74
(lp2567
g222
asbasbasbag67
(g83
g69
NtRp2568
(dp2569
g72
(dp2570
sg81
g2270
sg74
(lp2571
g67
(g88
g69
NtRp2572
(dp2573
g72
(dp2574
g92
g93
ssg81
g2568
sg74
(lp2575
S'PATH_INFO'
p2576
asbag67
(g88
g69
NtRp2577
(dp2578
g72
(dp2579
g99
g100
ssg81
g2568
sg74
(lp2580
S':'
asbag67
(g88
g69
NtRp2581
(dp2582
g72
(dp2583
sg81
g2568
sg74
(lp2584
g67
(g68
g69
NtRp2585
(dp2586
g72
(dp2587
g80
I3
ssg81
g2581
sg74
(lp2588
g1029
asbasbasbag67
(g83
g69
NtRp2589
(dp2590
g72
(dp2591
sg81
g2270
sg74
(lp2592
g67
(g88
g69
NtRp2593
(dp2594
g72
(dp2595
g92
g93
ssg81
g2589
sg74
(lp2596
S'QUERY_STRING'
p2597
asbag67
(g88
g69
NtRp2598
(dp2599
g72
(dp2600
g99
g100
ssg81
g2589
sg74
(lp2601
S':'
asbag67
(g88
g69
NtRp2602
(dp2603
g72
(dp2604
sg81
g2589
sg74
(lp2605
g67
(g68
g69
NtRp2606
(dp2607
g72
(dp2608
g80
I3
ssg81
g2602
sg74
(lp2609
S''
asbasbasbag67
(g83
g69
NtRp2610
(dp2611
g72
(dp2612
sg81
g2270
sg74
(lp2613
g67
(g88
g69
NtRp2614
(dp2615
g72
(dp2616
g92
g93
ssg81
g2610
sg74
(lp2617
S'REMOTE_ADDR'
p2618
asbag67
(g88
g69
NtRp2619
(dp2620
g72
(dp2621
g99
g100
ssg81
g2610
sg74
(lp2622
S':'
asbag67
(g88
g69
NtRp2623
(dp2624
g72
(dp2625
sg81
g2610
sg74
(lp2626
g67
(g68
g69
NtRp2627
(dp2628
g72
(dp2629
g80
I3
ssg81
g2623
sg74
(lp2630
g1072
asbasbasbag67
(g83
g69
NtRp2631
(dp2632
g72
(dp2633
sg81
g2270
sg74
(lp2634
g67
(g88
g69
NtRp2635
(dp2636
g72
(dp2637
g92
g93
ssg81
g2631
sg74
(lp2638
S'REMOTE_PORT'
p2639
asbag67
(g88
g69
NtRp2640
(dp2641
g72
(dp2642
g99
g100
ssg81
g2631
sg74
(lp2643
S':'
asbag67
(g88
g69
NtRp2644
(dp2645
g72
(dp2646
sg81
g2631
sg74
(lp2647
g67
(g68
g69
NtRp2648
(dp2649
g72
(dp2650
g80
I3
ssg81
g2644
sg74
(lp2651
g1094
asbasbasbag67
(g83
g69
NtRp2652
(dp2653
g72
(dp2654
sg81
g2270
sg74
(lp2655
g67
(g88
g69
NtRp2656
(dp2657
g72
(dp2658
g92
g93
ssg81
g2652
sg74
(lp2659
S'REQUEST_METHOD'
p2660
asbag67
(g88
g69
NtRp2661
(dp2662
g72
(dp2663
g99
g100
ssg81
g2652
sg74
(lp2664
S':'
asbag67
(g88
g69
NtRp2665
(dp2666
g72
(dp2667
sg81
g2652
sg74
(lp2668
g67
(g68
g69
NtRp2669
(dp2670
g72
(dp2671
g80
I3
ssg81
g2665
sg74
(lp2672
g1116
asbasbasbag67
(g83
g69
NtRp2673
(dp2674
g72
(dp2675
sg81
g2270
sg74
(lp2676
g67
(g88
g69
NtRp2677
(dp2678
g72
(dp2679
g92
g93
ssg81
g2673
sg74
(lp2680
S'REQUEST_URI'
p2681
asbag67
(g88
g69
NtRp2682
(dp2683
g72
(dp2684
g99
g100
ssg81
g2673
sg74
(lp2685
S':'
asbag67
(g88
g69
NtRp2686
(dp2687
g72
(dp2688
sg81
g2673
sg74
(lp2689
g67
(g68
g69
NtRp2690
(dp2691
g72
(dp2692
g80
I3
ssg81
g2686
sg74
(lp2693
g1138
asbasbasbag67
(g83
g69
NtRp2694
(dp2695
g72
(dp2696
sg81
g2270
sg74
(lp2697
g67
(g88
g69
NtRp2698
(dp2699
g72
(dp2700
g92
g93
ssg81
g2694
sg74
(lp2701
S'SCRIPT_NAME'
p2702
asbag67
(g88
g69
NtRp2703
(dp2704
g72
(dp2705
g99
g100
ssg81
g2694
sg74
(lp2706
S':'
asbag67
(g88
g69
NtRp2707
(dp2708
g72
(dp2709
sg81
g2694
sg74
(lp2710
g67
(g68
g69
NtRp2711
(dp2712
g72
(dp2713
g80
I3
ssg81
g2707
sg74
(lp2714
S''
asbasbasbag67
(g83
g69
NtRp2715
(dp2716
g72
(dp2717
sg81
g2270
sg74
(lp2718
g67
(g88
g69
NtRp2719
(dp2720
g72
(dp2721
g92
g93
ssg81
g2715
sg74
(lp2722
S'SERVER_NAME'
p2723
asbag67
(g88
g69
NtRp2724
(dp2725
g72
(dp2726
g99
g100
ssg81
g2715
sg74
(lp2727
S':'
asbag67
(g88
g69
NtRp2728
(dp2729
g72
(dp2730
sg81
g2715
sg74
(lp2731
g67
(g68
g69
NtRp2732
(dp2733
g72
(dp2734
g80
I3
ssg81
g2728
sg74
(lp2735
g1181
asbasbasbag67
(g83
g69
NtRp2736
(dp2737
g72
(dp2738
sg81
g2270
sg74
(lp2739
g67
(g88
g69
NtRp2740
(dp2741
g72
(dp2742
g92
g93
ssg81
g2736
sg74
(lp2743
S'SERVER_PORT'
p2744
asbag67
(g88
g69
NtRp2745
(dp2746
g72
(dp2747
g99
g100
ssg81
g2736
sg74
(lp2748
S':'
asbag67
(g88
g69
NtRp2749
(dp2750
g72
(dp2751
sg81
g2736
sg74
(lp2752
g67
(g68
g69
NtRp2753
(dp2754
g72
(dp2755
g80
I3
ssg81
g2749
sg74
(lp2756
g1203
asbasbasbag67
(g83
g69
NtRp2757
(dp2758
g72
(dp2759
sg81
g2270
sg74
(lp2760
g67
(g88
g69
NtRp2761
(dp2762
g72
(dp2763
g92
g93
ssg81
g2757
sg74
(lp2764
S'SERVER_PROTOCOL'
p2765
asbag67
(g88
g69
NtRp2766
(dp2767
g72
(dp2768
g99
g100
ssg81
g2757
sg74
(lp2769
S':'
asbag67
(g88
g69
NtRp2770
(dp2771
g72
(dp2772
sg81
g2757
sg74
(lp2773
g67
(g68
g69
NtRp2774
(dp2775
g72
(dp2776
g80
I3
ssg81
g2770
sg74
(lp2777
g1225
asbasbasbag67
(g83
g69
NtRp2778
(dp2779
g72
(dp2780
sg81
g2270
sg74
(lp2781
g67
(g88
g69
NtRp2782
(dp2783
g72
(dp2784
g92
g93
ssg81
g2778
sg74
(lp2785
S'uwsgi.node'
p2786
asbag67
(g88
g69
NtRp2787
(dp2788
g72
(dp2789
g99
g100
ssg81
g2778
sg74
(lp2790
S':'
asbag67
(g88
g69
NtRp2791
(dp2792
g72
(dp2793
sg81
g2778
sg74
(lp2794
g67
(g68
g69
NtRp2795
(dp2796
g72
(dp2797
g80
I3
ssg81
g2791
sg74
(lp2798
g1247
asbasbasbag67
(g83
g69
NtRp2799
(dp2800
g72
(dp2801
sg81
g2270
sg74
(lp2802
g67
(g88
g69
NtRp2803
(dp2804
g72
(dp2805
g92
g93
ssg81
g2799
sg74
(lp2806
S'uwsgi.version'
p2807
asbag67
(g88
g69
NtRp2808
(dp2809
g72
(dp2810
g99
g100
ssg81
g2799
sg74
(lp2811
S':'
asbag67
(g88
g69
NtRp2812
(dp2813
g72
(dp2814
sg81
g2799
sg74
(lp2815
g67
(g68
g69
NtRp2816
(dp2817
g72
(dp2818
g80
I3
ssg81
g2812
sg74
(lp2819
g1269
asbasbasbag67
(g83
g69
NtRp2820
(dp2821
g72
(dp2822
sg81
g2270
sg74
(lp2823
g67
(g88
g69
NtRp2824
(dp2825
g72
(dp2826
g92
g93
ssg81
g2820
sg74
(lp2827
S'wsgi.errors'
p2828
asbag67
(g88
g69
NtRp2829
(dp2830
g72
(dp2831
g99
g100
ssg81
g2820
sg74
(lp2832
S':'
asbag67
(g88
g69
NtRp2833
(dp2834
g72
(dp2835
sg81
g2820
sg74
(lp2836
g67
(g68
g69
NtRp2837
(dp2838
g72
(dp2839
g80
I3
ssg81
g2833
sg74
(lp2840
S'<uwsgi_file__bin_user_wsgi_wrapper.ErrorLogWrapper object at 0x2b07ed0>'
p2841
asbasbasbag67
(g83
g69
NtRp2842
(dp2843
g72
(dp2844
sg81
g2270
sg74
(lp2845
g67
(g88
g69
NtRp2846
(dp2847
g72
(dp2848
g92
g93
ssg81
g2842
sg74
(lp2849
S'wsgi.file_wrapper'
p2850
asbag67
(g88
g69
NtRp2851
(dp2852
g72
(dp2853
g99
g100
ssg81
g2842
sg74
(lp2854
S':'
asbag67
(g88
g69
NtRp2855
(dp2856
g72
(dp2857
sg81
g2842
sg74
(lp2858
g67
(g68
g69
NtRp2859
(dp2860
g72
(dp2861
g80
I3
ssg81
g2855
sg74
(lp2862
S'<built-in function uwsgi_sendfile>'
p2863
asbasbasbag67
(g83
g69
NtRp2864
(dp2865
g72
(dp2866
sg81
g2270
sg74
(lp2867
g67
(g88
g69
NtRp2868
(dp2869
g72
(dp2870
g92
g93
ssg81
g2864
sg74
(lp2871
S'wsgi.input'
p2872
asbag67
(g88
g69
NtRp2873
(dp2874
g72
(dp2875
g99
g100
ssg81
g2864
sg74
(lp2876
S':'
asbag67
(g88
g69
NtRp2877
(dp2878
g72
(dp2879
sg81
g2864
sg74
(lp2880
g67
(g68
g69
NtRp2881
(dp2882
g72
(dp2883
g80
I3
ssg81
g2877
sg74
(lp2884
S'<cStringIO.StringO object at 0x2cdc7a0>'
p2885
asbasbasbag67
(g83
g69
NtRp2886
(dp2887
g72
(dp2888
sg81
g2270
sg74
(lp2889
g67
(g88
g69
NtRp2890
(dp2891
g72
(dp2892
g92
g93
ssg81
g2886
sg74
(lp2893
S'wsgi.multiprocess'
p2894
asbag67
(g88
g69
NtRp2895
(dp2896
g72
(dp2897
g99
g100
ssg81
g2886
sg74
(lp2898
S':'
asbag67
(g88
g69
NtRp2899
(dp2900
g72
(dp2901
sg81
g2886
sg74
(lp2902
g67
(g68
g69
NtRp2903
(dp2904
g72
(dp2905
g80
I3
ssg81
g2899
sg74
(lp2906
g110
asbasbasbag67
(g83
g69
NtRp2907
(dp2908
g72
(dp2909
sg81
g2270
sg74
(lp2910
g67
(g88
g69
NtRp2911
(dp2912
g72
(dp2913
g92
g93
ssg81
g2907
sg74
(lp2914
S'wsgi.multithread'
p2915
asbag67
(g88
g69
NtRp2916
(dp2917
g72
(dp2918
g99
g100
ssg81
g2907
sg74
(lp2919
S':'
asbag67
(g88
g69
NtRp2920
(dp2921
g72
(dp2922
sg81
g2907
sg74
(lp2923
g67
(g68
g69
NtRp2924
(dp2925
g72
(dp2926
g80
I3
ssg81
g2920
sg74
(lp2927
g110
asbasbasbag67
(g83
g69
NtRp2928
(dp2929
g72
(dp2930
sg81
g2270
sg74
(lp2931
g67
(g88
g69
NtRp2932
(dp2933
g72
(dp2934
g92
g93
ssg81
g2928
sg74
(lp2935
S'wsgi.run_once'
p2936
asbag67
(g88
g69
NtRp2937
(dp2938
g72
(dp2939
g99
g100
ssg81
g2928
sg74
(lp2940
S':'
asbag67
(g88
g69
NtRp2941
(dp2942
g72
(dp2943
sg81
g2928
sg74
(lp2944
g67
(g68
g69
NtRp2945
(dp2946
g72
(dp2947
g80
I3
ssg81
g2941
sg74
(lp2948
g110
asbasbasbag67
(g83
g69
NtRp2949
(dp2950
g72
(dp2951
sg81
g2270
sg74
(lp2952
g67
(g88
g69
NtRp2953
(dp2954
g72
(dp2955
g92
g93
ssg81
g2949
sg74
(lp2956
S'wsgi.url_scheme'
p2957
asbag67
(g88
g69
NtRp2958
(dp2959
g72
(dp2960
g99
g100
ssg81
g2949
sg74
(lp2961
S':'
asbag67
(g88
g69
NtRp2962
(dp2963
g72
(dp2964
sg81
g2949
sg74
(lp2965
g67
(g68
g69
NtRp2966
(dp2967
g72
(dp2968
g80
I3
ssg81
g2962
sg74
(lp2969
g1528
asbasbasbag67
(g83
g69
NtRp2970
(dp2971
g72
(dp2972
sg81
g2270
sg74
(lp2973
g67
(g88
g69
NtRp2974
(dp2975
g72
(dp2976
g92
g93
ssg81
g2970
sg74
(lp2977
S'wsgi.version'
p2978
asbag67
(g88
g69
NtRp2979
(dp2980
g72
(dp2981
g99
g100
ssg81
g2970
sg74
(lp2982
S':'
asbag67
(g88
g69
NtRp2983
(dp2984
g72
(dp2985
sg81
g2970
sg74
(lp2986
g67
(g68
g69
NtRp2987
(dp2988
g72
(dp2989
g80
I3
ssg81
g2983
sg74
(lp2990
S'1'
asbasbasbasbasbasbasbasbasbasbasbasbasbsS'frames'
p2991
(lp2992
(dp2993
S'file'
p2994
S'/home/rsoutelino/web2py/gluon/restricted.py'
p2995
sS'dump'
p2996
(dp2997
S'code'
p2998
S"'\\ndef contact():\\n    form = SQLFORM(db.contacts)\\n...m=form)\\nresponse._vars=response._caller(contact)\\n'"
p2999
sS'layer'
p3000
S"'/home/rsoutelino/web2py/applications/rsoutelino/controllers/contact.py'"
p3001
sS'global compile2'
p3002
S'<function compile2>'
p3003
sS'ccode'
p3004
S'undefined'
p3005
ssS'lnum'
p3006
I211
sS'lines'
p3007
(dp3008
I206
S"    environment['__name__'] = '__restricted__'"
p3009
sI207
S'    try:'
p3010
sI208
S'        if isinstance(code, types.CodeType):'
p3011
sI209
S'            ccode = code'
p3012
sI210
S'        else:'
p3013
sI211
S'            ccode = compile2(code, layer)'
p3014
sI212
S'        exec ccode in environment'
p3015
sI213
S'    except HTTP:'
p3016
sI214
S'        raise'
p3017
sI215
S'    except RestrictedError:'
p3018
ssS'call'
p3019
S"(code='\\ndef contact():\\n    form = SQLFORM(db.contacts)\\n...m=form)\\nresponse._vars=response._caller(contact)\\n', environment={'A': <class 'gluon.html.A'>, 'Auth': <class 'gluon.tools.Auth'>, 'B': <class 'gluon.html.B'>, 'BEAUTIFY': <class 'gluon.html.BEAUTIFY'>, 'BODY': <class 'gluon.html.BODY'>, 'BR': <class 'gluon.html.BR'>, 'BUTTON': <class 'gluon.html.BUTTON'>, 'CAT': <class 'gluon.html.CAT'>, 'CENTER': <class 'gluon.html.CENTER'>, 'CLEANUP': <class 'gluon.validators.CLEANUP'>, ...}, layer='/home/rsoutelino/web2py/applications/rsoutelino/controllers/contact.py')"
p3020
sS'func'
p3021
S'restricted'
p3022
sa(dp3023
g2994
S'/home/rsoutelino/web2py/gluon/restricted.py'
p3024
sg2996
(dp3025
S'builtincompile'
p3026
S'<built-in function compile>'
p3027
sS'code'
p3028
S"'\\ndef contact():\\n    form = SQLFORM(db.contacts)\\n...m=form)\\nresponse._vars=response._caller(contact)\\n'"
p3029
sS'code.rstrip'
p3030
S'<built-in method rstrip of str object>'
p3031
sS').replace'
p3032
g3005
sS'layer'
p3033
S"'/home/rsoutelino/web2py/applications/rsoutelino/controllers/contact.py'"
p3034
ssg3006
I194
sg3007
(dp3035
I192
S"    The +'\\n' is necessary else compile fails when code ends in a comment."
p3036
sI193
S'    """'
p3037
sI194
S"    return compile(code.rstrip().replace('\\r\\n', '\\n') + '\\n', layer, 'exec')"
p3038
sI195
S''
sI196
S''
sI197
S"def restricted(code, environment=None, layer='Unknown'):"
p3039
sI198
S'    """'
p3040
sI189
S''
sI190
S'def compile2(code, layer):'
p3041
sI191
S'    """'
p3042
ssg3019
S"(code='\\ndef contact():\\n    form = SQLFORM(db.contacts)\\n...m=form)\\nresponse._vars=response._caller(contact)\\n', layer='/home/rsoutelino/web2py/applications/rsoutelino/controllers/contact.py')"
p3043
sg3021
S'compile2'
p3044
sasS'pyver'
p3045
S'Python 2.7.3: /usr/local/bin/uwsgi'
p3046
sS'session'
p3047
g67
(g68
g69
NtRp3048
(dp3049
g72
(dp3050
sg74
(lp3051
g67
(g76
g69
NtRp3052
(dp3053
g72
(dp3054
g80
I5
ssg81
Nsg74
(lp3055
sbasbsS'etype'
p3056
S"<type 'exceptions.IndentationError'>"
p3057
sS'date'
p3058
S'Thu Feb  7 12:10:34 2013'
p3059
sS'response'
p3060
g67
(g68
g69
NtRp3061
(dp3062
g72
(dp3063
sg74
(lp3064
g67
(g76
g69
NtRp3065
(dp3066
g72
(dp3067
g80
I5
ssg81
Nsg74
(lp3068
g67
(g83
g69
NtRp3069
(dp3070
g72
(dp3071
sg81
g3065
sg74
(lp3072
g67
(g88
g69
NtRp3073
(dp3074
g72
(dp3075
g92
g93
ssg81
g3069
sg74
(lp3076
g165
asbag67
(g88
g69
NtRp3077
(dp3078
g72
(dp3079
g99
g100
ssg81
g3069
sg74
(lp3080
S':'
asbag67
(g88
g69
NtRp3081
(dp3082
g72
(dp3083
sg81
g3069
sg74
(lp3084
g67
(g68
g69
NtRp3085
(dp3086
g72
(dp3087
g80
I5
ssg81
g3081
sg74
(lp3088
S'<cStringIO.StringO object at 0x2cdc650>'
p3089
asbasbasbag67
(g83
g69
NtRp3090
(dp3091
g72
(dp3092
sg81
g3065
sg74
(lp3093
g67
(g88
g69
NtRp3094
(dp3095
g72
(dp3096
g92
g93
ssg81
g3090
sg74
(lp3097
g253
asbag67
(g88
g69
NtRp3098
(dp3099
g72
(dp3100
g99
g100
ssg81
g3090
sg74
(lp3101
S':'
asbag67
(g88
g69
NtRp3102
(dp3103
g72
(dp3104
sg81
g3090
sg74
(lp3105
g67
(g68
g69
NtRp3106
(dp3107
g72
(dp3108
g80
I5
ssg81
g3102
sg74
(lp3109
g67
(g76
g69
NtRp3110
(dp3111
g72
(dp3112
g80
I4
ssg81
Nsg74
(lp3113
g67
(g83
g69
NtRp3114
(dp3115
g72
(dp3116
sg81
g3110
sg74
(lp3117
g67
(g88
g69
NtRp3118
(dp3119
g72
(dp3120
g92
g93
ssg81
g3114
sg74
(lp3121
S'session_id_rsoutelino'
p3122
asbag67
(g88
g69
NtRp3123
(dp3124
g72
(dp3125
g99
g100
ssg81
g3114
sg74
(lp3126
S':'
asbag67
(g88
g69
NtRp3127
(dp3128
g72
(dp3129
sg81
g3114
sg74
(lp3130
g67
(g68
g69
NtRp3131
(dp3132
g72
(dp3133
g80
I4
ssg81
g3127
sg74
(lp3134
S'172.30.6.206-f4bcaa37-6e9d-44b0-844a-420d17460493'
p3135
ag67
(g76
g69
NtRp3136
(dp3137
g72
(dp3138
g80
I3
ssg81
Nsg74
(lp3139
g67
(g83
g69
NtRp3140
(dp3141
g72
(dp3142
sg81
g3136
sg74
(lp3143
g67
(g88
g69
NtRp3144
(dp3145
g72
(dp3146
g92
g93
ssg81
g3140
sg74
(lp3147
g304
asbag67
(g88
g69
NtRp3148
(dp3149
g72
(dp3150
g99
g100
ssg81
g3140
sg74
(lp3151
S':'
asbag67
(g88
g69
NtRp3152
(dp3153
g72
(dp3154
sg81
g3140
sg74
(lp3155
g67
(g68
g69
NtRp3156
(dp3157
g72
(dp3158
g80
I3
ssg81
g3152
sg74
(lp3159
S''
asbasbasbag67
(g83
g69
NtRp3160
(dp3161
g72
(dp3162
sg81
g3136
sg74
(lp3163
g67
(g88
g69
NtRp3164
(dp3165
g72
(dp3166
g92
g93
ssg81
g3160
sg74
(lp3167
g325
asbag67
(g88
g69
NtRp3168
(dp3169
g72
(dp3170
g99
g100
ssg81
g3160
sg74
(lp3171
S':'
asbag67
(g88
g69
NtRp3172
(dp3173
g72
(dp3174
sg81
g3160
sg74
(lp3175
g67
(g68
g69
NtRp3176
(dp3177
g72
(dp3178
g80
I3
ssg81
g3172
sg74
(lp3179
S''
asbasbasbag67
(g83
g69
NtRp3180
(dp3181
g72
(dp3182
sg81
g3136
sg74
(lp3183
g67
(g88
g69
NtRp3184
(dp3185
g72
(dp3186
g92
g93
ssg81
g3180
sg74
(lp3187
g346
asbag67
(g88
g69
NtRp3188
(dp3189
g72
(dp3190
g99
g100
ssg81
g3180
sg74
(lp3191
S':'
asbag67
(g88
g69
NtRp3192
(dp3193
g72
(dp3194
sg81
g3180
sg74
(lp3195
g67
(g68
g69
NtRp3196
(dp3197
g72
(dp3198
g80
I3
ssg81
g3192
sg74
(lp3199
S''
asbasbasbag67
(g83
g69
NtRp3200
(dp3201
g72
(dp3202
sg81
g3136
sg74
(lp3203
g67
(g88
g69
NtRp3204
(dp3205
g72
(dp3206
g92
g93
ssg81
g3200
sg74
(lp3207
g367
asbag67
(g88
g69
NtRp3208
(dp3209
g72
(dp3210
g99
g100
ssg81
g3200
sg74
(lp3211
S':'
asbag67
(g88
g69
NtRp3212
(dp3213
g72
(dp3214
sg81
g3200
sg74
(lp3215
g67
(g68
g69
NtRp3216
(dp3217
g72
(dp3218
g80
I3
ssg81
g3212
sg74
(lp3219
S''
asbasbasbag67
(g83
g69
NtRp3220
(dp3221
g72
(dp3222
sg81
g3136
sg74
(lp3223
g67
(g88
g69
NtRp3224
(dp3225
g72
(dp3226
g92
g93
ssg81
g3220
sg74
(lp3227
g388
asbag67
(g88
g69
NtRp3228
(dp3229
g72
(dp3230
g99
g100
ssg81
g3220
sg74
(lp3231
S':'
asbag67
(g88
g69
NtRp3232
(dp3233
g72
(dp3234
sg81
g3220
sg74
(lp3235
g67
(g68
g69
NtRp3236
(dp3237
g72
(dp3238
g80
I3
ssg81
g3232
sg74
(lp3239
S''
asbasbasbag67
(g83
g69
NtRp3240
(dp3241
g72
(dp3242
sg81
g3136
sg74
(lp3243
g67
(g88
g69
NtRp3244
(dp3245
g72
(dp3246
g92
g93
ssg81
g3240
sg74
(lp3247
g409
asbag67
(g88
g69
NtRp3248
(dp3249
g72
(dp3250
g99
g100
ssg81
g3240
sg74
(lp3251
S':'
asbag67
(g88
g69
NtRp3252
(dp3253
g72
(dp3254
sg81
g3240
sg74
(lp3255
g67
(g68
g69
NtRp3256
(dp3257
g72
(dp3258
g80
I3
ssg81
g3252
sg74
(lp3259
S'/'
asbasbasbag67
(g83
g69
NtRp3260
(dp3261
g72
(dp3262
sg81
g3136
sg74
(lp3263
g67
(g88
g69
NtRp3264
(dp3265
g72
(dp3266
g92
g93
ssg81
g3260
sg74
(lp3267
g430
asbag67
(g88
g69
NtRp3268
(dp3269
g72
(dp3270
g99
g100
ssg81
g3260
sg74
(lp3271
S':'
asbag67
(g88
g69
NtRp3272
(dp3273
g72
(dp3274
sg81
g3260
sg74
(lp3275
g67
(g68
g69
NtRp3276
(dp3277
g72
(dp3278
g80
I3
ssg81
g3272
sg74
(lp3279
S''
asbasbasbag67
(g83
g69
NtRp3280
(dp3281
g72
(dp3282
sg81
g3136
sg74
(lp3283
g67
(g88
g69
NtRp3284
(dp3285
g72
(dp3286
g92
g93
ssg81
g3280
sg74
(lp3287
g451
asbag67
(g88
g69
NtRp3288
(dp3289
g72
(dp3290
g99
g100
ssg81
g3280
sg74
(lp3291
S':'
asbag67
(g88
g69
NtRp3292
(dp3293
g72
(dp3294
sg81
g3280
sg74
(lp3295
g67
(g68
g69
NtRp3296
(dp3297
g72
(dp3298
g80
I3
ssg81
g3292
sg74
(lp3299
S''
asbasbasbasbasbasbasbasbasbasbasbag67
(g83
g69
NtRp3300
(dp3301
g72
(dp3302
sg81
g3065
sg74
(lp3303
g67
(g88
g69
NtRp3304
(dp3305
g72
(dp3306
g92
g93
ssg81
g3300
sg74
(lp3307
S'delimiters'
p3308
asbag67
(g88
g69
NtRp3309
(dp3310
g72
(dp3311
g99
g100
ssg81
g3300
sg74
(lp3312
S':'
asbag67
(g88
g69
NtRp3313
(dp3314
g72
(dp3315
sg81
g3300
sg74
(lp3316
g67
(g68
g69
NtRp3317
(dp3318
g72
(dp3319
g80
I5
ssg81
g3313
sg74
(lp3320
g67
(g76
g69
NtRp3321
(dp3322
g72
(dp3323
g80
I4
ssg81
Nsg74
(lp3324
g67
(g83
g69
NtRp3325
(dp3326
g72
(dp3327
sg81
g3321
sg74
(lp3328
g67
(g88
g69
NtRp3329
(dp3330
g72
(dp3331
sg81
g3325
sg74
(lp3332
g67
(g68
g69
NtRp3333
(dp3334
g72
(dp3335
g80
I4
ssg81
g3329
sg74
(lp3336
S'{{'
p3337
asbasbasbag67
(g83
g69
NtRp3338
(dp3339
g72
(dp3340
sg81
g3321
sg74
(lp3341
g67
(g88
g69
NtRp3342
(dp3343
g72
(dp3344
sg81
g3338
sg74
(lp3345
g67
(g68
g69
NtRp3346
(dp3347
g72
(dp3348
g80
I4
ssg81
g3342
sg74
(lp3349
S'}}'
p3350
asbasbasbasbasbasbasbag67
(g83
g69
NtRp3351
(dp3352
g72
(dp3353
sg81
g3065
sg74
(lp3354
g67
(g88
g69
NtRp3355
(dp3356
g72
(dp3357
g92
g93
ssg81
g3351
sg74
(lp3358
S'files'
p3359
asbag67
(g88
g69
NtRp3360
(dp3361
g72
(dp3362
g99
g100
ssg81
g3351
sg74
(lp3363
S':'
asbag67
(g88
g69
NtRp3364
(dp3365
g72
(dp3366
sg81
g3351
sg74
(lp3367
g67
(g68
g69
NtRp3368
(dp3369
g72
(dp3370
g80
I5
ssg81
g3364
sg74
(lp3371
g67
(g76
g69
NtRp3372
(dp3373
g72
(dp3374
g80
I4
ssg81
Nsg74
(lp3375
sbasbasbasbag67
(g83
g69
NtRp3376
(dp3377
g72
(dp3378
sg81
g3065
sg74
(lp3379
g67
(g88
g69
NtRp3380
(dp3381
g72
(dp3382
g92
g93
ssg81
g3376
sg74
(lp3383
S'flash'
p3384
asbag67
(g88
g69
NtRp3385
(dp3386
g72
(dp3387
g99
g100
ssg81
g3376
sg74
(lp3388
S':'
asbag67
(g88
g69
NtRp3389
(dp3390
g72
(dp3391
sg81
g3376
sg74
(lp3392
g67
(g68
g69
NtRp3393
(dp3394
g72
(dp3395
g80
I5
ssg81
g3389
sg74
(lp3396
S''
asbasbasbag67
(g83
g69
NtRp3397
(dp3398
g72
(dp3399
sg81
g3065
sg74
(lp3400
g67
(g88
g69
NtRp3401
(dp3402
g72
(dp3403
g92
g93
ssg81
g3397
sg74
(lp3404
S'generic_patterns'
p3405
asbag67
(g88
g69
NtRp3406
(dp3407
g72
(dp3408
g99
g100
ssg81
g3397
sg74
(lp3409
S':'
asbag67
(g88
g69
NtRp3410
(dp3411
g72
(dp3412
sg81
g3397
sg74
(lp3413
g67
(g68
g69
NtRp3414
(dp3415
g72
(dp3416
g80
I5
ssg81
g3410
sg74
(lp3417
g67
(g76
g69
NtRp3418
(dp3419
g72
(dp3420
g80
I4
ssg81
Nsg74
(lp3421
g67
(g83
g69
NtRp3422
(dp3423
g72
(dp3424
sg81
g3418
sg74
(lp3425
g67
(g88
g69
NtRp3426
(dp3427
g72
(dp3428
sg81
g3422
sg74
(lp3429
g67
(g68
g69
NtRp3430
(dp3431
g72
(dp3432
g80
I4
ssg81
g3426
sg74
(lp3433
S'*'
asbasbasbasbasbasbasbag67
(g83
g69
NtRp3434
(dp3435
g72
(dp3436
sg81
g3065
sg74
(lp3437
g67
(g88
g69
NtRp3438
(dp3439
g72
(dp3440
g92
g93
ssg81
g3434
sg74
(lp3441
S'headers'
p3442
asbag67
(g88
g69
NtRp3443
(dp3444
g72
(dp3445
g99
g100
ssg81
g3434
sg74
(lp3446
S':'
asbag67
(g88
g69
NtRp3447
(dp3448
g72
(dp3449
sg81
g3434
sg74
(lp3450
g67
(g68
g69
NtRp3451
(dp3452
g72
(dp3453
g80
I5
ssg81
g3447
sg74
(lp3454
g67
(g76
g69
NtRp3455
(dp3456
g72
(dp3457
g80
I4
ssg81
Nsg74
(lp3458
g67
(g83
g69
NtRp3459
(dp3460
g72
(dp3461
sg81
g3455
sg74
(lp3462
g67
(g88
g69
NtRp3463
(dp3464
g72
(dp3465
g92
g93
ssg81
g3459
sg74
(lp3466
S'X-Powered-By'
p3467
asbag67
(g88
g69
NtRp3468
(dp3469
g72
(dp3470
g99
g100
ssg81
g3459
sg74
(lp3471
S':'
asbag67
(g88
g69
NtRp3472
(dp3473
g72
(dp3474
sg81
g3459
sg74
(lp3475
g67
(g68
g69
NtRp3476
(dp3477
g72
(dp3478
g80
I4
ssg81
g3472
sg74
(lp3479
S'web2py'
p3480
asbasbasbasbasbasbasbag67
(g83
g69
NtRp3481
(dp3482
g72
(dp3483
sg81
g3065
sg74
(lp3484
g67
(g88
g69
NtRp3485
(dp3486
g72
(dp3487
g92
g93
ssg81
g3481
sg74
(lp3488
S'menu'
p3489
asbag67
(g88
g69
NtRp3490
(dp3491
g72
(dp3492
g99
g100
ssg81
g3481
sg74
(lp3493
S':'
asbag67
(g88
g69
NtRp3494
(dp3495
g72
(dp3496
sg81
g3481
sg74
(lp3497
g67
(g68
g69
NtRp3498
(dp3499
g72
(dp3500
g80
I5
ssg81
g3494
sg74
(lp3501
g67
(g76
g69
NtRp3502
(dp3503
g72
(dp3504
g80
I4
ssg81
Nsg74
(lp3505
sbasbasbasbag67
(g83
g69
NtRp3506
(dp3507
g72
(dp3508
sg81
g3065
sg74
(lp3509
g67
(g88
g69
NtRp3510
(dp3511
g72
(dp3512
g92
g93
ssg81
g3506
sg74
(lp3513
S'meta'
p3514
asbag67
(g88
g69
NtRp3515
(dp3516
g72
(dp3517
g99
g100
ssg81
g3506
sg74
(lp3518
S':'
asbag67
(g88
g69
NtRp3519
(dp3520
g72
(dp3521
sg81
g3506
sg74
(lp3522
g67
(g68
g69
NtRp3523
(dp3524
g72
(dp3525
g80
I5
ssg81
g3519
sg74
(lp3526
g67
(g76
g69
NtRp3527
(dp3528
g72
(dp3529
g80
I4
ssg81
Nsg74
(lp3530
g67
(g83
g69
NtRp3531
(dp3532
g72
(dp3533
sg81
g3527
sg74
(lp3534
g67
(g88
g69
NtRp3535
(dp3536
g72
(dp3537
g92
g93
ssg81
g3531
sg74
(lp3538
S'author'
p3539
asbag67
(g88
g69
NtRp3540
(dp3541
g72
(dp3542
g99
g100
ssg81
g3531
sg74
(lp3543
S':'
asbag67
(g88
g69
NtRp3544
(dp3545
g72
(dp3546
sg81
g3531
sg74
(lp3547
g67
(g68
g69
NtRp3548
(dp3549
g72
(dp3550
g80
I4
ssg81
g3544
sg74
(lp3551
S'Diego Miranda'
p3552
asbasbasbag67
(g83
g69
NtRp3553
(dp3554
g72
(dp3555
sg81
g3527
sg74
(lp3556
g67
(g88
g69
NtRp3557
(dp3558
g72
(dp3559
g92
g93
ssg81
g3553
sg74
(lp3560
S'copyright'
p3561
asbag67
(g88
g69
NtRp3562
(dp3563
g72
(dp3564
g99
g100
ssg81
g3553
sg74
(lp3565
S':'
asbag67
(g88
g69
NtRp3566
(dp3567
g72
(dp3568
sg81
g3553
sg74
(lp3569
g67
(g68
g69
NtRp3570
(dp3571
g72
(dp3572
g80
I4
ssg81
g3566
sg74
(lp3573
S'Copyright 2012'
p3574
asbasbasbag67
(g83
g69
NtRp3575
(dp3576
g72
(dp3577
sg81
g3527
sg74
(lp3578
g67
(g88
g69
NtRp3579
(dp3580
g72
(dp3581
g92
g93
ssg81
g3575
sg74
(lp3582
S'description'
p3583
asbag67
(g88
g69
NtRp3584
(dp3585
g72
(dp3586
g99
g100
ssg81
g3575
sg74
(lp3587
S':'
asbag67
(g88
g69
NtRp3588
(dp3589
g72
(dp3590
sg81
g3575
sg74
(lp3591
g67
(g68
g69
NtRp3592
(dp3593
g72
(dp3594
g80
I4
ssg81
g3588
sg74
(lp3595
S'Rafael App'
p3596
asbasbasbag67
(g83
g69
NtRp3597
(dp3598
g72
(dp3599
sg81
g3527
sg74
(lp3600
g67
(g88
g69
NtRp3601
(dp3602
g72
(dp3603
g92
g93
ssg81
g3597
sg74
(lp3604
S'generator'
p3605
asbag67
(g88
g69
NtRp3606
(dp3607
g72
(dp3608
g99
g100
ssg81
g3597
sg74
(lp3609
S':'
asbag67
(g88
g69
NtRp3610
(dp3611
g72
(dp3612
sg81
g3597
sg74
(lp3613
g67
(g68
g69
NtRp3614
(dp3615
g72
(dp3616
g80
I4
ssg81
g3610
sg74
(lp3617
S'web2py web framework'
p3618
asbasbasbag67
(g83
g69
NtRp3619
(dp3620
g72
(dp3621
sg81
g3527
sg74
(lp3622
g67
(g88
g69
NtRp3623
(dp3624
g72
(dp3625
g92
g93
ssg81
g3619
sg74
(lp3626
S'keywords'
p3627
asbag67
(g88
g69
NtRp3628
(dp3629
g72
(dp3630
g99
g100
ssg81
g3619
sg74
(lp3631
S':'
asbag67
(g88
g69
NtRp3632
(dp3633
g72
(dp3634
sg81
g3619
sg74
(lp3635
g67
(g68
g69
NtRp3636
(dp3637
g72
(dp3638
g80
I4
ssg81
g3632
sg74
(lp3639
S'web2py, python framework'
p3640
asbasbasbasbasbasbasbag67
(g83
g69
NtRp3641
(dp3642
g72
(dp3643
sg81
g3065
sg74
(lp3644
g67
(g88
g69
NtRp3645
(dp3646
g72
(dp3647
g92
g93
ssg81
g3641
sg74
(lp3648
S'models_to_run'
p3649
asbag67
(g88
g69
NtRp3650
(dp3651
g72
(dp3652
g99
g100
ssg81
g3641
sg74
(lp3653
S':'
asbag67
(g88
g69
NtRp3654
(dp3655
g72
(dp3656
sg81
g3641
sg74
(lp3657
g67
(g68
g69
NtRp3658
(dp3659
g72
(dp3660
g80
I5
ssg81
g3654
sg74
(lp3661
g67
(g76
g69
NtRp3662
(dp3663
g72
(dp3664
g80
I4
ssg81
Nsg74
(lp3665
g67
(g83
g69
NtRp3666
(dp3667
g72
(dp3668
sg81
g3662
sg74
(lp3669
g67
(g88
g69
NtRp3670
(dp3671
g72
(dp3672
sg81
g3666
sg74
(lp3673
g67
(g68
g69
NtRp3674
(dp3675
g72
(dp3676
g80
I4
ssg81
g3670
sg74
(lp3677
S'^\\w+\\.py$'
p3678
asbasbasbag67
(g83
g69
NtRp3679
(dp3680
g72
(dp3681
sg81
g3662
sg74
(lp3682
g67
(g88
g69
NtRp3683
(dp3684
g72
(dp3685
sg81
g3679
sg74
(lp3686
g67
(g68
g69
NtRp3687
(dp3688
g72
(dp3689
g80
I4
ssg81
g3683
sg74
(lp3690
S'^contact/\\w+\\.py$'
p3691
asbasbasbag67
(g83
g69
NtRp3692
(dp3693
g72
(dp3694
sg81
g3662
sg74
(lp3695
g67
(g88
g69
NtRp3696
(dp3697
g72
(dp3698
sg81
g3692
sg74
(lp3699
g67
(g68
g69
NtRp3700
(dp3701
g72
(dp3702
g80
I4
ssg81
g3696
sg74
(lp3703
S'^contact/contact/\\w+\\.py$'
p3704
asbasbasbasbasbasbasbag67
(g83
g69
NtRp3705
(dp3706
g72
(dp3707
sg81
g3065
sg74
(lp3708
g67
(g88
g69
NtRp3709
(dp3710
g72
(dp3711
g92
g93
ssg81
g3705
sg74
(lp3712
S'postprocessing'
p3713
asbag67
(g88
g69
NtRp3714
(dp3715
g72
(dp3716
g99
g100
ssg81
g3705
sg74
(lp3717
S':'
asbag67
(g88
g69
NtRp3718
(dp3719
g72
(dp3720
sg81
g3705
sg74
(lp3721
g67
(g68
g69
NtRp3722
(dp3723
g72
(dp3724
g80
I5
ssg81
g3718
sg74
(lp3725
g67
(g76
g69
NtRp3726
(dp3727
g72
(dp3728
g80
I4
ssg81
Nsg74
(lp3729
sbasbasbasbag67
(g83
g69
NtRp3730
(dp3731
g72
(dp3732
sg81
g3065
sg74
(lp3733
g67
(g88
g69
NtRp3734
(dp3735
g72
(dp3736
g92
g93
ssg81
g3730
sg74
(lp3737
S'session_cookie_expires'
p3738
asbag67
(g88
g69
NtRp3739
(dp3740
g72
(dp3741
g99
g100
ssg81
g3730
sg74
(lp3742
S':'
asbag67
(g88
g69
NtRp3743
(dp3744
g72
(dp3745
sg81
g3730
sg74
(lp3746
g67
(g68
g69
NtRp3747
(dp3748
g72
(dp3749
g80
I5
ssg81
g3743
sg74
(lp3750
S'None'
p3751
asbasbasbag67
(g83
g69
NtRp3752
(dp3753
g72
(dp3754
sg81
g3065
sg74
(lp3755
g67
(g88
g69
NtRp3756
(dp3757
g72
(dp3758
g92
g93
ssg81
g3752
sg74
(lp3759
S'session_data_name'
p3760
asbag67
(g88
g69
NtRp3761
(dp3762
g72
(dp3763
g99
g100
ssg81
g3752
sg74
(lp3764
S':'
asbag67
(g88
g69
NtRp3765
(dp3766
g72
(dp3767
sg81
g3752
sg74
(lp3768
g67
(g68
g69
NtRp3769
(dp3770
g72
(dp3771
g80
I5
ssg81
g3765
sg74
(lp3772
S'session_data_rsoutelino'
p3773
asbasbasbag67
(g83
g69
NtRp3774
(dp3775
g72
(dp3776
sg81
g3065
sg74
(lp3777
g67
(g88
g69
NtRp3778
(dp3779
g72
(dp3780
g92
g93
ssg81
g3774
sg74
(lp3781
S'session_filename'
p3782
asbag67
(g88
g69
NtRp3783
(dp3784
g72
(dp3785
g99
g100
ssg81
g3774
sg74
(lp3786
S':'
asbag67
(g88
g69
NtRp3787
(dp3788
g72
(dp3789
sg81
g3774
sg74
(lp3790
g67
(g68
g69
NtRp3791
(dp3792
g72
(dp3793
g80
I5
ssg81
g3787
sg74
(lp3794
S'/home/rsoutelino/web2py/applications/rsoutelino/sessions/172.30.6.206-f4bcaa37-6e9d-44b0-844a-420d17460493'
p3795
asbasbasbag67
(g83
g69
NtRp3796
(dp3797
g72
(dp3798
sg81
g3065
sg74
(lp3799
g67
(g88
g69
NtRp3800
(dp3801
g72
(dp3802
g92
g93
ssg81
g3796
sg74
(lp3803
S'session_id'
p3804
asbag67
(g88
g69
NtRp3805
(dp3806
g72
(dp3807
g99
g100
ssg81
g3796
sg74
(lp3808
S':'
asbag67
(g88
g69
NtRp3809
(dp3810
g72
(dp3811
sg81
g3796
sg74
(lp3812
g67
(g68
g69
NtRp3813
(dp3814
g72
(dp3815
g80
I5
ssg81
g3809
sg74
(lp3816
g3135
asbasbasbag67
(g83
g69
NtRp3817
(dp3818
g72
(dp3819
sg81
g3065
sg74
(lp3820
g67
(g88
g69
NtRp3821
(dp3822
g72
(dp3823
g92
g93
ssg81
g3817
sg74
(lp3824
S'session_id_name'
p3825
asbag67
(g88
g69
NtRp3826
(dp3827
g72
(dp3828
g99
g100
ssg81
g3817
sg74
(lp3829
S':'
asbag67
(g88
g69
NtRp3830
(dp3831
g72
(dp3832
sg81
g3817
sg74
(lp3833
g67
(g68
g69
NtRp3834
(dp3835
g72
(dp3836
g80
I5
ssg81
g3830
sg74
(lp3837
g3122
asbasbasbag67
(g83
g69
NtRp3838
(dp3839
g72
(dp3840
sg81
g3065
sg74
(lp3841
g67
(g88
g69
NtRp3842
(dp3843
g72
(dp3844
g92
g93
ssg81
g3838
sg74
(lp3845
S'session_new'
p3846
asbag67
(g88
g69
NtRp3847
(dp3848
g72
(dp3849
g99
g100
ssg81
g3838
sg74
(lp3850
S':'
asbag67
(g88
g69
NtRp3851
(dp3852
g72
(dp3853
sg81
g3838
sg74
(lp3854
g67
(g68
g69
NtRp3855
(dp3856
g72
(dp3857
g80
I5
ssg81
g3851
sg74
(lp3858
S'True'
p3859
asbasbasbag67
(g83
g69
NtRp3860
(dp3861
g72
(dp3862
sg81
g3065
sg74
(lp3863
g67
(g88
g69
NtRp3864
(dp3865
g72
(dp3866
g92
g93
ssg81
g3860
sg74
(lp3867
S'session_storage_type'
p3868
asbag67
(g88
g69
NtRp3869
(dp3870
g72
(dp3871
g99
g100
ssg81
g3860
sg74
(lp3872
S':'
asbag67
(g88
g69
NtRp3873
(dp3874
g72
(dp3875
sg81
g3860
sg74
(lp3876
g67
(g68
g69
NtRp3877
(dp3878
g72
(dp3879
g80
I5
ssg81
g3873
sg74
(lp3880
g2994
asbasbasbag67
(g83
g69
NtRp3881
(dp3882
g72
(dp3883
sg81
g3065
sg74
(lp3884
g67
(g88
g69
NtRp3885
(dp3886
g72
(dp3887
g92
g93
ssg81
g3881
sg74
(lp3888
S'status'
p3889
asbag67
(g88
g69
NtRp3890
(dp3891
g72
(dp3892
g99
g100
ssg81
g3881
sg74
(lp3893
S':'
asbag67
(g88
g69
NtRp3894
(dp3895
g72
(dp3896
sg81
g3881
sg74
(lp3897
g67
(g68
g69
NtRp3898
(dp3899
g72
(dp3900
g80
I5
ssg81
g3894
sg74
(lp3901
S'200'
p3902
asbasbasbag67
(g83
g69
NtRp3903
(dp3904
g72
(dp3905
sg81
g3065
sg74
(lp3906
g67
(g88
g69
NtRp3907
(dp3908
g72
(dp3909
g92
g93
ssg81
g3903
sg74
(lp3910
S'subtitle'
p3911
asbag67
(g88
g69
NtRp3912
(dp3913
g72
(dp3914
g99
g100
ssg81
g3903
sg74
(lp3915
S':'
asbag67
(g88
g69
NtRp3916
(dp3917
g72
(dp3918
sg81
g3903
sg74
(lp3919
g67
(g68
g69
NtRp3920
(dp3921
g72
(dp3922
g80
I5
ssg81
g3916
sg74
(lp3923
cgluon.languages
lazyT_unpickle
p3924
(S's\x10\x00\x00\x00Rafael Soutelino'
tRp3925
asbasbasbag67
(g83
g69
NtRp3926
(dp3927
g72
(dp3928
sg81
g3065
sg74
(lp3929
g67
(g88
g69
NtRp3930
(dp3931
g72
(dp3932
g92
g93
ssg81
g3926
sg74
(lp3933
S'title'
p3934
asbag67
(g88
g69
NtRp3935
(dp3936
g72
(dp3937
g99
g100
ssg81
g3926
sg74
(lp3938
S':'
asbag67
(g88
g69
NtRp3939
(dp3940
g72
(dp3941
sg81
g3926
sg74
(lp3942
g67
(g68
g69
NtRp3943
(dp3944
g72
(dp3945
g80
I5
ssg81
g3939
sg74
(lp3946
S'Rafael Soutelino: Academic Website'
p3947
asbasbasbag67
(g83
g69
NtRp3948
(dp3949
g72
(dp3950
sg81
g3065
sg74
(lp3951
g67
(g88
g69
NtRp3952
(dp3953
g72
(dp3954
g92
g93
ssg81
g3948
sg74
(lp3955
S'view'
p3956
asbag67
(g88
g69
NtRp3957
(dp3958
g72
(dp3959
g99
g100
ssg81
g3948
sg74
(lp3960
S':'
asbag67
(g88
g69
NtRp3961
(dp3962
g72
(dp3963
sg81
g3948
sg74
(lp3964
g67
(g68
g69
NtRp3965
(dp3966
g72
(dp3967
g80
I5
ssg81
g3961
sg74
(lp3968
S'contact/contact.html'
p3969
asbasbasbasbasbsS'locals'
p3970
(dp3971
g4
S"'/home/rsoutelino/web2py/applications/rsoutelino/controllers/contact.py'"
p3972
sg6
S"'\\ndef contact():\\n    form = SQLFORM(db.contacts)\\n...m=form)\\nresponse._vars=response._caller(contact)\\n'"
p3973
sssS'traceback'
p3974
S'Traceback (most recent call last):\n  File "/home/rsoutelino/web2py/gluon/restricted.py", line 211, in restricted\n    ccode = compile2(code, layer)\n  File "/home/rsoutelino/web2py/gluon/restricted.py", line 194, in compile2\n    return compile(code.rstrip().replace(\'\\r\\n\', \'\\n\') + \'\\n\', layer, \'exec\')\n  File "/home/rsoutelino/web2py/applications/rsoutelino/controllers/contact.py", line 4\n    if form.process(request.args(0)).accepted:\n   ^\nIndentationError: unexpected indent\n'
p3975
s.