(dp1
S'output'
p2
S"<type 'exceptions.IndentationError'> expected an indented block (contact.py, line 6)"
p3
sS'layer'
p4
S'/home/rsoutelino/web2py/applications/rsoutelino/controllers/contact.py'
p5
sS'code'
p6
S'from Mail import *\n\ndef contact():\n\tform = SQLFORM(db.contacts)\n\tif form.process(request.args(0)).accepted:\n        message = "%s %s %s" %(forms.vars.name, forms.vars.email, forms.vars.commentary)\n        mail.send(to="rsoutelino@gmail.com", subject="You received a message through rsoutelino.com", reply_to=form.vars.email, message=message)\n        response.flash="success"\n\telif form.errors:\n\t\tresponse.flash="try again"\n\treturn dict(form=form)\nresponse._vars=response._caller(contact)\n'
p7
sS'snapshot'
p8
(dp9
S'exception'
p10
(dp11
S'__getslice__'
p12
S"<method-wrapper '__getslice__' of exceptions.IndentationError object>"
p13
sS'text'
p14
S'\'        message = "%s %s %s" %(forms.vars.name, forms.vars.email, forms.vars.commentary)\\n\''
p15
sS'__str__'
p16
S"<method-wrapper '__str__' of exceptions.IndentationError object>"
p17
sS'__reduce__'
p18
S'<built-in method __reduce__ of exceptions.IndentationError object>'
p19
sS'__dict__'
p20
S'{}'
p21
sS'__sizeof__'
p22
S'<built-in method __sizeof__ of exceptions.IndentationError object>'
p23
sS'__init__'
p24
S"<method-wrapper '__init__' of exceptions.IndentationError object>"
p25
sS'__setattr__'
p26
S"<method-wrapper '__setattr__' of exceptions.IndentationError object>"
p27
sS'__reduce_ex__'
p28
S'<built-in method __reduce_ex__ of exceptions.IndentationError object>'
p29
sS'__new__'
p30
S'<built-in method __new__ of type object>'
p31
sS'__format__'
p32
S'<built-in method __format__ of exceptions.IndentationError object>'
p33
sS'__class__'
p34
S"<type 'exceptions.IndentationError'>"
p35
sS'filename'
p36
S"'/home/rsoutelino/web2py/applications/rsoutelino/controllers/contact.py'"
p37
sS'lineno'
p38
S'6'
sS'msg'
p39
S"'expected an indented block'"
p40
sS'__doc__'
p41
S"'Improper indentation.'"
p42
sS'__getitem__'
p43
S"<method-wrapper '__getitem__' of exceptions.IndentationError object>"
p44
sS'__setstate__'
p45
S'<built-in method __setstate__ of exceptions.IndentationError object>'
p46
sS'__getattribute__'
p47
S"<method-wrapper '__getattribute__' of exceptions.IndentationError object>"
p48
sS'print_file_and_line'
p49
S'None'
p50
sS'args'
p51
S'(\'expected an indented block\', (\'/home/rsoutelino/web2py/applications/rsoutelino/controllers/contact.py\', 6, 15, \'        message = "%s %s %s" %(forms.vars.name, forms.vars.email, forms.vars.commentary)\\n\'))'
p52
sS'__subclasshook__'
p53
S'<built-in method __subclasshook__ of type object>'
p54
sS'offset'
p55
S'15'
p56
sS'__unicode__'
p57
S'<built-in method __unicode__ of exceptions.IndentationError object>'
p58
sS'__delattr__'
p59
S"<method-wrapper '__delattr__' of exceptions.IndentationError object>"
p60
sS'__repr__'
p61
S"<method-wrapper '__repr__' of exceptions.IndentationError object>"
p62
sS'__hash__'
p63
S"<method-wrapper '__hash__' of exceptions.IndentationError object>"
p64
ssS'evalue'
p65
S'expected an indented block (contact.py, line 6)'
p66
sS'request'
p67
ccopy_reg
_reconstructor
p68
(cgluon.html
BEAUTIFY
p69
c__builtin__
object
p70
NtRp71
(dp72
S'attributes'
p73
(dp74
sS'components'
p75
(lp76
g68
(cgluon.html
TABLE
p77
g70
NtRp78
(dp79
g73
(dp80
S'level'
p81
I5
ssS'parent'
p82
Nsg75
(lp83
g68
(cgluon.html
TR
p84
g70
NtRp85
(dp86
g73
(dp87
sg82
g78
sg75
(lp88
g68
(cgluon.html
TD
p89
g70
NtRp90
(dp91
g73
(dp92
S'_style'
p93
S'font-weight:bold;vertical-align:top'
p94
ssg82
g85
sg75
(lp95
S'ajax'
p96
asbag68
(g89
g70
NtRp97
(dp98
g73
(dp99
S'_valign'
p100
S'top'
p101
ssg82
g85
sg75
(lp102
S':'
asbag68
(g89
g70
NtRp103
(dp104
g73
(dp105
sg82
g85
sg75
(lp106
g68
(g69
g70
NtRp107
(dp108
g73
(dp109
g81
I5
ssg82
g103
sg75
(lp110
S'False'
p111
asbasbasbag68
(g84
g70
NtRp112
(dp113
g73
(dp114
sg82
g78
sg75
(lp115
g68
(g89
g70
NtRp116
(dp117
g73
(dp118
g93
g94
ssg82
g112
sg75
(lp119
S'application'
p120
asbag68
(g89
g70
NtRp121
(dp122
g73
(dp123
g100
g101
ssg82
g112
sg75
(lp124
S':'
asbag68
(g89
g70
NtRp125
(dp126
g73
(dp127
sg82
g112
sg75
(lp128
g68
(g69
g70
NtRp129
(dp130
g73
(dp131
g81
I5
ssg82
g125
sg75
(lp132
S'rsoutelino'
p133
asbasbasbag68
(g84
g70
NtRp134
(dp135
g73
(dp136
sg82
g78
sg75
(lp137
g68
(g89
g70
NtRp138
(dp139
g73
(dp140
g93
g94
ssg82
g134
sg75
(lp141
g51
asbag68
(g89
g70
NtRp142
(dp143
g73
(dp144
g100
g101
ssg82
g134
sg75
(lp145
S':'
asbag68
(g89
g70
NtRp146
(dp147
g73
(dp148
sg82
g134
sg75
(lp149
g68
(g69
g70
NtRp150
(dp151
g73
(dp152
g81
I5
ssg82
g146
sg75
(lp153
g68
(g77
g70
NtRp154
(dp155
g73
(dp156
g81
I4
ssg82
Nsg75
(lp157
sbasbasbasbag68
(g84
g70
NtRp158
(dp159
g73
(dp160
sg82
g78
sg75
(lp161
g68
(g89
g70
NtRp162
(dp163
g73
(dp164
g93
g94
ssg82
g158
sg75
(lp165
S'body'
p166
asbag68
(g89
g70
NtRp167
(dp168
g73
(dp169
g100
g101
ssg82
g158
sg75
(lp170
S':'
asbag68
(g89
g70
NtRp171
(dp172
g73
(dp173
sg82
g158
sg75
(lp174
g68
(g69
g70
NtRp175
(dp176
g73
(dp177
g81
I5
ssg82
g171
sg75
(lp178
S'<cStringIO.StringO object at 0x3272340>'
p179
asbasbasbag68
(g84
g70
NtRp180
(dp181
g73
(dp182
sg82
g78
sg75
(lp183
g68
(g89
g70
NtRp184
(dp185
g73
(dp186
g93
g94
ssg82
g180
sg75
(lp187
S'cid'
p188
asbag68
(g89
g70
NtRp189
(dp190
g73
(dp191
g100
g101
ssg82
g180
sg75
(lp192
S':'
asbag68
(g89
g70
NtRp193
(dp194
g73
(dp195
sg82
g180
sg75
(lp196
g68
(g69
g70
NtRp197
(dp198
g73
(dp199
g81
I5
ssg82
g193
sg75
(lp200
S'None'
p201
asbasbasbag68
(g84
g70
NtRp202
(dp203
g73
(dp204
sg82
g78
sg75
(lp205
g68
(g89
g70
NtRp206
(dp207
g73
(dp208
g93
g94
ssg82
g202
sg75
(lp209
S'client'
p210
asbag68
(g89
g70
NtRp211
(dp212
g73
(dp213
g100
g101
ssg82
g202
sg75
(lp214
S':'
asbag68
(g89
g70
NtRp215
(dp216
g73
(dp217
sg82
g202
sg75
(lp218
g68
(g69
g70
NtRp219
(dp220
g73
(dp221
g81
I5
ssg82
g215
sg75
(lp222
S'172.30.6.206'
p223
asbasbasbag68
(g84
g70
NtRp224
(dp225
g73
(dp226
sg82
g78
sg75
(lp227
g68
(g89
g70
NtRp228
(dp229
g73
(dp230
g93
g94
ssg82
g224
sg75
(lp231
S'controller'
p232
asbag68
(g89
g70
NtRp233
(dp234
g73
(dp235
g100
g101
ssg82
g224
sg75
(lp236
S':'
asbag68
(g89
g70
NtRp237
(dp238
g73
(dp239
sg82
g224
sg75
(lp240
g68
(g69
g70
NtRp241
(dp242
g73
(dp243
g81
I5
ssg82
g237
sg75
(lp244
S'contact'
p245
asbasbasbag68
(g84
g70
NtRp246
(dp247
g73
(dp248
sg82
g78
sg75
(lp249
g68
(g89
g70
NtRp250
(dp251
g73
(dp252
g93
g94
ssg82
g246
sg75
(lp253
S'cookies'
p254
asbag68
(g89
g70
NtRp255
(dp256
g73
(dp257
g100
g101
ssg82
g246
sg75
(lp258
S':'
asbag68
(g89
g70
NtRp259
(dp260
g73
(dp261
sg82
g246
sg75
(lp262
g68
(g69
g70
NtRp263
(dp264
g73
(dp265
g81
I5
ssg82
g259
sg75
(lp266
g68
(g77
g70
NtRp267
(dp268
g73
(dp269
g81
I4
ssg82
Nsg75
(lp270
g68
(g84
g70
NtRp271
(dp272
g73
(dp273
sg82
g267
sg75
(lp274
g68
(g89
g70
NtRp275
(dp276
g73
(dp277
g93
g94
ssg82
g271
sg75
(lp278
S'session_id_rsoutelino'
p279
asbag68
(g89
g70
NtRp280
(dp281
g73
(dp282
g100
g101
ssg82
g271
sg75
(lp283
S':'
asbag68
(g89
g70
NtRp284
(dp285
g73
(dp286
sg82
g271
sg75
(lp287
g68
(g69
g70
NtRp288
(dp289
g73
(dp290
g81
I4
ssg82
g284
sg75
(lp291
S'172.30.6.206-ff8895b3-cf15-45b4-849d-94e5ea03f2bd'
p292
ag68
(g77
g70
NtRp293
(dp294
g73
(dp295
g81
I3
ssg82
Nsg75
(lp296
g68
(g84
g70
NtRp297
(dp298
g73
(dp299
sg82
g293
sg75
(lp300
g68
(g89
g70
NtRp301
(dp302
g73
(dp303
g93
g94
ssg82
g297
sg75
(lp304
S'comment'
p305
asbag68
(g89
g70
NtRp306
(dp307
g73
(dp308
g100
g101
ssg82
g297
sg75
(lp309
S':'
asbag68
(g89
g70
NtRp310
(dp311
g73
(dp312
sg82
g297
sg75
(lp313
g68
(g69
g70
NtRp314
(dp315
g73
(dp316
g81
I3
ssg82
g310
sg75
(lp317
S''
asbasbasbag68
(g84
g70
NtRp318
(dp319
g73
(dp320
sg82
g293
sg75
(lp321
g68
(g89
g70
NtRp322
(dp323
g73
(dp324
g93
g94
ssg82
g318
sg75
(lp325
S'domain'
p326
asbag68
(g89
g70
NtRp327
(dp328
g73
(dp329
g100
g101
ssg82
g318
sg75
(lp330
S':'
asbag68
(g89
g70
NtRp331
(dp332
g73
(dp333
sg82
g318
sg75
(lp334
g68
(g69
g70
NtRp335
(dp336
g73
(dp337
g81
I3
ssg82
g331
sg75
(lp338
S''
asbasbasbag68
(g84
g70
NtRp339
(dp340
g73
(dp341
sg82
g293
sg75
(lp342
g68
(g89
g70
NtRp343
(dp344
g73
(dp345
g93
g94
ssg82
g339
sg75
(lp346
S'expires'
p347
asbag68
(g89
g70
NtRp348
(dp349
g73
(dp350
g100
g101
ssg82
g339
sg75
(lp351
S':'
asbag68
(g89
g70
NtRp352
(dp353
g73
(dp354
sg82
g339
sg75
(lp355
g68
(g69
g70
NtRp356
(dp357
g73
(dp358
g81
I3
ssg82
g352
sg75
(lp359
S''
asbasbasbag68
(g84
g70
NtRp360
(dp361
g73
(dp362
sg82
g293
sg75
(lp363
g68
(g89
g70
NtRp364
(dp365
g73
(dp366
g93
g94
ssg82
g360
sg75
(lp367
S'httponly'
p368
asbag68
(g89
g70
NtRp369
(dp370
g73
(dp371
g100
g101
ssg82
g360
sg75
(lp372
S':'
asbag68
(g89
g70
NtRp373
(dp374
g73
(dp375
sg82
g360
sg75
(lp376
g68
(g69
g70
NtRp377
(dp378
g73
(dp379
g81
I3
ssg82
g373
sg75
(lp380
S''
asbasbasbag68
(g84
g70
NtRp381
(dp382
g73
(dp383
sg82
g293
sg75
(lp384
g68
(g89
g70
NtRp385
(dp386
g73
(dp387
g93
g94
ssg82
g381
sg75
(lp388
S'max-age'
p389
asbag68
(g89
g70
NtRp390
(dp391
g73
(dp392
g100
g101
ssg82
g381
sg75
(lp393
S':'
asbag68
(g89
g70
NtRp394
(dp395
g73
(dp396
sg82
g381
sg75
(lp397
g68
(g69
g70
NtRp398
(dp399
g73
(dp400
g81
I3
ssg82
g394
sg75
(lp401
S''
asbasbasbag68
(g84
g70
NtRp402
(dp403
g73
(dp404
sg82
g293
sg75
(lp405
g68
(g89
g70
NtRp406
(dp407
g73
(dp408
g93
g94
ssg82
g402
sg75
(lp409
S'path'
p410
asbag68
(g89
g70
NtRp411
(dp412
g73
(dp413
g100
g101
ssg82
g402
sg75
(lp414
S':'
asbag68
(g89
g70
NtRp415
(dp416
g73
(dp417
sg82
g402
sg75
(lp418
g68
(g69
g70
NtRp419
(dp420
g73
(dp421
g81
I3
ssg82
g415
sg75
(lp422
S''
asbasbasbag68
(g84
g70
NtRp423
(dp424
g73
(dp425
sg82
g293
sg75
(lp426
g68
(g89
g70
NtRp427
(dp428
g73
(dp429
g93
g94
ssg82
g423
sg75
(lp430
S'secure'
p431
asbag68
(g89
g70
NtRp432
(dp433
g73
(dp434
g100
g101
ssg82
g423
sg75
(lp435
S':'
asbag68
(g89
g70
NtRp436
(dp437
g73
(dp438
sg82
g423
sg75
(lp439
g68
(g69
g70
NtRp440
(dp441
g73
(dp442
g81
I3
ssg82
g436
sg75
(lp443
S''
asbasbasbag68
(g84
g70
NtRp444
(dp445
g73
(dp446
sg82
g293
sg75
(lp447
g68
(g89
g70
NtRp448
(dp449
g73
(dp450
g93
g94
ssg82
g444
sg75
(lp451
S'version'
p452
asbag68
(g89
g70
NtRp453
(dp454
g73
(dp455
g100
g101
ssg82
g444
sg75
(lp456
S':'
asbag68
(g89
g70
NtRp457
(dp458
g73
(dp459
sg82
g444
sg75
(lp460
g68
(g69
g70
NtRp461
(dp462
g73
(dp463
g81
I3
ssg82
g457
sg75
(lp464
S''
asbasbasbasbasbasbasbasbasbasbasbag68
(g84
g70
NtRp465
(dp466
g73
(dp467
sg82
g78
sg75
(lp468
g68
(g89
g70
NtRp469
(dp470
g73
(dp471
g93
g94
ssg82
g465
sg75
(lp472
S'env'
p473
asbag68
(g89
g70
NtRp474
(dp475
g73
(dp476
g100
g101
ssg82
g465
sg75
(lp477
S':'
asbag68
(g89
g70
NtRp478
(dp479
g73
(dp480
sg82
g465
sg75
(lp481
g68
(g69
g70
NtRp482
(dp483
g73
(dp484
g81
I5
ssg82
g478
sg75
(lp485
g68
(g77
g70
NtRp486
(dp487
g73
(dp488
g81
I4
ssg82
Nsg75
(lp489
g68
(g84
g70
NtRp490
(dp491
g73
(dp492
sg82
g486
sg75
(lp493
g68
(g89
g70
NtRp494
(dp495
g73
(dp496
g93
g94
ssg82
g490
sg75
(lp497
S'app_folders'
p498
asbag68
(g89
g70
NtRp499
(dp500
g73
(dp501
g100
g101
ssg82
g490
sg75
(lp502
S':'
asbag68
(g89
g70
NtRp503
(dp504
g73
(dp505
sg82
g490
sg75
(lp506
g68
(g69
g70
NtRp507
(dp508
g73
(dp509
g81
I4
ssg82
g503
sg75
(lp510
S"set(['/home/rsoutelino/web2py/applications/rsoutelino/', '/home/rsoutelino/web2py/applications/admin/'])"
p511
asbasbasbag68
(g84
g70
NtRp512
(dp513
g73
(dp514
sg82
g486
sg75
(lp515
g68
(g89
g70
NtRp516
(dp517
g73
(dp518
g93
g94
ssg82
g512
sg75
(lp519
S'applications_parent'
p520
asbag68
(g89
g70
NtRp521
(dp522
g73
(dp523
g100
g101
ssg82
g512
sg75
(lp524
S':'
asbag68
(g89
g70
NtRp525
(dp526
g73
(dp527
sg82
g512
sg75
(lp528
g68
(g69
g70
NtRp529
(dp530
g73
(dp531
g81
I4
ssg82
g525
sg75
(lp532
S'/home/rsoutelino/web2py'
p533
asbasbasbag68
(g84
g70
NtRp534
(dp535
g73
(dp536
sg82
g486
sg75
(lp537
g68
(g89
g70
NtRp538
(dp539
g73
(dp540
g93
g94
ssg82
g534
sg75
(lp541
S'content_length'
p542
asbag68
(g89
g70
NtRp543
(dp544
g73
(dp545
g100
g101
ssg82
g534
sg75
(lp546
S':'
asbag68
(g89
g70
NtRp547
(dp548
g73
(dp549
sg82
g534
sg75
(lp550
g68
(g69
g70
NtRp551
(dp552
g73
(dp553
g81
I4
ssg82
g547
sg75
(lp554
S''
asbasbasbag68
(g84
g70
NtRp555
(dp556
g73
(dp557
sg82
g486
sg75
(lp558
g68
(g89
g70
NtRp559
(dp560
g73
(dp561
g93
g94
ssg82
g555
sg75
(lp562
S'content_type'
p563
asbag68
(g89
g70
NtRp564
(dp565
g73
(dp566
g100
g101
ssg82
g555
sg75
(lp567
S':'
asbag68
(g89
g70
NtRp568
(dp569
g73
(dp570
sg82
g555
sg75
(lp571
g68
(g69
g70
NtRp572
(dp573
g73
(dp574
g81
I4
ssg82
g568
sg75
(lp575
S''
asbasbasbag68
(g84
g70
NtRp576
(dp577
g73
(dp578
sg82
g486
sg75
(lp579
g68
(g89
g70
NtRp580
(dp581
g73
(dp582
g93
g94
ssg82
g576
sg75
(lp583
S'db_sessions'
p584
asbag68
(g89
g70
NtRp585
(dp586
g73
(dp587
g100
g101
ssg82
g576
sg75
(lp588
S':'
asbag68
(g89
g70
NtRp589
(dp590
g73
(dp591
sg82
g576
sg75
(lp592
g68
(g69
g70
NtRp593
(dp594
g73
(dp595
g81
I4
ssg82
g589
sg75
(lp596
S'set([])'
p597
asbasbasbag68
(g84
g70
NtRp598
(dp599
g73
(dp600
sg82
g486
sg75
(lp601
g68
(g89
g70
NtRp602
(dp603
g73
(dp604
g93
g94
ssg82
g598
sg75
(lp605
S'debugging'
p606
asbag68
(g89
g70
NtRp607
(dp608
g73
(dp609
g100
g101
ssg82
g598
sg75
(lp610
S':'
asbag68
(g89
g70
NtRp611
(dp612
g73
(dp613
sg82
g598
sg75
(lp614
g68
(g69
g70
NtRp615
(dp616
g73
(dp617
g81
I4
ssg82
g611
sg75
(lp618
g111
asbasbasbag68
(g84
g70
NtRp619
(dp620
g73
(dp621
sg82
g486
sg75
(lp622
g68
(g89
g70
NtRp623
(dp624
g73
(dp625
g93
g94
ssg82
g619
sg75
(lp626
S'document_root'
p627
asbag68
(g89
g70
NtRp628
(dp629
g73
(dp630
g100
g101
ssg82
g619
sg75
(lp631
S':'
asbag68
(g89
g70
NtRp632
(dp633
g73
(dp634
sg82
g619
sg75
(lp635
g68
(g69
g70
NtRp636
(dp637
g73
(dp638
g81
I4
ssg82
g632
sg75
(lp639
S'/var/log/nginx/user_logs'
p640
asbasbasbag68
(g84
g70
NtRp641
(dp642
g73
(dp643
sg82
g486
sg75
(lp644
g68
(g89
g70
NtRp645
(dp646
g73
(dp647
g93
g94
ssg82
g641
sg75
(lp648
S'gluon_parent'
p649
asbag68
(g89
g70
NtRp650
(dp651
g73
(dp652
g100
g101
ssg82
g641
sg75
(lp653
S':'
asbag68
(g89
g70
NtRp654
(dp655
g73
(dp656
sg82
g641
sg75
(lp657
g68
(g69
g70
NtRp658
(dp659
g73
(dp660
g81
I4
ssg82
g654
sg75
(lp661
g533
asbasbasbag68
(g84
g70
NtRp662
(dp663
g73
(dp664
sg82
g486
sg75
(lp665
g68
(g89
g70
NtRp666
(dp667
g73
(dp668
g93
g94
ssg82
g662
sg75
(lp669
S'http_accept'
p670
asbag68
(g89
g70
NtRp671
(dp672
g73
(dp673
g100
g101
ssg82
g662
sg75
(lp674
S':'
asbag68
(g89
g70
NtRp675
(dp676
g73
(dp677
sg82
g662
sg75
(lp678
g68
(g69
g70
NtRp679
(dp680
g73
(dp681
g81
I4
ssg82
g675
sg75
(lp682
S'text/html,application/xhtml+xml,application/xml;q=0.9,*/*;q=0.8'
p683
asbasbasbag68
(g84
g70
NtRp684
(dp685
g73
(dp686
sg82
g486
sg75
(lp687
g68
(g89
g70
NtRp688
(dp689
g73
(dp690
g93
g94
ssg82
g684
sg75
(lp691
S'http_accept_charset'
p692
asbag68
(g89
g70
NtRp693
(dp694
g73
(dp695
g100
g101
ssg82
g684
sg75
(lp696
S':'
asbag68
(g89
g70
NtRp697
(dp698
g73
(dp699
sg82
g684
sg75
(lp700
g68
(g69
g70
NtRp701
(dp702
g73
(dp703
g81
I4
ssg82
g697
sg75
(lp704
S'ISO-8859-1,utf-8;q=0.7,*;q=0.3'
p705
asbasbasbag68
(g84
g70
NtRp706
(dp707
g73
(dp708
sg82
g486
sg75
(lp709
g68
(g89
g70
NtRp710
(dp711
g73
(dp712
g93
g94
ssg82
g706
sg75
(lp713
S'http_accept_encoding'
p714
asbag68
(g89
g70
NtRp715
(dp716
g73
(dp717
g100
g101
ssg82
g706
sg75
(lp718
S':'
asbag68
(g89
g70
NtRp719
(dp720
g73
(dp721
sg82
g706
sg75
(lp722
g68
(g69
g70
NtRp723
(dp724
g73
(dp725
g81
I4
ssg82
g719
sg75
(lp726
S'gzip,deflate,sdch'
p727
asbasbasbag68
(g84
g70
NtRp728
(dp729
g73
(dp730
sg82
g486
sg75
(lp731
g68
(g89
g70
NtRp732
(dp733
g73
(dp734
g93
g94
ssg82
g728
sg75
(lp735
S'http_accept_language'
p736
asbag68
(g89
g70
NtRp737
(dp738
g73
(dp739
g100
g101
ssg82
g728
sg75
(lp740
S':'
asbag68
(g89
g70
NtRp741
(dp742
g73
(dp743
sg82
g728
sg75
(lp744
g68
(g69
g70
NtRp745
(dp746
g73
(dp747
g81
I4
ssg82
g741
sg75
(lp748
S'en-US,en;q=0.8'
p749
asbasbasbag68
(g84
g70
NtRp750
(dp751
g73
(dp752
sg82
g486
sg75
(lp753
g68
(g89
g70
NtRp754
(dp755
g73
(dp756
g93
g94
ssg82
g750
sg75
(lp757
S'http_cache_control'
p758
asbag68
(g89
g70
NtRp759
(dp760
g73
(dp761
g100
g101
ssg82
g750
sg75
(lp762
S':'
asbag68
(g89
g70
NtRp763
(dp764
g73
(dp765
sg82
g750
sg75
(lp766
g68
(g69
g70
NtRp767
(dp768
g73
(dp769
g81
I4
ssg82
g763
sg75
(lp770
S'max-age=0'
p771
asbasbasbag68
(g84
g70
NtRp772
(dp773
g73
(dp774
sg82
g486
sg75
(lp775
g68
(g89
g70
NtRp776
(dp777
g73
(dp778
g93
g94
ssg82
g772
sg75
(lp779
S'http_connection'
p780
asbag68
(g89
g70
NtRp781
(dp782
g73
(dp783
g100
g101
ssg82
g772
sg75
(lp784
S':'
asbag68
(g89
g70
NtRp785
(dp786
g73
(dp787
sg82
g772
sg75
(lp788
g68
(g69
g70
NtRp789
(dp790
g73
(dp791
g81
I4
ssg82
g785
sg75
(lp792
S'Keep-Alive'
p793
asbasbasbag68
(g84
g70
NtRp794
(dp795
g73
(dp796
sg82
g486
sg75
(lp797
g68
(g89
g70
NtRp798
(dp799
g73
(dp800
g93
g94
ssg82
g794
sg75
(lp801
S'http_cookie'
p802
asbag68
(g89
g70
NtRp803
(dp804
g73
(dp805
g100
g101
ssg82
g794
sg75
(lp806
S':'
asbag68
(g89
g70
NtRp807
(dp808
g73
(dp809
sg82
g794
sg75
(lp810
g68
(g69
g70
NtRp811
(dp812
g73
(dp813
g81
I4
ssg82
g807
sg75
(lp814
S'session_id_rsoutelino=172.30.6.206-ff8895b3-cf15-45b4-849d-94e5ea03f2bd'
p815
asbasbasbag68
(g84
g70
NtRp816
(dp817
g73
(dp818
sg82
g486
sg75
(lp819
g68
(g89
g70
NtRp820
(dp821
g73
(dp822
g93
g94
ssg82
g816
sg75
(lp823
S'http_host'
p824
asbag68
(g89
g70
NtRp825
(dp826
g73
(dp827
g100
g101
ssg82
g816
sg75
(lp828
S':'
asbag68
(g89
g70
NtRp829
(dp830
g73
(dp831
sg82
g816
sg75
(lp832
g68
(g69
g70
NtRp833
(dp834
g73
(dp835
g81
I4
ssg82
g829
sg75
(lp836
S'www.rsoutelino.com'
p837
asbasbasbag68
(g84
g70
NtRp838
(dp839
g73
(dp840
sg82
g486
sg75
(lp841
g68
(g89
g70
NtRp842
(dp843
g73
(dp844
g93
g94
ssg82
g838
sg75
(lp845
S'http_referer'
p846
asbag68
(g89
g70
NtRp847
(dp848
g73
(dp849
g100
g101
ssg82
g838
sg75
(lp850
S':'
asbag68
(g89
g70
NtRp851
(dp852
g73
(dp853
sg82
g838
sg75
(lp854
g68
(g69
g70
NtRp855
(dp856
g73
(dp857
g81
I4
ssg82
g851
sg75
(lp858
S'http://www.rsoutelino.com/rsoutelino/default/index'
p859
asbasbasbag68
(g84
g70
NtRp860
(dp861
g73
(dp862
sg82
g486
sg75
(lp863
g68
(g89
g70
NtRp864
(dp865
g73
(dp866
g93
g94
ssg82
g860
sg75
(lp867
S'http_user_agent'
p868
asbag68
(g89
g70
NtRp869
(dp870
g73
(dp871
g100
g101
ssg82
g860
sg75
(lp872
S':'
asbag68
(g89
g70
NtRp873
(dp874
g73
(dp875
sg82
g860
sg75
(lp876
g68
(g69
g70
NtRp877
(dp878
g73
(dp879
g81
I4
ssg82
g873
sg75
(lp880
S'Mozilla/5.0 (X11; Linux x86_64) AppleWebKit/537.17 (KHTML, like Gecko) Chrome/24.0.1312.57 Safari/537.17'
p881
asbasbasbag68
(g84
g70
NtRp882
(dp883
g73
(dp884
sg82
g486
sg75
(lp885
g68
(g89
g70
NtRp886
(dp887
g73
(dp888
g93
g94
ssg82
g882
sg75
(lp889
S'http_via'
p890
asbag68
(g89
g70
NtRp891
(dp892
g73
(dp893
g100
g101
ssg82
g882
sg75
(lp894
S':'
asbag68
(g89
g70
NtRp895
(dp896
g73
(dp897
sg82
g882
sg75
(lp898
g68
(g69
g70
NtRp899
(dp900
g73
(dp901
g81
I4
ssg82
g895
sg75
(lp902
S'1.1 10.6.32.12 (McAfee Web Gateway 7.2.0.4.0.14188)'
p903
asbasbasbag68
(g84
g70
NtRp904
(dp905
g73
(dp906
sg82
g486
sg75
(lp907
g68
(g89
g70
NtRp908
(dp909
g73
(dp910
g93
g94
ssg82
g904
sg75
(lp911
S'http_x_forwarded_for'
p912
asbag68
(g89
g70
NtRp913
(dp914
g73
(dp915
g100
g101
ssg82
g904
sg75
(lp916
S':'
asbag68
(g89
g70
NtRp917
(dp918
g73
(dp919
sg82
g904
sg75
(lp920
g68
(g69
g70
NtRp921
(dp922
g73
(dp923
g81
I4
ssg82
g917
sg75
(lp924
g223
asbasbasbag68
(g84
g70
NtRp925
(dp926
g73
(dp927
sg82
g486
sg75
(lp928
g68
(g89
g70
NtRp929
(dp930
g73
(dp931
g93
g94
ssg82
g925
sg75
(lp932
S'is_jython'
p933
asbag68
(g89
g70
NtRp934
(dp935
g73
(dp936
g100
g101
ssg82
g925
sg75
(lp937
S':'
asbag68
(g89
g70
NtRp938
(dp939
g73
(dp940
sg82
g925
sg75
(lp941
g68
(g69
g70
NtRp942
(dp943
g73
(dp944
g81
I4
ssg82
g938
sg75
(lp945
g111
asbasbasbag68
(g84
g70
NtRp946
(dp947
g73
(dp948
sg82
g486
sg75
(lp949
g68
(g89
g70
NtRp950
(dp951
g73
(dp952
g93
g94
ssg82
g946
sg75
(lp953
S'is_pypy'
p954
asbag68
(g89
g70
NtRp955
(dp956
g73
(dp957
g100
g101
ssg82
g946
sg75
(lp958
S':'
asbag68
(g89
g70
NtRp959
(dp960
g73
(dp961
sg82
g946
sg75
(lp962
g68
(g69
g70
NtRp963
(dp964
g73
(dp965
g81
I4
ssg82
g959
sg75
(lp966
g111
asbasbasbag68
(g84
g70
NtRp967
(dp968
g73
(dp969
sg82
g486
sg75
(lp970
g68
(g89
g70
NtRp971
(dp972
g73
(dp973
g93
g94
ssg82
g967
sg75
(lp974
S'local_hosts'
p975
asbag68
(g89
g70
NtRp976
(dp977
g73
(dp978
g100
g101
ssg82
g967
sg75
(lp979
S':'
asbag68
(g89
g70
NtRp980
(dp981
g73
(dp982
sg82
g967
sg75
(lp983
g68
(g69
g70
NtRp984
(dp985
g73
(dp986
g81
I4
ssg82
g980
sg75
(lp987
g68
(g77
g70
NtRp988
(dp989
g73
(dp990
g81
I3
ssg82
Nsg75
(lp991
g68
(g84
g70
NtRp992
(dp993
g73
(dp994
sg82
g988
sg75
(lp995
g68
(g89
g70
NtRp996
(dp997
g73
(dp998
sg82
g992
sg75
(lp999
g68
(g69
g70
NtRp1000
(dp1001
g73
(dp1002
g81
I3
ssg82
g996
sg75
(lp1003
S'127.0.0.1'
p1004
asbasbasbag68
(g84
g70
NtRp1005
(dp1006
g73
(dp1007
sg82
g988
sg75
(lp1008
g68
(g89
g70
NtRp1009
(dp1010
g73
(dp1011
sg82
g1005
sg75
(lp1012
g68
(g69
g70
NtRp1013
(dp1014
g73
(dp1015
g81
I3
ssg82
g1009
sg75
(lp1016
S'::ffff:127.0.0.1'
p1017
asbasbasbag68
(g84
g70
NtRp1018
(dp1019
g73
(dp1020
sg82
g988
sg75
(lp1021
g68
(g89
g70
NtRp1022
(dp1023
g73
(dp1024
sg82
g1018
sg75
(lp1025
g68
(g69
g70
NtRp1026
(dp1027
g73
(dp1028
g81
I3
ssg82
g1022
sg75
(lp1029
S'hansel-liveweb'
p1030
asbasbasbasbasbasbasbag68
(g84
g70
NtRp1031
(dp1032
g73
(dp1033
sg82
g486
sg75
(lp1034
g68
(g89
g70
NtRp1035
(dp1036
g73
(dp1037
g93
g94
ssg82
g1031
sg75
(lp1038
S'path_info'
p1039
asbag68
(g89
g70
NtRp1040
(dp1041
g73
(dp1042
g100
g101
ssg82
g1031
sg75
(lp1043
S':'
asbag68
(g89
g70
NtRp1044
(dp1045
g73
(dp1046
sg82
g1031
sg75
(lp1047
g68
(g69
g70
NtRp1048
(dp1049
g73
(dp1050
g81
I4
ssg82
g1044
sg75
(lp1051
S'/rsoutelino/contact/contact'
p1052
asbasbasbag68
(g84
g70
NtRp1053
(dp1054
g73
(dp1055
sg82
g486
sg75
(lp1056
g68
(g89
g70
NtRp1057
(dp1058
g73
(dp1059
g93
g94
ssg82
g1053
sg75
(lp1060
S'query_string'
p1061
asbag68
(g89
g70
NtRp1062
(dp1063
g73
(dp1064
g100
g101
ssg82
g1053
sg75
(lp1065
S':'
asbag68
(g89
g70
NtRp1066
(dp1067
g73
(dp1068
sg82
g1053
sg75
(lp1069
g68
(g69
g70
NtRp1070
(dp1071
g73
(dp1072
g81
I4
ssg82
g1066
sg75
(lp1073
S''
asbasbasbag68
(g84
g70
NtRp1074
(dp1075
g73
(dp1076
sg82
g486
sg75
(lp1077
g68
(g89
g70
NtRp1078
(dp1079
g73
(dp1080
g93
g94
ssg82
g1074
sg75
(lp1081
S'remote_addr'
p1082
asbag68
(g89
g70
NtRp1083
(dp1084
g73
(dp1085
g100
g101
ssg82
g1074
sg75
(lp1086
S':'
asbag68
(g89
g70
NtRp1087
(dp1088
g73
(dp1089
sg82
g1074
sg75
(lp1090
g68
(g69
g70
NtRp1091
(dp1092
g73
(dp1093
g81
I4
ssg82
g1087
sg75
(lp1094
S'189.125.114.245'
p1095
asbasbasbag68
(g84
g70
NtRp1096
(dp1097
g73
(dp1098
sg82
g486
sg75
(lp1099
g68
(g89
g70
NtRp1100
(dp1101
g73
(dp1102
g93
g94
ssg82
g1096
sg75
(lp1103
S'remote_port'
p1104
asbag68
(g89
g70
NtRp1105
(dp1106
g73
(dp1107
g100
g101
ssg82
g1096
sg75
(lp1108
S':'
asbag68
(g89
g70
NtRp1109
(dp1110
g73
(dp1111
sg82
g1096
sg75
(lp1112
g68
(g69
g70
NtRp1113
(dp1114
g73
(dp1115
g81
I4
ssg82
g1109
sg75
(lp1116
S'51885'
p1117
asbasbasbag68
(g84
g70
NtRp1118
(dp1119
g73
(dp1120
sg82
g486
sg75
(lp1121
g68
(g89
g70
NtRp1122
(dp1123
g73
(dp1124
g93
g94
ssg82
g1118
sg75
(lp1125
S'request_method'
p1126
asbag68
(g89
g70
NtRp1127
(dp1128
g73
(dp1129
g100
g101
ssg82
g1118
sg75
(lp1130
S':'
asbag68
(g89
g70
NtRp1131
(dp1132
g73
(dp1133
sg82
g1118
sg75
(lp1134
g68
(g69
g70
NtRp1135
(dp1136
g73
(dp1137
g81
I4
ssg82
g1131
sg75
(lp1138
S'GET'
p1139
asbasbasbag68
(g84
g70
NtRp1140
(dp1141
g73
(dp1142
sg82
g486
sg75
(lp1143
g68
(g89
g70
NtRp1144
(dp1145
g73
(dp1146
g93
g94
ssg82
g1140
sg75
(lp1147
S'request_uri'
p1148
asbag68
(g89
g70
NtRp1149
(dp1150
g73
(dp1151
g100
g101
ssg82
g1140
sg75
(lp1152
S':'
asbag68
(g89
g70
NtRp1153
(dp1154
g73
(dp1155
sg82
g1140
sg75
(lp1156
g68
(g69
g70
NtRp1157
(dp1158
g73
(dp1159
g81
I4
ssg82
g1153
sg75
(lp1160
S'/rsoutelino/contact/contact'
p1161
asbasbasbag68
(g84
g70
NtRp1162
(dp1163
g73
(dp1164
sg82
g486
sg75
(lp1165
g68
(g89
g70
NtRp1166
(dp1167
g73
(dp1168
g93
g94
ssg82
g1162
sg75
(lp1169
S'script_name'
p1170
asbag68
(g89
g70
NtRp1171
(dp1172
g73
(dp1173
g100
g101
ssg82
g1162
sg75
(lp1174
S':'
asbag68
(g89
g70
NtRp1175
(dp1176
g73
(dp1177
sg82
g1162
sg75
(lp1178
g68
(g69
g70
NtRp1179
(dp1180
g73
(dp1181
g81
I4
ssg82
g1175
sg75
(lp1182
S''
asbasbasbag68
(g84
g70
NtRp1183
(dp1184
g73
(dp1185
sg82
g486
sg75
(lp1186
g68
(g89
g70
NtRp1187
(dp1188
g73
(dp1189
g93
g94
ssg82
g1183
sg75
(lp1190
S'server_name'
p1191
asbag68
(g89
g70
NtRp1192
(dp1193
g73
(dp1194
g100
g101
ssg82
g1183
sg75
(lp1195
S':'
asbag68
(g89
g70
NtRp1196
(dp1197
g73
(dp1198
sg82
g1183
sg75
(lp1199
g68
(g69
g70
NtRp1200
(dp1201
g73
(dp1202
g81
I4
ssg82
g1196
sg75
(lp1203
S'~(?<domain>.+)$'
p1204
asbasbasbag68
(g84
g70
NtRp1205
(dp1206
g73
(dp1207
sg82
g486
sg75
(lp1208
g68
(g89
g70
NtRp1209
(dp1210
g73
(dp1211
g93
g94
ssg82
g1205
sg75
(lp1212
S'server_port'
p1213
asbag68
(g89
g70
NtRp1214
(dp1215
g73
(dp1216
g100
g101
ssg82
g1205
sg75
(lp1217
S':'
asbag68
(g89
g70
NtRp1218
(dp1219
g73
(dp1220
sg82
g1205
sg75
(lp1221
g68
(g69
g70
NtRp1222
(dp1223
g73
(dp1224
g81
I4
ssg82
g1218
sg75
(lp1225
S'80'
p1226
asbasbasbag68
(g84
g70
NtRp1227
(dp1228
g73
(dp1229
sg82
g486
sg75
(lp1230
g68
(g89
g70
NtRp1231
(dp1232
g73
(dp1233
g93
g94
ssg82
g1227
sg75
(lp1234
S'server_protocol'
p1235
asbag68
(g89
g70
NtRp1236
(dp1237
g73
(dp1238
g100
g101
ssg82
g1227
sg75
(lp1239
S':'
asbag68
(g89
g70
NtRp1240
(dp1241
g73
(dp1242
sg82
g1227
sg75
(lp1243
g68
(g69
g70
NtRp1244
(dp1245
g73
(dp1246
g81
I4
ssg82
g1240
sg75
(lp1247
S'HTTP/1.1'
p1248
asbasbasbag68
(g84
g70
NtRp1249
(dp1250
g73
(dp1251
sg82
g486
sg75
(lp1252
g68
(g89
g70
NtRp1253
(dp1254
g73
(dp1255
g93
g94
ssg82
g1249
sg75
(lp1256
S'uwsgi_node'
p1257
asbag68
(g89
g70
NtRp1258
(dp1259
g73
(dp1260
g100
g101
ssg82
g1249
sg75
(lp1261
S':'
asbag68
(g89
g70
NtRp1262
(dp1263
g73
(dp1264
sg82
g1249
sg75
(lp1265
g68
(g69
g70
NtRp1266
(dp1267
g73
(dp1268
g81
I4
ssg82
g1262
sg75
(lp1269
S'hansel-liveweb'
p1270
asbasbasbag68
(g84
g70
NtRp1271
(dp1272
g73
(dp1273
sg82
g486
sg75
(lp1274
g68
(g89
g70
NtRp1275
(dp1276
g73
(dp1277
g93
g94
ssg82
g1271
sg75
(lp1278
S'uwsgi_version'
p1279
asbag68
(g89
g70
NtRp1280
(dp1281
g73
(dp1282
g100
g101
ssg82
g1271
sg75
(lp1283
S':'
asbag68
(g89
g70
NtRp1284
(dp1285
g73
(dp1286
sg82
g1271
sg75
(lp1287
g68
(g69
g70
NtRp1288
(dp1289
g73
(dp1290
g81
I4
ssg82
g1284
sg75
(lp1291
S'1.4.4'
p1292
asbasbasbag68
(g84
g70
NtRp1293
(dp1294
g73
(dp1295
sg82
g486
sg75
(lp1296
g68
(g89
g70
NtRp1297
(dp1298
g73
(dp1299
g93
g94
ssg82
g1293
sg75
(lp1300
S'web2py_path'
p1301
asbag68
(g89
g70
NtRp1302
(dp1303
g73
(dp1304
g100
g101
ssg82
g1293
sg75
(lp1305
S':'
asbag68
(g89
g70
NtRp1306
(dp1307
g73
(dp1308
sg82
g1293
sg75
(lp1309
g68
(g69
g70
NtRp1310
(dp1311
g73
(dp1312
g81
I4
ssg82
g1306
sg75
(lp1313
g533
asbasbasbag68
(g84
g70
NtRp1314
(dp1315
g73
(dp1316
sg82
g486
sg75
(lp1317
g68
(g89
g70
NtRp1318
(dp1319
g73
(dp1320
g93
g94
ssg82
g1314
sg75
(lp1321
S'web2py_version'
p1322
asbag68
(g89
g70
NtRp1323
(dp1324
g73
(dp1325
g100
g101
ssg82
g1314
sg75
(lp1326
S':'
asbag68
(g89
g70
NtRp1327
(dp1328
g73
(dp1329
sg82
g1314
sg75
(lp1330
g68
(g69
g70
NtRp1331
(dp1332
g73
(dp1333
g81
I4
ssg82
g1327
sg75
(lp1334
g68
(g77
g70
NtRp1335
(dp1336
g73
(dp1337
g81
I3
ssg82
Nsg75
(lp1338
g68
(g84
g70
NtRp1339
(dp1340
g73
(dp1341
sg82
g1335
sg75
(lp1342
g68
(g89
g70
NtRp1343
(dp1344
g73
(dp1345
sg82
g1339
sg75
(lp1346
g68
(g69
g70
NtRp1347
(dp1348
g73
(dp1349
g81
I3
ssg82
g1343
sg75
(lp1350
S'2'
asbasbasbag68
(g84
g70
NtRp1351
(dp1352
g73
(dp1353
sg82
g1335
sg75
(lp1354
g68
(g89
g70
NtRp1355
(dp1356
g73
(dp1357
sg82
g1351
sg75
(lp1358
g68
(g69
g70
NtRp1359
(dp1360
g73
(dp1361
g81
I3
ssg82
g1355
sg75
(lp1362
S'2'
asbasbasbag68
(g84
g70
NtRp1363
(dp1364
g73
(dp1365
sg82
g1335
sg75
(lp1366
g68
(g89
g70
NtRp1367
(dp1368
g73
(dp1369
sg82
g1363
sg75
(lp1370
g68
(g69
g70
NtRp1371
(dp1372
g73
(dp1373
g81
I3
ssg82
g1367
sg75
(lp1374
S'1'
asbasbasbag68
(g84
g70
NtRp1375
(dp1376
g73
(dp1377
sg82
g1335
sg75
(lp1378
g68
(g89
g70
NtRp1379
(dp1380
g73
(dp1381
sg82
g1375
sg75
(lp1382
g68
(g69
g70
NtRp1383
(dp1384
g73
(dp1385
g81
I3
ssg82
g1379
sg75
(lp1386
S'datetime.datetime(2012, 10, 21, 16, 57, 4)'
p1387
asbasbasbag68
(g84
g70
NtRp1388
(dp1389
g73
(dp1390
sg82
g1335
sg75
(lp1391
g68
(g89
g70
NtRp1392
(dp1393
g73
(dp1394
sg82
g1388
sg75
(lp1395
g68
(g69
g70
NtRp1396
(dp1397
g73
(dp1398
g81
I3
ssg82
g1392
sg75
(lp1399
S'stable'
p1400
asbasbasbasbasbasbasbag68
(g84
g70
NtRp1401
(dp1402
g73
(dp1403
sg82
g486
sg75
(lp1404
g68
(g89
g70
NtRp1405
(dp1406
g73
(dp1407
g93
g94
ssg82
g1401
sg75
(lp1408
S'wsgi_errors'
p1409
asbag68
(g89
g70
NtRp1410
(dp1411
g73
(dp1412
g100
g101
ssg82
g1401
sg75
(lp1413
S':'
asbag68
(g89
g70
NtRp1414
(dp1415
g73
(dp1416
sg82
g1401
sg75
(lp1417
g68
(g69
g70
NtRp1418
(dp1419
g73
(dp1420
g81
I4
ssg82
g1414
sg75
(lp1421
S'<uwsgi_file__bin_user_wsgi_wrapper.ErrorLogWrapper object at 0x23e5ed0>'
p1422
asbasbasbag68
(g84
g70
NtRp1423
(dp1424
g73
(dp1425
sg82
g486
sg75
(lp1426
g68
(g89
g70
NtRp1427
(dp1428
g73
(dp1429
g93
g94
ssg82
g1423
sg75
(lp1430
S'wsgi_file_wrapper'
p1431
asbag68
(g89
g70
NtRp1432
(dp1433
g73
(dp1434
g100
g101
ssg82
g1423
sg75
(lp1435
S':'
asbag68
(g89
g70
NtRp1436
(dp1437
g73
(dp1438
sg82
g1423
sg75
(lp1439
g68
(g69
g70
NtRp1440
(dp1441
g73
(dp1442
g81
I4
ssg82
g1436
sg75
(lp1443
S'<built-in function uwsgi_sendfile>'
p1444
asbasbasbag68
(g84
g70
NtRp1445
(dp1446
g73
(dp1447
sg82
g486
sg75
(lp1448
g68
(g89
g70
NtRp1449
(dp1450
g73
(dp1451
g93
g94
ssg82
g1445
sg75
(lp1452
S'wsgi_input'
p1453
asbag68
(g89
g70
NtRp1454
(dp1455
g73
(dp1456
g100
g101
ssg82
g1445
sg75
(lp1457
S':'
asbag68
(g89
g70
NtRp1458
(dp1459
g73
(dp1460
sg82
g1445
sg75
(lp1461
g68
(g69
g70
NtRp1462
(dp1463
g73
(dp1464
g81
I4
ssg82
g1458
sg75
(lp1465
S'<uwsgi._Input object at 0x2945630>'
p1466
asbasbasbag68
(g84
g70
NtRp1467
(dp1468
g73
(dp1469
sg82
g486
sg75
(lp1470
g68
(g89
g70
NtRp1471
(dp1472
g73
(dp1473
g93
g94
ssg82
g1467
sg75
(lp1474
S'wsgi_multiprocess'
p1475
asbag68
(g89
g70
NtRp1476
(dp1477
g73
(dp1478
g100
g101
ssg82
g1467
sg75
(lp1479
S':'
asbag68
(g89
g70
NtRp1480
(dp1481
g73
(dp1482
sg82
g1467
sg75
(lp1483
g68
(g69
g70
NtRp1484
(dp1485
g73
(dp1486
g81
I4
ssg82
g1480
sg75
(lp1487
g111
asbasbasbag68
(g84
g70
NtRp1488
(dp1489
g73
(dp1490
sg82
g486
sg75
(lp1491
g68
(g89
g70
NtRp1492
(dp1493
g73
(dp1494
g93
g94
ssg82
g1488
sg75
(lp1495
S'wsgi_multithread'
p1496
asbag68
(g89
g70
NtRp1497
(dp1498
g73
(dp1499
g100
g101
ssg82
g1488
sg75
(lp1500
S':'
asbag68
(g89
g70
NtRp1501
(dp1502
g73
(dp1503
sg82
g1488
sg75
(lp1504
g68
(g69
g70
NtRp1505
(dp1506
g73
(dp1507
g81
I4
ssg82
g1501
sg75
(lp1508
g111
asbasbasbag68
(g84
g70
NtRp1509
(dp1510
g73
(dp1511
sg82
g486
sg75
(lp1512
g68
(g89
g70
NtRp1513
(dp1514
g73
(dp1515
g93
g94
ssg82
g1509
sg75
(lp1516
S'wsgi_run_once'
p1517
asbag68
(g89
g70
NtRp1518
(dp1519
g73
(dp1520
g100
g101
ssg82
g1509
sg75
(lp1521
S':'
asbag68
(g89
g70
NtRp1522
(dp1523
g73
(dp1524
sg82
g1509
sg75
(lp1525
g68
(g69
g70
NtRp1526
(dp1527
g73
(dp1528
g81
I4
ssg82
g1522
sg75
(lp1529
g111
asbasbasbag68
(g84
g70
NtRp1530
(dp1531
g73
(dp1532
sg82
g486
sg75
(lp1533
g68
(g89
g70
NtRp1534
(dp1535
g73
(dp1536
g93
g94
ssg82
g1530
sg75
(lp1537
S'wsgi_url_scheme'
p1538
asbag68
(g89
g70
NtRp1539
(dp1540
g73
(dp1541
g100
g101
ssg82
g1530
sg75
(lp1542
S':'
asbag68
(g89
g70
NtRp1543
(dp1544
g73
(dp1545
sg82
g1530
sg75
(lp1546
g68
(g69
g70
NtRp1547
(dp1548
g73
(dp1549
g81
I4
ssg82
g1543
sg75
(lp1550
S'http'
p1551
asbasbasbag68
(g84
g70
NtRp1552
(dp1553
g73
(dp1554
sg82
g486
sg75
(lp1555
g68
(g89
g70
NtRp1556
(dp1557
g73
(dp1558
g93
g94
ssg82
g1552
sg75
(lp1559
S'wsgi_version'
p1560
asbag68
(g89
g70
NtRp1561
(dp1562
g73
(dp1563
g100
g101
ssg82
g1552
sg75
(lp1564
S':'
asbag68
(g89
g70
NtRp1565
(dp1566
g73
(dp1567
sg82
g1552
sg75
(lp1568
g68
(g69
g70
NtRp1569
(dp1570
g73
(dp1571
g81
I4
ssg82
g1565
sg75
(lp1572
g68
(g77
g70
NtRp1573
(dp1574
g73
(dp1575
g81
I3
ssg82
Nsg75
(lp1576
g68
(g84
g70
NtRp1577
(dp1578
g73
(dp1579
sg82
g1573
sg75
(lp1580
g68
(g89
g70
NtRp1581
(dp1582
g73
(dp1583
sg82
g1577
sg75
(lp1584
g68
(g69
g70
NtRp1585
(dp1586
g73
(dp1587
g81
I3
ssg82
g1581
sg75
(lp1588
S'1'
asbasbasbag68
(g84
g70
NtRp1589
(dp1590
g73
(dp1591
sg82
g1573
sg75
(lp1592
g68
(g89
g70
NtRp1593
(dp1594
g73
(dp1595
sg82
g1589
sg75
(lp1596
g68
(g69
g70
NtRp1597
(dp1598
g73
(dp1599
g81
I3
ssg82
g1593
sg75
(lp1600
S'0'
asbasbasbasbasbasbasbasbasbasbasbag68
(g84
g70
NtRp1601
(dp1602
g73
(dp1603
sg82
g78
sg75
(lp1604
g68
(g89
g70
NtRp1605
(dp1606
g73
(dp1607
g93
g94
ssg82
g1601
sg75
(lp1608
S'extension'
p1609
asbag68
(g89
g70
NtRp1610
(dp1611
g73
(dp1612
g100
g101
ssg82
g1601
sg75
(lp1613
S':'
asbag68
(g89
g70
NtRp1614
(dp1615
g73
(dp1616
sg82
g1601
sg75
(lp1617
g68
(g69
g70
NtRp1618
(dp1619
g73
(dp1620
g81
I5
ssg82
g1614
sg75
(lp1621
S'html'
p1622
asbasbasbag68
(g84
g70
NtRp1623
(dp1624
g73
(dp1625
sg82
g78
sg75
(lp1626
g68
(g89
g70
NtRp1627
(dp1628
g73
(dp1629
g93
g94
ssg82
g1623
sg75
(lp1630
S'folder'
p1631
asbag68
(g89
g70
NtRp1632
(dp1633
g73
(dp1634
g100
g101
ssg82
g1623
sg75
(lp1635
S':'
asbag68
(g89
g70
NtRp1636
(dp1637
g73
(dp1638
sg82
g1623
sg75
(lp1639
g68
(g69
g70
NtRp1640
(dp1641
g73
(dp1642
g81
I5
ssg82
g1636
sg75
(lp1643
S'/home/rsoutelino/web2py/applications/rsoutelino/'
p1644
asbasbasbag68
(g84
g70
NtRp1645
(dp1646
g73
(dp1647
sg82
g78
sg75
(lp1648
g68
(g89
g70
NtRp1649
(dp1650
g73
(dp1651
g93
g94
ssg82
g1645
sg75
(lp1652
S'function'
p1653
asbag68
(g89
g70
NtRp1654
(dp1655
g73
(dp1656
g100
g101
ssg82
g1645
sg75
(lp1657
S':'
asbag68
(g89
g70
NtRp1658
(dp1659
g73
(dp1660
sg82
g1645
sg75
(lp1661
g68
(g69
g70
NtRp1662
(dp1663
g73
(dp1664
g81
I5
ssg82
g1658
sg75
(lp1665
S'contact'
p1666
asbasbasbag68
(g84
g70
NtRp1667
(dp1668
g73
(dp1669
sg82
g78
sg75
(lp1670
g68
(g89
g70
NtRp1671
(dp1672
g73
(dp1673
g93
g94
ssg82
g1667
sg75
(lp1674
S'get_vars'
p1675
asbag68
(g89
g70
NtRp1676
(dp1677
g73
(dp1678
g100
g101
ssg82
g1667
sg75
(lp1679
S':'
asbag68
(g89
g70
NtRp1680
(dp1681
g73
(dp1682
sg82
g1667
sg75
(lp1683
g68
(g69
g70
NtRp1684
(dp1685
g73
(dp1686
g81
I5
ssg82
g1680
sg75
(lp1687
g68
(g77
g70
NtRp1688
(dp1689
g73
(dp1690
g81
I4
ssg82
Nsg75
(lp1691
sbasbasbasbag68
(g84
g70
NtRp1692
(dp1693
g73
(dp1694
sg82
g78
sg75
(lp1695
g68
(g89
g70
NtRp1696
(dp1697
g73
(dp1698
g93
g94
ssg82
g1692
sg75
(lp1699
S'global_settings'
p1700
asbag68
(g89
g70
NtRp1701
(dp1702
g73
(dp1703
g100
g101
ssg82
g1692
sg75
(lp1704
S':'
asbag68
(g89
g70
NtRp1705
(dp1706
g73
(dp1707
sg82
g1692
sg75
(lp1708
g68
(g69
g70
NtRp1709
(dp1710
g73
(dp1711
g81
I5
ssg82
g1705
sg75
(lp1712
g68
(g77
g70
NtRp1713
(dp1714
g73
(dp1715
g81
I4
ssg82
Nsg75
(lp1716
g68
(g84
g70
NtRp1717
(dp1718
g73
(dp1719
sg82
g1713
sg75
(lp1720
g68
(g89
g70
NtRp1721
(dp1722
g73
(dp1723
g93
g94
ssg82
g1717
sg75
(lp1724
g498
asbag68
(g89
g70
NtRp1725
(dp1726
g73
(dp1727
g100
g101
ssg82
g1717
sg75
(lp1728
S':'
asbag68
(g89
g70
NtRp1729
(dp1730
g73
(dp1731
sg82
g1717
sg75
(lp1732
g68
(g69
g70
NtRp1733
(dp1734
g73
(dp1735
g81
I4
ssg82
g1729
sg75
(lp1736
S"set(['/home/rsoutelino/web2py/applications/rsoutelino/', '/home/rsoutelino/web2py/applications/admin/'])"
p1737
asbasbasbag68
(g84
g70
NtRp1738
(dp1739
g73
(dp1740
sg82
g1713
sg75
(lp1741
g68
(g89
g70
NtRp1742
(dp1743
g73
(dp1744
g93
g94
ssg82
g1738
sg75
(lp1745
g520
asbag68
(g89
g70
NtRp1746
(dp1747
g73
(dp1748
g100
g101
ssg82
g1738
sg75
(lp1749
S':'
asbag68
(g89
g70
NtRp1750
(dp1751
g73
(dp1752
sg82
g1738
sg75
(lp1753
g68
(g69
g70
NtRp1754
(dp1755
g73
(dp1756
g81
I4
ssg82
g1750
sg75
(lp1757
g533
asbasbasbag68
(g84
g70
NtRp1758
(dp1759
g73
(dp1760
sg82
g1713
sg75
(lp1761
g68
(g89
g70
NtRp1762
(dp1763
g73
(dp1764
g93
g94
ssg82
g1758
sg75
(lp1765
g584
asbag68
(g89
g70
NtRp1766
(dp1767
g73
(dp1768
g100
g101
ssg82
g1758
sg75
(lp1769
S':'
asbag68
(g89
g70
NtRp1770
(dp1771
g73
(dp1772
sg82
g1758
sg75
(lp1773
g68
(g69
g70
NtRp1774
(dp1775
g73
(dp1776
g81
I4
ssg82
g1770
sg75
(lp1777
S'set([])'
p1778
asbasbasbag68
(g84
g70
NtRp1779
(dp1780
g73
(dp1781
sg82
g1713
sg75
(lp1782
g68
(g89
g70
NtRp1783
(dp1784
g73
(dp1785
g93
g94
ssg82
g1779
sg75
(lp1786
g606
asbag68
(g89
g70
NtRp1787
(dp1788
g73
(dp1789
g100
g101
ssg82
g1779
sg75
(lp1790
S':'
asbag68
(g89
g70
NtRp1791
(dp1792
g73
(dp1793
sg82
g1779
sg75
(lp1794
g68
(g69
g70
NtRp1795
(dp1796
g73
(dp1797
g81
I4
ssg82
g1791
sg75
(lp1798
g111
asbasbasbag68
(g84
g70
NtRp1799
(dp1800
g73
(dp1801
sg82
g1713
sg75
(lp1802
g68
(g89
g70
NtRp1803
(dp1804
g73
(dp1805
g93
g94
ssg82
g1799
sg75
(lp1806
g649
asbag68
(g89
g70
NtRp1807
(dp1808
g73
(dp1809
g100
g101
ssg82
g1799
sg75
(lp1810
S':'
asbag68
(g89
g70
NtRp1811
(dp1812
g73
(dp1813
sg82
g1799
sg75
(lp1814
g68
(g69
g70
NtRp1815
(dp1816
g73
(dp1817
g81
I4
ssg82
g1811
sg75
(lp1818
g533
asbasbasbag68
(g84
g70
NtRp1819
(dp1820
g73
(dp1821
sg82
g1713
sg75
(lp1822
g68
(g89
g70
NtRp1823
(dp1824
g73
(dp1825
g93
g94
ssg82
g1819
sg75
(lp1826
g933
asbag68
(g89
g70
NtRp1827
(dp1828
g73
(dp1829
g100
g101
ssg82
g1819
sg75
(lp1830
S':'
asbag68
(g89
g70
NtRp1831
(dp1832
g73
(dp1833
sg82
g1819
sg75
(lp1834
g68
(g69
g70
NtRp1835
(dp1836
g73
(dp1837
g81
I4
ssg82
g1831
sg75
(lp1838
g111
asbasbasbag68
(g84
g70
NtRp1839
(dp1840
g73
(dp1841
sg82
g1713
sg75
(lp1842
g68
(g89
g70
NtRp1843
(dp1844
g73
(dp1845
g93
g94
ssg82
g1839
sg75
(lp1846
g954
asbag68
(g89
g70
NtRp1847
(dp1848
g73
(dp1849
g100
g101
ssg82
g1839
sg75
(lp1850
S':'
asbag68
(g89
g70
NtRp1851
(dp1852
g73
(dp1853
sg82
g1839
sg75
(lp1854
g68
(g69
g70
NtRp1855
(dp1856
g73
(dp1857
g81
I4
ssg82
g1851
sg75
(lp1858
g111
asbasbasbag68
(g84
g70
NtRp1859
(dp1860
g73
(dp1861
sg82
g1713
sg75
(lp1862
g68
(g89
g70
NtRp1863
(dp1864
g73
(dp1865
g93
g94
ssg82
g1859
sg75
(lp1866
g975
asbag68
(g89
g70
NtRp1867
(dp1868
g73
(dp1869
g100
g101
ssg82
g1859
sg75
(lp1870
S':'
asbag68
(g89
g70
NtRp1871
(dp1872
g73
(dp1873
sg82
g1859
sg75
(lp1874
g68
(g69
g70
NtRp1875
(dp1876
g73
(dp1877
g81
I4
ssg82
g1871
sg75
(lp1878
g68
(g77
g70
NtRp1879
(dp1880
g73
(dp1881
g81
I3
ssg82
Nsg75
(lp1882
g68
(g84
g70
NtRp1883
(dp1884
g73
(dp1885
sg82
g1879
sg75
(lp1886
g68
(g89
g70
NtRp1887
(dp1888
g73
(dp1889
sg82
g1883
sg75
(lp1890
g68
(g69
g70
NtRp1891
(dp1892
g73
(dp1893
g81
I3
ssg82
g1887
sg75
(lp1894
g1004
asbasbasbag68
(g84
g70
NtRp1895
(dp1896
g73
(dp1897
sg82
g1879
sg75
(lp1898
g68
(g89
g70
NtRp1899
(dp1900
g73
(dp1901
sg82
g1895
sg75
(lp1902
g68
(g69
g70
NtRp1903
(dp1904
g73
(dp1905
g81
I3
ssg82
g1899
sg75
(lp1906
g1017
asbasbasbag68
(g84
g70
NtRp1907
(dp1908
g73
(dp1909
sg82
g1879
sg75
(lp1910
g68
(g89
g70
NtRp1911
(dp1912
g73
(dp1913
sg82
g1907
sg75
(lp1914
g68
(g69
g70
NtRp1915
(dp1916
g73
(dp1917
g81
I3
ssg82
g1911
sg75
(lp1918
g1030
asbasbasbasbasbasbasbag68
(g84
g70
NtRp1919
(dp1920
g73
(dp1921
sg82
g1713
sg75
(lp1922
g68
(g89
g70
NtRp1923
(dp1924
g73
(dp1925
g93
g94
ssg82
g1919
sg75
(lp1926
g1322
asbag68
(g89
g70
NtRp1927
(dp1928
g73
(dp1929
g100
g101
ssg82
g1919
sg75
(lp1930
S':'
asbag68
(g89
g70
NtRp1931
(dp1932
g73
(dp1933
sg82
g1919
sg75
(lp1934
g68
(g69
g70
NtRp1935
(dp1936
g73
(dp1937
g81
I4
ssg82
g1931
sg75
(lp1938
g68
(g77
g70
NtRp1939
(dp1940
g73
(dp1941
g81
I3
ssg82
Nsg75
(lp1942
g68
(g84
g70
NtRp1943
(dp1944
g73
(dp1945
sg82
g1939
sg75
(lp1946
g68
(g89
g70
NtRp1947
(dp1948
g73
(dp1949
sg82
g1943
sg75
(lp1950
g68
(g69
g70
NtRp1951
(dp1952
g73
(dp1953
g81
I3
ssg82
g1947
sg75
(lp1954
S'2'
asbasbasbag68
(g84
g70
NtRp1955
(dp1956
g73
(dp1957
sg82
g1939
sg75
(lp1958
g68
(g89
g70
NtRp1959
(dp1960
g73
(dp1961
sg82
g1955
sg75
(lp1962
g68
(g69
g70
NtRp1963
(dp1964
g73
(dp1965
g81
I3
ssg82
g1959
sg75
(lp1966
S'2'
asbasbasbag68
(g84
g70
NtRp1967
(dp1968
g73
(dp1969
sg82
g1939
sg75
(lp1970
g68
(g89
g70
NtRp1971
(dp1972
g73
(dp1973
sg82
g1967
sg75
(lp1974
g68
(g69
g70
NtRp1975
(dp1976
g73
(dp1977
g81
I3
ssg82
g1971
sg75
(lp1978
S'1'
asbasbasbag68
(g84
g70
NtRp1979
(dp1980
g73
(dp1981
sg82
g1939
sg75
(lp1982
g68
(g89
g70
NtRp1983
(dp1984
g73
(dp1985
sg82
g1979
sg75
(lp1986
g68
(g69
g70
NtRp1987
(dp1988
g73
(dp1989
g81
I3
ssg82
g1983
sg75
(lp1990
S'datetime.datetime(2012, 10, 21, 16, 57, 4)'
p1991
asbasbasbag68
(g84
g70
NtRp1992
(dp1993
g73
(dp1994
sg82
g1939
sg75
(lp1995
g68
(g89
g70
NtRp1996
(dp1997
g73
(dp1998
sg82
g1992
sg75
(lp1999
g68
(g69
g70
NtRp2000
(dp2001
g73
(dp2002
g81
I3
ssg82
g1996
sg75
(lp2003
g1400
asbasbasbasbasbasbasbasbasbasbasbag68
(g84
g70
NtRp2004
(dp2005
g73
(dp2006
sg82
g78
sg75
(lp2007
g68
(g89
g70
NtRp2008
(dp2009
g73
(dp2010
g93
g94
ssg82
g2004
sg75
(lp2011
S'is_https'
p2012
asbag68
(g89
g70
NtRp2013
(dp2014
g73
(dp2015
g100
g101
ssg82
g2004
sg75
(lp2016
S':'
asbag68
(g89
g70
NtRp2017
(dp2018
g73
(dp2019
sg82
g2004
sg75
(lp2020
g68
(g69
g70
NtRp2021
(dp2022
g73
(dp2023
g81
I5
ssg82
g2017
sg75
(lp2024
g111
asbasbasbag68
(g84
g70
NtRp2025
(dp2026
g73
(dp2027
sg82
g78
sg75
(lp2028
g68
(g89
g70
NtRp2029
(dp2030
g73
(dp2031
g93
g94
ssg82
g2025
sg75
(lp2032
S'is_local'
p2033
asbag68
(g89
g70
NtRp2034
(dp2035
g73
(dp2036
g100
g101
ssg82
g2025
sg75
(lp2037
S':'
asbag68
(g89
g70
NtRp2038
(dp2039
g73
(dp2040
sg82
g2025
sg75
(lp2041
g68
(g69
g70
NtRp2042
(dp2043
g73
(dp2044
g81
I5
ssg82
g2038
sg75
(lp2045
g111
asbasbasbag68
(g84
g70
NtRp2046
(dp2047
g73
(dp2048
sg82
g78
sg75
(lp2049
g68
(g89
g70
NtRp2050
(dp2051
g73
(dp2052
g93
g94
ssg82
g2046
sg75
(lp2053
S'is_restful'
p2054
asbag68
(g89
g70
NtRp2055
(dp2056
g73
(dp2057
g100
g101
ssg82
g2046
sg75
(lp2058
S':'
asbag68
(g89
g70
NtRp2059
(dp2060
g73
(dp2061
sg82
g2046
sg75
(lp2062
g68
(g69
g70
NtRp2063
(dp2064
g73
(dp2065
g81
I5
ssg82
g2059
sg75
(lp2066
g111
asbasbasbag68
(g84
g70
NtRp2067
(dp2068
g73
(dp2069
sg82
g78
sg75
(lp2070
g68
(g89
g70
NtRp2071
(dp2072
g73
(dp2073
g93
g94
ssg82
g2067
sg75
(lp2074
S'now'
p2075
asbag68
(g89
g70
NtRp2076
(dp2077
g73
(dp2078
g100
g101
ssg82
g2067
sg75
(lp2079
S':'
asbag68
(g89
g70
NtRp2080
(dp2081
g73
(dp2082
sg82
g2067
sg75
(lp2083
g68
(g69
g70
NtRp2084
(dp2085
g73
(dp2086
g81
I5
ssg82
g2080
sg75
(lp2087
S'datetime.datetime(2013, 2, 7, 12, 8, 31, 76182)'
p2088
asbasbasbag68
(g84
g70
NtRp2089
(dp2090
g73
(dp2091
sg82
g78
sg75
(lp2092
g68
(g89
g70
NtRp2093
(dp2094
g73
(dp2095
g93
g94
ssg82
g2089
sg75
(lp2096
S'post_vars'
p2097
asbag68
(g89
g70
NtRp2098
(dp2099
g73
(dp2100
g100
g101
ssg82
g2089
sg75
(lp2101
S':'
asbag68
(g89
g70
NtRp2102
(dp2103
g73
(dp2104
sg82
g2089
sg75
(lp2105
g68
(g69
g70
NtRp2106
(dp2107
g73
(dp2108
g81
I5
ssg82
g2102
sg75
(lp2109
g68
(g77
g70
NtRp2110
(dp2111
g73
(dp2112
g81
I4
ssg82
Nsg75
(lp2113
sbasbasbasbag68
(g84
g70
NtRp2114
(dp2115
g73
(dp2116
sg82
g78
sg75
(lp2117
g68
(g89
g70
NtRp2118
(dp2119
g73
(dp2120
g93
g94
ssg82
g2114
sg75
(lp2121
S'raw_args'
p2122
asbag68
(g89
g70
NtRp2123
(dp2124
g73
(dp2125
g100
g101
ssg82
g2114
sg75
(lp2126
S':'
asbag68
(g89
g70
NtRp2127
(dp2128
g73
(dp2129
sg82
g2114
sg75
(lp2130
g68
(g69
g70
NtRp2131
(dp2132
g73
(dp2133
g81
I5
ssg82
g2127
sg75
(lp2134
S''
asbasbasbag68
(g84
g70
NtRp2135
(dp2136
g73
(dp2137
sg82
g78
sg75
(lp2138
g68
(g89
g70
NtRp2139
(dp2140
g73
(dp2141
g93
g94
ssg82
g2135
sg75
(lp2142
S'raw_extension'
p2143
asbag68
(g89
g70
NtRp2144
(dp2145
g73
(dp2146
g100
g101
ssg82
g2135
sg75
(lp2147
S':'
asbag68
(g89
g70
NtRp2148
(dp2149
g73
(dp2150
sg82
g2135
sg75
(lp2151
g68
(g69
g70
NtRp2152
(dp2153
g73
(dp2154
g81
I5
ssg82
g2148
sg75
(lp2155
S'None'
p2156
asbasbasbag68
(g84
g70
NtRp2157
(dp2158
g73
(dp2159
sg82
g78
sg75
(lp2160
g68
(g89
g70
NtRp2161
(dp2162
g73
(dp2163
g93
g94
ssg82
g2157
sg75
(lp2164
S'url'
p2165
asbag68
(g89
g70
NtRp2166
(dp2167
g73
(dp2168
g100
g101
ssg82
g2157
sg75
(lp2169
S':'
asbag68
(g89
g70
NtRp2170
(dp2171
g73
(dp2172
sg82
g2157
sg75
(lp2173
g68
(g69
g70
NtRp2174
(dp2175
g73
(dp2176
g81
I5
ssg82
g2170
sg75
(lp2177
g1052
asbasbasbag68
(g84
g70
NtRp2178
(dp2179
g73
(dp2180
sg82
g78
sg75
(lp2181
g68
(g89
g70
NtRp2182
(dp2183
g73
(dp2184
g93
g94
ssg82
g2178
sg75
(lp2185
S'utcnow'
p2186
asbag68
(g89
g70
NtRp2187
(dp2188
g73
(dp2189
g100
g101
ssg82
g2178
sg75
(lp2190
S':'
asbag68
(g89
g70
NtRp2191
(dp2192
g73
(dp2193
sg82
g2178
sg75
(lp2194
g68
(g69
g70
NtRp2195
(dp2196
g73
(dp2197
g81
I5
ssg82
g2191
sg75
(lp2198
S'datetime.datetime(2013, 2, 7, 12, 8, 31, 76210)'
p2199
asbasbasbag68
(g84
g70
NtRp2200
(dp2201
g73
(dp2202
sg82
g78
sg75
(lp2203
g68
(g89
g70
NtRp2204
(dp2205
g73
(dp2206
g93
g94
ssg82
g2200
sg75
(lp2207
S'uuid'
p2208
asbag68
(g89
g70
NtRp2209
(dp2210
g73
(dp2211
g100
g101
ssg82
g2200
sg75
(lp2212
S':'
asbag68
(g89
g70
NtRp2213
(dp2214
g73
(dp2215
sg82
g2200
sg75
(lp2216
g68
(g69
g70
NtRp2217
(dp2218
g73
(dp2219
g81
I5
ssg82
g2213
sg75
(lp2220
S'rsoutelino/172.30.6.206.2013-02-07.12-08-31.099a136b-2f08-4402-9ff2-db124be13772'
p2221
asbasbasbag68
(g84
g70
NtRp2222
(dp2223
g73
(dp2224
sg82
g78
sg75
(lp2225
g68
(g89
g70
NtRp2226
(dp2227
g73
(dp2228
g93
g94
ssg82
g2222
sg75
(lp2229
S'vars'
p2230
asbag68
(g89
g70
NtRp2231
(dp2232
g73
(dp2233
g100
g101
ssg82
g2222
sg75
(lp2234
S':'
asbag68
(g89
g70
NtRp2235
(dp2236
g73
(dp2237
sg82
g2222
sg75
(lp2238
g68
(g69
g70
NtRp2239
(dp2240
g73
(dp2241
g81
I5
ssg82
g2235
sg75
(lp2242
g68
(g77
g70
NtRp2243
(dp2244
g73
(dp2245
g81
I4
ssg82
Nsg75
(lp2246
sbasbasbasbag68
(g84
g70
NtRp2247
(dp2248
g73
(dp2249
sg82
g78
sg75
(lp2250
g68
(g89
g70
NtRp2251
(dp2252
g73
(dp2253
g93
g94
ssg82
g2247
sg75
(lp2254
S'wsgi'
p2255
asbag68
(g89
g70
NtRp2256
(dp2257
g73
(dp2258
g100
g101
ssg82
g2247
sg75
(lp2259
S':'
asbag68
(g89
g70
NtRp2260
(dp2261
g73
(dp2262
sg82
g2247
sg75
(lp2263
g68
(g69
g70
NtRp2264
(dp2265
g73
(dp2266
g81
I5
ssg82
g2260
sg75
(lp2267
g68
(g77
g70
NtRp2268
(dp2269
g73
(dp2270
g81
I4
ssg82
Nsg75
(lp2271
g68
(g84
g70
NtRp2272
(dp2273
g73
(dp2274
sg82
g2268
sg75
(lp2275
g68
(g89
g70
NtRp2276
(dp2277
g73
(dp2278
g93
g94
ssg82
g2272
sg75
(lp2279
S'environ'
p2280
asbag68
(g89
g70
NtRp2281
(dp2282
g73
(dp2283
g100
g101
ssg82
g2272
sg75
(lp2284
S':'
asbag68
(g89
g70
NtRp2285
(dp2286
g73
(dp2287
sg82
g2272
sg75
(lp2288
g68
(g69
g70
NtRp2289
(dp2290
g73
(dp2291
g81
I4
ssg82
g2285
sg75
(lp2292
g68
(g77
g70
NtRp2293
(dp2294
g73
(dp2295
g81
I3
ssg82
Nsg75
(lp2296
g68
(g84
g70
NtRp2297
(dp2298
g73
(dp2299
sg82
g2293
sg75
(lp2300
g68
(g89
g70
NtRp2301
(dp2302
g73
(dp2303
g93
g94
ssg82
g2297
sg75
(lp2304
S'CONTENT_LENGTH'
p2305
asbag68
(g89
g70
NtRp2306
(dp2307
g73
(dp2308
g100
g101
ssg82
g2297
sg75
(lp2309
S':'
asbag68
(g89
g70
NtRp2310
(dp2311
g73
(dp2312
sg82
g2297
sg75
(lp2313
g68
(g69
g70
NtRp2314
(dp2315
g73
(dp2316
g81
I3
ssg82
g2310
sg75
(lp2317
S''
asbasbasbag68
(g84
g70
NtRp2318
(dp2319
g73
(dp2320
sg82
g2293
sg75
(lp2321
g68
(g89
g70
NtRp2322
(dp2323
g73
(dp2324
g93
g94
ssg82
g2318
sg75
(lp2325
S'CONTENT_TYPE'
p2326
asbag68
(g89
g70
NtRp2327
(dp2328
g73
(dp2329
g100
g101
ssg82
g2318
sg75
(lp2330
S':'
asbag68
(g89
g70
NtRp2331
(dp2332
g73
(dp2333
sg82
g2318
sg75
(lp2334
g68
(g69
g70
NtRp2335
(dp2336
g73
(dp2337
g81
I3
ssg82
g2331
sg75
(lp2338
S''
asbasbasbag68
(g84
g70
NtRp2339
(dp2340
g73
(dp2341
sg82
g2293
sg75
(lp2342
g68
(g89
g70
NtRp2343
(dp2344
g73
(dp2345
g93
g94
ssg82
g2339
sg75
(lp2346
S'DOCUMENT_ROOT'
p2347
asbag68
(g89
g70
NtRp2348
(dp2349
g73
(dp2350
g100
g101
ssg82
g2339
sg75
(lp2351
S':'
asbag68
(g89
g70
NtRp2352
(dp2353
g73
(dp2354
sg82
g2339
sg75
(lp2355
g68
(g69
g70
NtRp2356
(dp2357
g73
(dp2358
g81
I3
ssg82
g2352
sg75
(lp2359
g640
asbasbasbag68
(g84
g70
NtRp2360
(dp2361
g73
(dp2362
sg82
g2293
sg75
(lp2363
g68
(g89
g70
NtRp2364
(dp2365
g73
(dp2366
g93
g94
ssg82
g2360
sg75
(lp2367
S'HTTP_ACCEPT'
p2368
asbag68
(g89
g70
NtRp2369
(dp2370
g73
(dp2371
g100
g101
ssg82
g2360
sg75
(lp2372
S':'
asbag68
(g89
g70
NtRp2373
(dp2374
g73
(dp2375
sg82
g2360
sg75
(lp2376
g68
(g69
g70
NtRp2377
(dp2378
g73
(dp2379
g81
I3
ssg82
g2373
sg75
(lp2380
g683
asbasbasbag68
(g84
g70
NtRp2381
(dp2382
g73
(dp2383
sg82
g2293
sg75
(lp2384
g68
(g89
g70
NtRp2385
(dp2386
g73
(dp2387
g93
g94
ssg82
g2381
sg75
(lp2388
S'HTTP_ACCEPT_CHARSET'
p2389
asbag68
(g89
g70
NtRp2390
(dp2391
g73
(dp2392
g100
g101
ssg82
g2381
sg75
(lp2393
S':'
asbag68
(g89
g70
NtRp2394
(dp2395
g73
(dp2396
sg82
g2381
sg75
(lp2397
g68
(g69
g70
NtRp2398
(dp2399
g73
(dp2400
g81
I3
ssg82
g2394
sg75
(lp2401
g705
asbasbasbag68
(g84
g70
NtRp2402
(dp2403
g73
(dp2404
sg82
g2293
sg75
(lp2405
g68
(g89
g70
NtRp2406
(dp2407
g73
(dp2408
g93
g94
ssg82
g2402
sg75
(lp2409
S'HTTP_ACCEPT_ENCODING'
p2410
asbag68
(g89
g70
NtRp2411
(dp2412
g73
(dp2413
g100
g101
ssg82
g2402
sg75
(lp2414
S':'
asbag68
(g89
g70
NtRp2415
(dp2416
g73
(dp2417
sg82
g2402
sg75
(lp2418
g68
(g69
g70
NtRp2419
(dp2420
g73
(dp2421
g81
I3
ssg82
g2415
sg75
(lp2422
g727
asbasbasbag68
(g84
g70
NtRp2423
(dp2424
g73
(dp2425
sg82
g2293
sg75
(lp2426
g68
(g89
g70
NtRp2427
(dp2428
g73
(dp2429
g93
g94
ssg82
g2423
sg75
(lp2430
S'HTTP_ACCEPT_LANGUAGE'
p2431
asbag68
(g89
g70
NtRp2432
(dp2433
g73
(dp2434
g100
g101
ssg82
g2423
sg75
(lp2435
S':'
asbag68
(g89
g70
NtRp2436
(dp2437
g73
(dp2438
sg82
g2423
sg75
(lp2439
g68
(g69
g70
NtRp2440
(dp2441
g73
(dp2442
g81
I3
ssg82
g2436
sg75
(lp2443
g749
asbasbasbag68
(g84
g70
NtRp2444
(dp2445
g73
(dp2446
sg82
g2293
sg75
(lp2447
g68
(g89
g70
NtRp2448
(dp2449
g73
(dp2450
g93
g94
ssg82
g2444
sg75
(lp2451
S'HTTP_CACHE_CONTROL'
p2452
asbag68
(g89
g70
NtRp2453
(dp2454
g73
(dp2455
g100
g101
ssg82
g2444
sg75
(lp2456
S':'
asbag68
(g89
g70
NtRp2457
(dp2458
g73
(dp2459
sg82
g2444
sg75
(lp2460
g68
(g69
g70
NtRp2461
(dp2462
g73
(dp2463
g81
I3
ssg82
g2457
sg75
(lp2464
g771
asbasbasbag68
(g84
g70
NtRp2465
(dp2466
g73
(dp2467
sg82
g2293
sg75
(lp2468
g68
(g89
g70
NtRp2469
(dp2470
g73
(dp2471
g93
g94
ssg82
g2465
sg75
(lp2472
S'HTTP_CONNECTION'
p2473
asbag68
(g89
g70
NtRp2474
(dp2475
g73
(dp2476
g100
g101
ssg82
g2465
sg75
(lp2477
S':'
asbag68
(g89
g70
NtRp2478
(dp2479
g73
(dp2480
sg82
g2465
sg75
(lp2481
g68
(g69
g70
NtRp2482
(dp2483
g73
(dp2484
g81
I3
ssg82
g2478
sg75
(lp2485
g793
asbasbasbag68
(g84
g70
NtRp2486
(dp2487
g73
(dp2488
sg82
g2293
sg75
(lp2489
g68
(g89
g70
NtRp2490
(dp2491
g73
(dp2492
g93
g94
ssg82
g2486
sg75
(lp2493
S'HTTP_COOKIE'
p2494
asbag68
(g89
g70
NtRp2495
(dp2496
g73
(dp2497
g100
g101
ssg82
g2486
sg75
(lp2498
S':'
asbag68
(g89
g70
NtRp2499
(dp2500
g73
(dp2501
sg82
g2486
sg75
(lp2502
g68
(g69
g70
NtRp2503
(dp2504
g73
(dp2505
g81
I3
ssg82
g2499
sg75
(lp2506
g815
asbasbasbag68
(g84
g70
NtRp2507
(dp2508
g73
(dp2509
sg82
g2293
sg75
(lp2510
g68
(g89
g70
NtRp2511
(dp2512
g73
(dp2513
g93
g94
ssg82
g2507
sg75
(lp2514
S'HTTP_HOST'
p2515
asbag68
(g89
g70
NtRp2516
(dp2517
g73
(dp2518
g100
g101
ssg82
g2507
sg75
(lp2519
S':'
asbag68
(g89
g70
NtRp2520
(dp2521
g73
(dp2522
sg82
g2507
sg75
(lp2523
g68
(g69
g70
NtRp2524
(dp2525
g73
(dp2526
g81
I3
ssg82
g2520
sg75
(lp2527
g837
asbasbasbag68
(g84
g70
NtRp2528
(dp2529
g73
(dp2530
sg82
g2293
sg75
(lp2531
g68
(g89
g70
NtRp2532
(dp2533
g73
(dp2534
g93
g94
ssg82
g2528
sg75
(lp2535
S'HTTP_REFERER'
p2536
asbag68
(g89
g70
NtRp2537
(dp2538
g73
(dp2539
g100
g101
ssg82
g2528
sg75
(lp2540
S':'
asbag68
(g89
g70
NtRp2541
(dp2542
g73
(dp2543
sg82
g2528
sg75
(lp2544
g68
(g69
g70
NtRp2545
(dp2546
g73
(dp2547
g81
I3
ssg82
g2541
sg75
(lp2548
g859
asbasbasbag68
(g84
g70
NtRp2549
(dp2550
g73
(dp2551
sg82
g2293
sg75
(lp2552
g68
(g89
g70
NtRp2553
(dp2554
g73
(dp2555
g93
g94
ssg82
g2549
sg75
(lp2556
S'HTTP_USER_AGENT'
p2557
asbag68
(g89
g70
NtRp2558
(dp2559
g73
(dp2560
g100
g101
ssg82
g2549
sg75
(lp2561
S':'
asbag68
(g89
g70
NtRp2562
(dp2563
g73
(dp2564
sg82
g2549
sg75
(lp2565
g68
(g69
g70
NtRp2566
(dp2567
g73
(dp2568
g81
I3
ssg82
g2562
sg75
(lp2569
g881
asbasbasbag68
(g84
g70
NtRp2570
(dp2571
g73
(dp2572
sg82
g2293
sg75
(lp2573
g68
(g89
g70
NtRp2574
(dp2575
g73
(dp2576
g93
g94
ssg82
g2570
sg75
(lp2577
S'HTTP_VIA'
p2578
asbag68
(g89
g70
NtRp2579
(dp2580
g73
(dp2581
g100
g101
ssg82
g2570
sg75
(lp2582
S':'
asbag68
(g89
g70
NtRp2583
(dp2584
g73
(dp2585
sg82
g2570
sg75
(lp2586
g68
(g69
g70
NtRp2587
(dp2588
g73
(dp2589
g81
I3
ssg82
g2583
sg75
(lp2590
g903
asbasbasbag68
(g84
g70
NtRp2591
(dp2592
g73
(dp2593
sg82
g2293
sg75
(lp2594
g68
(g89
g70
NtRp2595
(dp2596
g73
(dp2597
g93
g94
ssg82
g2591
sg75
(lp2598
S'HTTP_X_FORWARDED_FOR'
p2599
asbag68
(g89
g70
NtRp2600
(dp2601
g73
(dp2602
g100
g101
ssg82
g2591
sg75
(lp2603
S':'
asbag68
(g89
g70
NtRp2604
(dp2605
g73
(dp2606
sg82
g2591
sg75
(lp2607
g68
(g69
g70
NtRp2608
(dp2609
g73
(dp2610
g81
I3
ssg82
g2604
sg75
(lp2611
g223
asbasbasbag68
(g84
g70
NtRp2612
(dp2613
g73
(dp2614
sg82
g2293
sg75
(lp2615
g68
(g89
g70
NtRp2616
(dp2617
g73
(dp2618
g93
g94
ssg82
g2612
sg75
(lp2619
S'PATH_INFO'
p2620
asbag68
(g89
g70
NtRp2621
(dp2622
g73
(dp2623
g100
g101
ssg82
g2612
sg75
(lp2624
S':'
asbag68
(g89
g70
NtRp2625
(dp2626
g73
(dp2627
sg82
g2612
sg75
(lp2628
g68
(g69
g70
NtRp2629
(dp2630
g73
(dp2631
g81
I3
ssg82
g2625
sg75
(lp2632
g1052
asbasbasbag68
(g84
g70
NtRp2633
(dp2634
g73
(dp2635
sg82
g2293
sg75
(lp2636
g68
(g89
g70
NtRp2637
(dp2638
g73
(dp2639
g93
g94
ssg82
g2633
sg75
(lp2640
S'QUERY_STRING'
p2641
asbag68
(g89
g70
NtRp2642
(dp2643
g73
(dp2644
g100
g101
ssg82
g2633
sg75
(lp2645
S':'
asbag68
(g89
g70
NtRp2646
(dp2647
g73
(dp2648
sg82
g2633
sg75
(lp2649
g68
(g69
g70
NtRp2650
(dp2651
g73
(dp2652
g81
I3
ssg82
g2646
sg75
(lp2653
S''
asbasbasbag68
(g84
g70
NtRp2654
(dp2655
g73
(dp2656
sg82
g2293
sg75
(lp2657
g68
(g89
g70
NtRp2658
(dp2659
g73
(dp2660
g93
g94
ssg82
g2654
sg75
(lp2661
S'REMOTE_ADDR'
p2662
asbag68
(g89
g70
NtRp2663
(dp2664
g73
(dp2665
g100
g101
ssg82
g2654
sg75
(lp2666
S':'
asbag68
(g89
g70
NtRp2667
(dp2668
g73
(dp2669
sg82
g2654
sg75
(lp2670
g68
(g69
g70
NtRp2671
(dp2672
g73
(dp2673
g81
I3
ssg82
g2667
sg75
(lp2674
g1095
asbasbasbag68
(g84
g70
NtRp2675
(dp2676
g73
(dp2677
sg82
g2293
sg75
(lp2678
g68
(g89
g70
NtRp2679
(dp2680
g73
(dp2681
g93
g94
ssg82
g2675
sg75
(lp2682
S'REMOTE_PORT'
p2683
asbag68
(g89
g70
NtRp2684
(dp2685
g73
(dp2686
g100
g101
ssg82
g2675
sg75
(lp2687
S':'
asbag68
(g89
g70
NtRp2688
(dp2689
g73
(dp2690
sg82
g2675
sg75
(lp2691
g68
(g69
g70
NtRp2692
(dp2693
g73
(dp2694
g81
I3
ssg82
g2688
sg75
(lp2695
g1117
asbasbasbag68
(g84
g70
NtRp2696
(dp2697
g73
(dp2698
sg82
g2293
sg75
(lp2699
g68
(g89
g70
NtRp2700
(dp2701
g73
(dp2702
g93
g94
ssg82
g2696
sg75
(lp2703
S'REQUEST_METHOD'
p2704
asbag68
(g89
g70
NtRp2705
(dp2706
g73
(dp2707
g100
g101
ssg82
g2696
sg75
(lp2708
S':'
asbag68
(g89
g70
NtRp2709
(dp2710
g73
(dp2711
sg82
g2696
sg75
(lp2712
g68
(g69
g70
NtRp2713
(dp2714
g73
(dp2715
g81
I3
ssg82
g2709
sg75
(lp2716
g1139
asbasbasbag68
(g84
g70
NtRp2717
(dp2718
g73
(dp2719
sg82
g2293
sg75
(lp2720
g68
(g89
g70
NtRp2721
(dp2722
g73
(dp2723
g93
g94
ssg82
g2717
sg75
(lp2724
S'REQUEST_URI'
p2725
asbag68
(g89
g70
NtRp2726
(dp2727
g73
(dp2728
g100
g101
ssg82
g2717
sg75
(lp2729
S':'
asbag68
(g89
g70
NtRp2730
(dp2731
g73
(dp2732
sg82
g2717
sg75
(lp2733
g68
(g69
g70
NtRp2734
(dp2735
g73
(dp2736
g81
I3
ssg82
g2730
sg75
(lp2737
g1161
asbasbasbag68
(g84
g70
NtRp2738
(dp2739
g73
(dp2740
sg82
g2293
sg75
(lp2741
g68
(g89
g70
NtRp2742
(dp2743
g73
(dp2744
g93
g94
ssg82
g2738
sg75
(lp2745
S'SCRIPT_NAME'
p2746
asbag68
(g89
g70
NtRp2747
(dp2748
g73
(dp2749
g100
g101
ssg82
g2738
sg75
(lp2750
S':'
asbag68
(g89
g70
NtRp2751
(dp2752
g73
(dp2753
sg82
g2738
sg75
(lp2754
g68
(g69
g70
NtRp2755
(dp2756
g73
(dp2757
g81
I3
ssg82
g2751
sg75
(lp2758
S''
asbasbasbag68
(g84
g70
NtRp2759
(dp2760
g73
(dp2761
sg82
g2293
sg75
(lp2762
g68
(g89
g70
NtRp2763
(dp2764
g73
(dp2765
g93
g94
ssg82
g2759
sg75
(lp2766
S'SERVER_NAME'
p2767
asbag68
(g89
g70
NtRp2768
(dp2769
g73
(dp2770
g100
g101
ssg82
g2759
sg75
(lp2771
S':'
asbag68
(g89
g70
NtRp2772
(dp2773
g73
(dp2774
sg82
g2759
sg75
(lp2775
g68
(g69
g70
NtRp2776
(dp2777
g73
(dp2778
g81
I3
ssg82
g2772
sg75
(lp2779
g1204
asbasbasbag68
(g84
g70
NtRp2780
(dp2781
g73
(dp2782
sg82
g2293
sg75
(lp2783
g68
(g89
g70
NtRp2784
(dp2785
g73
(dp2786
g93
g94
ssg82
g2780
sg75
(lp2787
S'SERVER_PORT'
p2788
asbag68
(g89
g70
NtRp2789
(dp2790
g73
(dp2791
g100
g101
ssg82
g2780
sg75
(lp2792
S':'
asbag68
(g89
g70
NtRp2793
(dp2794
g73
(dp2795
sg82
g2780
sg75
(lp2796
g68
(g69
g70
NtRp2797
(dp2798
g73
(dp2799
g81
I3
ssg82
g2793
sg75
(lp2800
g1226
asbasbasbag68
(g84
g70
NtRp2801
(dp2802
g73
(dp2803
sg82
g2293
sg75
(lp2804
g68
(g89
g70
NtRp2805
(dp2806
g73
(dp2807
g93
g94
ssg82
g2801
sg75
(lp2808
S'SERVER_PROTOCOL'
p2809
asbag68
(g89
g70
NtRp2810
(dp2811
g73
(dp2812
g100
g101
ssg82
g2801
sg75
(lp2813
S':'
asbag68
(g89
g70
NtRp2814
(dp2815
g73
(dp2816
sg82
g2801
sg75
(lp2817
g68
(g69
g70
NtRp2818
(dp2819
g73
(dp2820
g81
I3
ssg82
g2814
sg75
(lp2821
g1248
asbasbasbag68
(g84
g70
NtRp2822
(dp2823
g73
(dp2824
sg82
g2293
sg75
(lp2825
g68
(g89
g70
NtRp2826
(dp2827
g73
(dp2828
g93
g94
ssg82
g2822
sg75
(lp2829
S'uwsgi.node'
p2830
asbag68
(g89
g70
NtRp2831
(dp2832
g73
(dp2833
g100
g101
ssg82
g2822
sg75
(lp2834
S':'
asbag68
(g89
g70
NtRp2835
(dp2836
g73
(dp2837
sg82
g2822
sg75
(lp2838
g68
(g69
g70
NtRp2839
(dp2840
g73
(dp2841
g81
I3
ssg82
g2835
sg75
(lp2842
g1270
asbasbasbag68
(g84
g70
NtRp2843
(dp2844
g73
(dp2845
sg82
g2293
sg75
(lp2846
g68
(g89
g70
NtRp2847
(dp2848
g73
(dp2849
g93
g94
ssg82
g2843
sg75
(lp2850
S'uwsgi.version'
p2851
asbag68
(g89
g70
NtRp2852
(dp2853
g73
(dp2854
g100
g101
ssg82
g2843
sg75
(lp2855
S':'
asbag68
(g89
g70
NtRp2856
(dp2857
g73
(dp2858
sg82
g2843
sg75
(lp2859
g68
(g69
g70
NtRp2860
(dp2861
g73
(dp2862
g81
I3
ssg82
g2856
sg75
(lp2863
g1292
asbasbasbag68
(g84
g70
NtRp2864
(dp2865
g73
(dp2866
sg82
g2293
sg75
(lp2867
g68
(g89
g70
NtRp2868
(dp2869
g73
(dp2870
g93
g94
ssg82
g2864
sg75
(lp2871
S'wsgi.errors'
p2872
asbag68
(g89
g70
NtRp2873
(dp2874
g73
(dp2875
g100
g101
ssg82
g2864
sg75
(lp2876
S':'
asbag68
(g89
g70
NtRp2877
(dp2878
g73
(dp2879
sg82
g2864
sg75
(lp2880
g68
(g69
g70
NtRp2881
(dp2882
g73
(dp2883
g81
I3
ssg82
g2877
sg75
(lp2884
S'<uwsgi_file__bin_user_wsgi_wrapper.ErrorLogWrapper object at 0x23e5ed0>'
p2885
asbasbasbag68
(g84
g70
NtRp2886
(dp2887
g73
(dp2888
sg82
g2293
sg75
(lp2889
g68
(g89
g70
NtRp2890
(dp2891
g73
(dp2892
g93
g94
ssg82
g2886
sg75
(lp2893
S'wsgi.file_wrapper'
p2894
asbag68
(g89
g70
NtRp2895
(dp2896
g73
(dp2897
g100
g101
ssg82
g2886
sg75
(lp2898
S':'
asbag68
(g89
g70
NtRp2899
(dp2900
g73
(dp2901
sg82
g2886
sg75
(lp2902
g68
(g69
g70
NtRp2903
(dp2904
g73
(dp2905
g81
I3
ssg82
g2899
sg75
(lp2906
S'<built-in function uwsgi_sendfile>'
p2907
asbasbasbag68
(g84
g70
NtRp2908
(dp2909
g73
(dp2910
sg82
g2293
sg75
(lp2911
g68
(g89
g70
NtRp2912
(dp2913
g73
(dp2914
g93
g94
ssg82
g2908
sg75
(lp2915
S'wsgi.input'
p2916
asbag68
(g89
g70
NtRp2917
(dp2918
g73
(dp2919
g100
g101
ssg82
g2908
sg75
(lp2920
S':'
asbag68
(g89
g70
NtRp2921
(dp2922
g73
(dp2923
sg82
g2908
sg75
(lp2924
g68
(g69
g70
NtRp2925
(dp2926
g73
(dp2927
g81
I3
ssg82
g2921
sg75
(lp2928
S'<cStringIO.StringO object at 0x3272340>'
p2929
asbasbasbag68
(g84
g70
NtRp2930
(dp2931
g73
(dp2932
sg82
g2293
sg75
(lp2933
g68
(g89
g70
NtRp2934
(dp2935
g73
(dp2936
g93
g94
ssg82
g2930
sg75
(lp2937
S'wsgi.multiprocess'
p2938
asbag68
(g89
g70
NtRp2939
(dp2940
g73
(dp2941
g100
g101
ssg82
g2930
sg75
(lp2942
S':'
asbag68
(g89
g70
NtRp2943
(dp2944
g73
(dp2945
sg82
g2930
sg75
(lp2946
g68
(g69
g70
NtRp2947
(dp2948
g73
(dp2949
g81
I3
ssg82
g2943
sg75
(lp2950
g111
asbasbasbag68
(g84
g70
NtRp2951
(dp2952
g73
(dp2953
sg82
g2293
sg75
(lp2954
g68
(g89
g70
NtRp2955
(dp2956
g73
(dp2957
g93
g94
ssg82
g2951
sg75
(lp2958
S'wsgi.multithread'
p2959
asbag68
(g89
g70
NtRp2960
(dp2961
g73
(dp2962
g100
g101
ssg82
g2951
sg75
(lp2963
S':'
asbag68
(g89
g70
NtRp2964
(dp2965
g73
(dp2966
sg82
g2951
sg75
(lp2967
g68
(g69
g70
NtRp2968
(dp2969
g73
(dp2970
g81
I3
ssg82
g2964
sg75
(lp2971
g111
asbasbasbag68
(g84
g70
NtRp2972
(dp2973
g73
(dp2974
sg82
g2293
sg75
(lp2975
g68
(g89
g70
NtRp2976
(dp2977
g73
(dp2978
g93
g94
ssg82
g2972
sg75
(lp2979
S'wsgi.run_once'
p2980
asbag68
(g89
g70
NtRp2981
(dp2982
g73
(dp2983
g100
g101
ssg82
g2972
sg75
(lp2984
S':'
asbag68
(g89
g70
NtRp2985
(dp2986
g73
(dp2987
sg82
g2972
sg75
(lp2988
g68
(g69
g70
NtRp2989
(dp2990
g73
(dp2991
g81
I3
ssg82
g2985
sg75
(lp2992
g111
asbasbasbag68
(g84
g70
NtRp2993
(dp2994
g73
(dp2995
sg82
g2293
sg75
(lp2996
g68
(g89
g70
NtRp2997
(dp2998
g73
(dp2999
g93
g94
ssg82
g2993
sg75
(lp3000
S'wsgi.url_scheme'
p3001
asbag68
(g89
g70
NtRp3002
(dp3003
g73
(dp3004
g100
g101
ssg82
g2993
sg75
(lp3005
S':'
asbag68
(g89
g70
NtRp3006
(dp3007
g73
(dp3008
sg82
g2993
sg75
(lp3009
g68
(g69
g70
NtRp3010
(dp3011
g73
(dp3012
g81
I3
ssg82
g3006
sg75
(lp3013
g1551
asbasbasbag68
(g84
g70
NtRp3014
(dp3015
g73
(dp3016
sg82
g2293
sg75
(lp3017
g68
(g89
g70
NtRp3018
(dp3019
g73
(dp3020
g93
g94
ssg82
g3014
sg75
(lp3021
S'wsgi.version'
p3022
asbag68
(g89
g70
NtRp3023
(dp3024
g73
(dp3025
g100
g101
ssg82
g3014
sg75
(lp3026
S':'
asbag68
(g89
g70
NtRp3027
(dp3028
g73
(dp3029
sg82
g3014
sg75
(lp3030
g68
(g69
g70
NtRp3031
(dp3032
g73
(dp3033
g81
I3
ssg82
g3027
sg75
(lp3034
S'1'
asbasbasbasbasbasbasbasbasbasbasbasbasbsS'frames'
p3035
(lp3036
(dp3037
S'file'
p3038
S'/home/rsoutelino/web2py/gluon/restricted.py'
p3039
sS'dump'
p3040
(dp3041
S'code'
p3042
S"'from Mail import *\\n\\ndef contact():\\n\\tform = SQLFO...m=form)\\nresponse._vars=response._caller(contact)\\n'"
p3043
sS'layer'
p3044
S"'/home/rsoutelino/web2py/applications/rsoutelino/controllers/contact.py'"
p3045
sS'global compile2'
p3046
S'<function compile2>'
p3047
sS'ccode'
p3048
S'undefined'
p3049
ssS'lnum'
p3050
I211
sS'lines'
p3051
(dp3052
I206
S"    environment['__name__'] = '__restricted__'"
p3053
sI207
S'    try:'
p3054
sI208
S'        if isinstance(code, types.CodeType):'
p3055
sI209
S'            ccode = code'
p3056
sI210
S'        else:'
p3057
sI211
S'            ccode = compile2(code, layer)'
p3058
sI212
S'        exec ccode in environment'
p3059
sI213
S'    except HTTP:'
p3060
sI214
S'        raise'
p3061
sI215
S'    except RestrictedError:'
p3062
ssS'call'
p3063
S"(code='from Mail import *\\n\\ndef contact():\\n\\tform = SQLFO...m=form)\\nresponse._vars=response._caller(contact)\\n', environment={'A': <class 'gluon.html.A'>, 'Auth': <class 'gluon.tools.Auth'>, 'B': <class 'gluon.html.B'>, 'BEAUTIFY': <class 'gluon.html.BEAUTIFY'>, 'BODY': <class 'gluon.html.BODY'>, 'BR': <class 'gluon.html.BR'>, 'BUTTON': <class 'gluon.html.BUTTON'>, 'CAT': <class 'gluon.html.CAT'>, 'CENTER': <class 'gluon.html.CENTER'>, 'CLEANUP': <class 'gluon.validators.CLEANUP'>, ...}, layer='/home/rsoutelino/web2py/applications/rsoutelino/controllers/contact.py')"
p3064
sS'func'
p3065
S'restricted'
p3066
sa(dp3067
g3038
S'/home/rsoutelino/web2py/gluon/restricted.py'
p3068
sg3040
(dp3069
S'builtincompile'
p3070
S'<built-in function compile>'
p3071
sS'code'
p3072
S"'from Mail import *\\n\\ndef contact():\\n\\tform = SQLFO...m=form)\\nresponse._vars=response._caller(contact)\\n'"
p3073
sS'code.rstrip'
p3074
S'<built-in method rstrip of str object>'
p3075
sS').replace'
p3076
g3049
sS'layer'
p3077
S"'/home/rsoutelino/web2py/applications/rsoutelino/controllers/contact.py'"
p3078
ssg3050
I194
sg3051
(dp3079
I192
S"    The +'\\n' is necessary else compile fails when code ends in a comment."
p3080
sI193
S'    """'
p3081
sI194
S"    return compile(code.rstrip().replace('\\r\\n', '\\n') + '\\n', layer, 'exec')"
p3082
sI195
S''
sI196
S''
sI197
S"def restricted(code, environment=None, layer='Unknown'):"
p3083
sI198
S'    """'
p3084
sI189
S''
sI190
S'def compile2(code, layer):'
p3085
sI191
S'    """'
p3086
ssg3063
S"(code='from Mail import *\\n\\ndef contact():\\n\\tform = SQLFO...m=form)\\nresponse._vars=response._caller(contact)\\n', layer='/home/rsoutelino/web2py/applications/rsoutelino/controllers/contact.py')"
p3087
sg3065
S'compile2'
p3088
sasS'pyver'
p3089
S'Python 2.7.3: /usr/local/bin/uwsgi'
p3090
sS'session'
p3091
g68
(g69
g70
NtRp3092
(dp3093
g73
(dp3094
sg75
(lp3095
g68
(g77
g70
NtRp3096
(dp3097
g73
(dp3098
g81
I5
ssg82
Nsg75
(lp3099
sbasbsS'etype'
p3100
S"<type 'exceptions.IndentationError'>"
p3101
sS'date'
p3102
S'Thu Feb  7 12:08:31 2013'
p3103
sS'response'
p3104
g68
(g69
g70
NtRp3105
(dp3106
g73
(dp3107
sg75
(lp3108
g68
(g77
g70
NtRp3109
(dp3110
g73
(dp3111
g81
I5
ssg82
Nsg75
(lp3112
g68
(g84
g70
NtRp3113
(dp3114
g73
(dp3115
sg82
g3109
sg75
(lp3116
g68
(g89
g70
NtRp3117
(dp3118
g73
(dp3119
g93
g94
ssg82
g3113
sg75
(lp3120
g166
asbag68
(g89
g70
NtRp3121
(dp3122
g73
(dp3123
g100
g101
ssg82
g3113
sg75
(lp3124
S':'
asbag68
(g89
g70
NtRp3125
(dp3126
g73
(dp3127
sg82
g3113
sg75
(lp3128
g68
(g69
g70
NtRp3129
(dp3130
g73
(dp3131
g81
I5
ssg82
g3125
sg75
(lp3132
S'<cStringIO.StringO object at 0x32feea0>'
p3133
asbasbasbag68
(g84
g70
NtRp3134
(dp3135
g73
(dp3136
sg82
g3109
sg75
(lp3137
g68
(g89
g70
NtRp3138
(dp3139
g73
(dp3140
g93
g94
ssg82
g3134
sg75
(lp3141
g254
asbag68
(g89
g70
NtRp3142
(dp3143
g73
(dp3144
g100
g101
ssg82
g3134
sg75
(lp3145
S':'
asbag68
(g89
g70
NtRp3146
(dp3147
g73
(dp3148
sg82
g3134
sg75
(lp3149
g68
(g69
g70
NtRp3150
(dp3151
g73
(dp3152
g81
I5
ssg82
g3146
sg75
(lp3153
g68
(g77
g70
NtRp3154
(dp3155
g73
(dp3156
g81
I4
ssg82
Nsg75
(lp3157
g68
(g84
g70
NtRp3158
(dp3159
g73
(dp3160
sg82
g3154
sg75
(lp3161
g68
(g89
g70
NtRp3162
(dp3163
g73
(dp3164
g93
g94
ssg82
g3158
sg75
(lp3165
S'session_id_rsoutelino'
p3166
asbag68
(g89
g70
NtRp3167
(dp3168
g73
(dp3169
g100
g101
ssg82
g3158
sg75
(lp3170
S':'
asbag68
(g89
g70
NtRp3171
(dp3172
g73
(dp3173
sg82
g3158
sg75
(lp3174
g68
(g69
g70
NtRp3175
(dp3176
g73
(dp3177
g81
I4
ssg82
g3171
sg75
(lp3178
S'172.30.6.206-b4a736d4-98b2-47b2-9261-fd718db69c0a'
p3179
ag68
(g77
g70
NtRp3180
(dp3181
g73
(dp3182
g81
I3
ssg82
Nsg75
(lp3183
g68
(g84
g70
NtRp3184
(dp3185
g73
(dp3186
sg82
g3180
sg75
(lp3187
g68
(g89
g70
NtRp3188
(dp3189
g73
(dp3190
g93
g94
ssg82
g3184
sg75
(lp3191
g305
asbag68
(g89
g70
NtRp3192
(dp3193
g73
(dp3194
g100
g101
ssg82
g3184
sg75
(lp3195
S':'
asbag68
(g89
g70
NtRp3196
(dp3197
g73
(dp3198
sg82
g3184
sg75
(lp3199
g68
(g69
g70
NtRp3200
(dp3201
g73
(dp3202
g81
I3
ssg82
g3196
sg75
(lp3203
S''
asbasbasbag68
(g84
g70
NtRp3204
(dp3205
g73
(dp3206
sg82
g3180
sg75
(lp3207
g68
(g89
g70
NtRp3208
(dp3209
g73
(dp3210
g93
g94
ssg82
g3204
sg75
(lp3211
g326
asbag68
(g89
g70
NtRp3212
(dp3213
g73
(dp3214
g100
g101
ssg82
g3204
sg75
(lp3215
S':'
asbag68
(g89
g70
NtRp3216
(dp3217
g73
(dp3218
sg82
g3204
sg75
(lp3219
g68
(g69
g70
NtRp3220
(dp3221
g73
(dp3222
g81
I3
ssg82
g3216
sg75
(lp3223
S''
asbasbasbag68
(g84
g70
NtRp3224
(dp3225
g73
(dp3226
sg82
g3180
sg75
(lp3227
g68
(g89
g70
NtRp3228
(dp3229
g73
(dp3230
g93
g94
ssg82
g3224
sg75
(lp3231
g347
asbag68
(g89
g70
NtRp3232
(dp3233
g73
(dp3234
g100
g101
ssg82
g3224
sg75
(lp3235
S':'
asbag68
(g89
g70
NtRp3236
(dp3237
g73
(dp3238
sg82
g3224
sg75
(lp3239
g68
(g69
g70
NtRp3240
(dp3241
g73
(dp3242
g81
I3
ssg82
g3236
sg75
(lp3243
S''
asbasbasbag68
(g84
g70
NtRp3244
(dp3245
g73
(dp3246
sg82
g3180
sg75
(lp3247
g68
(g89
g70
NtRp3248
(dp3249
g73
(dp3250
g93
g94
ssg82
g3244
sg75
(lp3251
g368
asbag68
(g89
g70
NtRp3252
(dp3253
g73
(dp3254
g100
g101
ssg82
g3244
sg75
(lp3255
S':'
asbag68
(g89
g70
NtRp3256
(dp3257
g73
(dp3258
sg82
g3244
sg75
(lp3259
g68
(g69
g70
NtRp3260
(dp3261
g73
(dp3262
g81
I3
ssg82
g3256
sg75
(lp3263
S''
asbasbasbag68
(g84
g70
NtRp3264
(dp3265
g73
(dp3266
sg82
g3180
sg75
(lp3267
g68
(g89
g70
NtRp3268
(dp3269
g73
(dp3270
g93
g94
ssg82
g3264
sg75
(lp3271
g389
asbag68
(g89
g70
NtRp3272
(dp3273
g73
(dp3274
g100
g101
ssg82
g3264
sg75
(lp3275
S':'
asbag68
(g89
g70
NtRp3276
(dp3277
g73
(dp3278
sg82
g3264
sg75
(lp3279
g68
(g69
g70
NtRp3280
(dp3281
g73
(dp3282
g81
I3
ssg82
g3276
sg75
(lp3283
S''
asbasbasbag68
(g84
g70
NtRp3284
(dp3285
g73
(dp3286
sg82
g3180
sg75
(lp3287
g68
(g89
g70
NtRp3288
(dp3289
g73
(dp3290
g93
g94
ssg82
g3284
sg75
(lp3291
g410
asbag68
(g89
g70
NtRp3292
(dp3293
g73
(dp3294
g100
g101
ssg82
g3284
sg75
(lp3295
S':'
asbag68
(g89
g70
NtRp3296
(dp3297
g73
(dp3298
sg82
g3284
sg75
(lp3299
g68
(g69
g70
NtRp3300
(dp3301
g73
(dp3302
g81
I3
ssg82
g3296
sg75
(lp3303
S'/'
asbasbasbag68
(g84
g70
NtRp3304
(dp3305
g73
(dp3306
sg82
g3180
sg75
(lp3307
g68
(g89
g70
NtRp3308
(dp3309
g73
(dp3310
g93
g94
ssg82
g3304
sg75
(lp3311
g431
asbag68
(g89
g70
NtRp3312
(dp3313
g73
(dp3314
g100
g101
ssg82
g3304
sg75
(lp3315
S':'
asbag68
(g89
g70
NtRp3316
(dp3317
g73
(dp3318
sg82
g3304
sg75
(lp3319
g68
(g69
g70
NtRp3320
(dp3321
g73
(dp3322
g81
I3
ssg82
g3316
sg75
(lp3323
S''
asbasbasbag68
(g84
g70
NtRp3324
(dp3325
g73
(dp3326
sg82
g3180
sg75
(lp3327
g68
(g89
g70
NtRp3328
(dp3329
g73
(dp3330
g93
g94
ssg82
g3324
sg75
(lp3331
g452
asbag68
(g89
g70
NtRp3332
(dp3333
g73
(dp3334
g100
g101
ssg82
g3324
sg75
(lp3335
S':'
asbag68
(g89
g70
NtRp3336
(dp3337
g73
(dp3338
sg82
g3324
sg75
(lp3339
g68
(g69
g70
NtRp3340
(dp3341
g73
(dp3342
g81
I3
ssg82
g3336
sg75
(lp3343
S''
asbasbasbasbasbasbasbasbasbasbasbag68
(g84
g70
NtRp3344
(dp3345
g73
(dp3346
sg82
g3109
sg75
(lp3347
g68
(g89
g70
NtRp3348
(dp3349
g73
(dp3350
g93
g94
ssg82
g3344
sg75
(lp3351
S'delimiters'
p3352
asbag68
(g89
g70
NtRp3353
(dp3354
g73
(dp3355
g100
g101
ssg82
g3344
sg75
(lp3356
S':'
asbag68
(g89
g70
NtRp3357
(dp3358
g73
(dp3359
sg82
g3344
sg75
(lp3360
g68
(g69
g70
NtRp3361
(dp3362
g73
(dp3363
g81
I5
ssg82
g3357
sg75
(lp3364
g68
(g77
g70
NtRp3365
(dp3366
g73
(dp3367
g81
I4
ssg82
Nsg75
(lp3368
g68
(g84
g70
NtRp3369
(dp3370
g73
(dp3371
sg82
g3365
sg75
(lp3372
g68
(g89
g70
NtRp3373
(dp3374
g73
(dp3375
sg82
g3369
sg75
(lp3376
g68
(g69
g70
NtRp3377
(dp3378
g73
(dp3379
g81
I4
ssg82
g3373
sg75
(lp3380
S'{{'
p3381
asbasbasbag68
(g84
g70
NtRp3382
(dp3383
g73
(dp3384
sg82
g3365
sg75
(lp3385
g68
(g89
g70
NtRp3386
(dp3387
g73
(dp3388
sg82
g3382
sg75
(lp3389
g68
(g69
g70
NtRp3390
(dp3391
g73
(dp3392
g81
I4
ssg82
g3386
sg75
(lp3393
S'}}'
p3394
asbasbasbasbasbasbasbag68
(g84
g70
NtRp3395
(dp3396
g73
(dp3397
sg82
g3109
sg75
(lp3398
g68
(g89
g70
NtRp3399
(dp3400
g73
(dp3401
g93
g94
ssg82
g3395
sg75
(lp3402
S'files'
p3403
asbag68
(g89
g70
NtRp3404
(dp3405
g73
(dp3406
g100
g101
ssg82
g3395
sg75
(lp3407
S':'
asbag68
(g89
g70
NtRp3408
(dp3409
g73
(dp3410
sg82
g3395
sg75
(lp3411
g68
(g69
g70
NtRp3412
(dp3413
g73
(dp3414
g81
I5
ssg82
g3408
sg75
(lp3415
g68
(g77
g70
NtRp3416
(dp3417
g73
(dp3418
g81
I4
ssg82
Nsg75
(lp3419
sbasbasbasbag68
(g84
g70
NtRp3420
(dp3421
g73
(dp3422
sg82
g3109
sg75
(lp3423
g68
(g89
g70
NtRp3424
(dp3425
g73
(dp3426
g93
g94
ssg82
g3420
sg75
(lp3427
S'flash'
p3428
asbag68
(g89
g70
NtRp3429
(dp3430
g73
(dp3431
g100
g101
ssg82
g3420
sg75
(lp3432
S':'
asbag68
(g89
g70
NtRp3433
(dp3434
g73
(dp3435
sg82
g3420
sg75
(lp3436
g68
(g69
g70
NtRp3437
(dp3438
g73
(dp3439
g81
I5
ssg82
g3433
sg75
(lp3440
S''
asbasbasbag68
(g84
g70
NtRp3441
(dp3442
g73
(dp3443
sg82
g3109
sg75
(lp3444
g68
(g89
g70
NtRp3445
(dp3446
g73
(dp3447
g93
g94
ssg82
g3441
sg75
(lp3448
S'generic_patterns'
p3449
asbag68
(g89
g70
NtRp3450
(dp3451
g73
(dp3452
g100
g101
ssg82
g3441
sg75
(lp3453
S':'
asbag68
(g89
g70
NtRp3454
(dp3455
g73
(dp3456
sg82
g3441
sg75
(lp3457
g68
(g69
g70
NtRp3458
(dp3459
g73
(dp3460
g81
I5
ssg82
g3454
sg75
(lp3461
g68
(g77
g70
NtRp3462
(dp3463
g73
(dp3464
g81
I4
ssg82
Nsg75
(lp3465
g68
(g84
g70
NtRp3466
(dp3467
g73
(dp3468
sg82
g3462
sg75
(lp3469
g68
(g89
g70
NtRp3470
(dp3471
g73
(dp3472
sg82
g3466
sg75
(lp3473
g68
(g69
g70
NtRp3474
(dp3475
g73
(dp3476
g81
I4
ssg82
g3470
sg75
(lp3477
S'*'
asbasbasbasbasbasbasbag68
(g84
g70
NtRp3478
(dp3479
g73
(dp3480
sg82
g3109
sg75
(lp3481
g68
(g89
g70
NtRp3482
(dp3483
g73
(dp3484
g93
g94
ssg82
g3478
sg75
(lp3485
S'headers'
p3486
asbag68
(g89
g70
NtRp3487
(dp3488
g73
(dp3489
g100
g101
ssg82
g3478
sg75
(lp3490
S':'
asbag68
(g89
g70
NtRp3491
(dp3492
g73
(dp3493
sg82
g3478
sg75
(lp3494
g68
(g69
g70
NtRp3495
(dp3496
g73
(dp3497
g81
I5
ssg82
g3491
sg75
(lp3498
g68
(g77
g70
NtRp3499
(dp3500
g73
(dp3501
g81
I4
ssg82
Nsg75
(lp3502
g68
(g84
g70
NtRp3503
(dp3504
g73
(dp3505
sg82
g3499
sg75
(lp3506
g68
(g89
g70
NtRp3507
(dp3508
g73
(dp3509
g93
g94
ssg82
g3503
sg75
(lp3510
S'X-Powered-By'
p3511
asbag68
(g89
g70
NtRp3512
(dp3513
g73
(dp3514
g100
g101
ssg82
g3503
sg75
(lp3515
S':'
asbag68
(g89
g70
NtRp3516
(dp3517
g73
(dp3518
sg82
g3503
sg75
(lp3519
g68
(g69
g70
NtRp3520
(dp3521
g73
(dp3522
g81
I4
ssg82
g3516
sg75
(lp3523
S'web2py'
p3524
asbasbasbasbasbasbasbag68
(g84
g70
NtRp3525
(dp3526
g73
(dp3527
sg82
g3109
sg75
(lp3528
g68
(g89
g70
NtRp3529
(dp3530
g73
(dp3531
g93
g94
ssg82
g3525
sg75
(lp3532
S'menu'
p3533
asbag68
(g89
g70
NtRp3534
(dp3535
g73
(dp3536
g100
g101
ssg82
g3525
sg75
(lp3537
S':'
asbag68
(g89
g70
NtRp3538
(dp3539
g73
(dp3540
sg82
g3525
sg75
(lp3541
g68
(g69
g70
NtRp3542
(dp3543
g73
(dp3544
g81
I5
ssg82
g3538
sg75
(lp3545
g68
(g77
g70
NtRp3546
(dp3547
g73
(dp3548
g81
I4
ssg82
Nsg75
(lp3549
sbasbasbasbag68
(g84
g70
NtRp3550
(dp3551
g73
(dp3552
sg82
g3109
sg75
(lp3553
g68
(g89
g70
NtRp3554
(dp3555
g73
(dp3556
g93
g94
ssg82
g3550
sg75
(lp3557
S'meta'
p3558
asbag68
(g89
g70
NtRp3559
(dp3560
g73
(dp3561
g100
g101
ssg82
g3550
sg75
(lp3562
S':'
asbag68
(g89
g70
NtRp3563
(dp3564
g73
(dp3565
sg82
g3550
sg75
(lp3566
g68
(g69
g70
NtRp3567
(dp3568
g73
(dp3569
g81
I5
ssg82
g3563
sg75
(lp3570
g68
(g77
g70
NtRp3571
(dp3572
g73
(dp3573
g81
I4
ssg82
Nsg75
(lp3574
g68
(g84
g70
NtRp3575
(dp3576
g73
(dp3577
sg82
g3571
sg75
(lp3578
g68
(g89
g70
NtRp3579
(dp3580
g73
(dp3581
g93
g94
ssg82
g3575
sg75
(lp3582
S'author'
p3583
asbag68
(g89
g70
NtRp3584
(dp3585
g73
(dp3586
g100
g101
ssg82
g3575
sg75
(lp3587
S':'
asbag68
(g89
g70
NtRp3588
(dp3589
g73
(dp3590
sg82
g3575
sg75
(lp3591
g68
(g69
g70
NtRp3592
(dp3593
g73
(dp3594
g81
I4
ssg82
g3588
sg75
(lp3595
S'Diego Miranda'
p3596
asbasbasbag68
(g84
g70
NtRp3597
(dp3598
g73
(dp3599
sg82
g3571
sg75
(lp3600
g68
(g89
g70
NtRp3601
(dp3602
g73
(dp3603
g93
g94
ssg82
g3597
sg75
(lp3604
S'copyright'
p3605
asbag68
(g89
g70
NtRp3606
(dp3607
g73
(dp3608
g100
g101
ssg82
g3597
sg75
(lp3609
S':'
asbag68
(g89
g70
NtRp3610
(dp3611
g73
(dp3612
sg82
g3597
sg75
(lp3613
g68
(g69
g70
NtRp3614
(dp3615
g73
(dp3616
g81
I4
ssg82
g3610
sg75
(lp3617
S'Copyright 2012'
p3618
asbasbasbag68
(g84
g70
NtRp3619
(dp3620
g73
(dp3621
sg82
g3571
sg75
(lp3622
g68
(g89
g70
NtRp3623
(dp3624
g73
(dp3625
g93
g94
ssg82
g3619
sg75
(lp3626
S'description'
p3627
asbag68
(g89
g70
NtRp3628
(dp3629
g73
(dp3630
g100
g101
ssg82
g3619
sg75
(lp3631
S':'
asbag68
(g89
g70
NtRp3632
(dp3633
g73
(dp3634
sg82
g3619
sg75
(lp3635
g68
(g69
g70
NtRp3636
(dp3637
g73
(dp3638
g81
I4
ssg82
g3632
sg75
(lp3639
S'Rafael App'
p3640
asbasbasbag68
(g84
g70
NtRp3641
(dp3642
g73
(dp3643
sg82
g3571
sg75
(lp3644
g68
(g89
g70
NtRp3645
(dp3646
g73
(dp3647
g93
g94
ssg82
g3641
sg75
(lp3648
S'generator'
p3649
asbag68
(g89
g70
NtRp3650
(dp3651
g73
(dp3652
g100
g101
ssg82
g3641
sg75
(lp3653
S':'
asbag68
(g89
g70
NtRp3654
(dp3655
g73
(dp3656
sg82
g3641
sg75
(lp3657
g68
(g69
g70
NtRp3658
(dp3659
g73
(dp3660
g81
I4
ssg82
g3654
sg75
(lp3661
S'web2py web framework'
p3662
asbasbasbag68
(g84
g70
NtRp3663
(dp3664
g73
(dp3665
sg82
g3571
sg75
(lp3666
g68
(g89
g70
NtRp3667
(dp3668
g73
(dp3669
g93
g94
ssg82
g3663
sg75
(lp3670
S'keywords'
p3671
asbag68
(g89
g70
NtRp3672
(dp3673
g73
(dp3674
g100
g101
ssg82
g3663
sg75
(lp3675
S':'
asbag68
(g89
g70
NtRp3676
(dp3677
g73
(dp3678
sg82
g3663
sg75
(lp3679
g68
(g69
g70
NtRp3680
(dp3681
g73
(dp3682
g81
I4
ssg82
g3676
sg75
(lp3683
S'web2py, python framework'
p3684
asbasbasbasbasbasbasbag68
(g84
g70
NtRp3685
(dp3686
g73
(dp3687
sg82
g3109
sg75
(lp3688
g68
(g89
g70
NtRp3689
(dp3690
g73
(dp3691
g93
g94
ssg82
g3685
sg75
(lp3692
S'models_to_run'
p3693
asbag68
(g89
g70
NtRp3694
(dp3695
g73
(dp3696
g100
g101
ssg82
g3685
sg75
(lp3697
S':'
asbag68
(g89
g70
NtRp3698
(dp3699
g73
(dp3700
sg82
g3685
sg75
(lp3701
g68
(g69
g70
NtRp3702
(dp3703
g73
(dp3704
g81
I5
ssg82
g3698
sg75
(lp3705
g68
(g77
g70
NtRp3706
(dp3707
g73
(dp3708
g81
I4
ssg82
Nsg75
(lp3709
g68
(g84
g70
NtRp3710
(dp3711
g73
(dp3712
sg82
g3706
sg75
(lp3713
g68
(g89
g70
NtRp3714
(dp3715
g73
(dp3716
sg82
g3710
sg75
(lp3717
g68
(g69
g70
NtRp3718
(dp3719
g73
(dp3720
g81
I4
ssg82
g3714
sg75
(lp3721
S'^\\w+\\.py$'
p3722
asbasbasbag68
(g84
g70
NtRp3723
(dp3724
g73
(dp3725
sg82
g3706
sg75
(lp3726
g68
(g89
g70
NtRp3727
(dp3728
g73
(dp3729
sg82
g3723
sg75
(lp3730
g68
(g69
g70
NtRp3731
(dp3732
g73
(dp3733
g81
I4
ssg82
g3727
sg75
(lp3734
S'^contact/\\w+\\.py$'
p3735
asbasbasbag68
(g84
g70
NtRp3736
(dp3737
g73
(dp3738
sg82
g3706
sg75
(lp3739
g68
(g89
g70
NtRp3740
(dp3741
g73
(dp3742
sg82
g3736
sg75
(lp3743
g68
(g69
g70
NtRp3744
(dp3745
g73
(dp3746
g81
I4
ssg82
g3740
sg75
(lp3747
S'^contact/contact/\\w+\\.py$'
p3748
asbasbasbasbasbasbasbag68
(g84
g70
NtRp3749
(dp3750
g73
(dp3751
sg82
g3109
sg75
(lp3752
g68
(g89
g70
NtRp3753
(dp3754
g73
(dp3755
g93
g94
ssg82
g3749
sg75
(lp3756
S'postprocessing'
p3757
asbag68
(g89
g70
NtRp3758
(dp3759
g73
(dp3760
g100
g101
ssg82
g3749
sg75
(lp3761
S':'
asbag68
(g89
g70
NtRp3762
(dp3763
g73
(dp3764
sg82
g3749
sg75
(lp3765
g68
(g69
g70
NtRp3766
(dp3767
g73
(dp3768
g81
I5
ssg82
g3762
sg75
(lp3769
g68
(g77
g70
NtRp3770
(dp3771
g73
(dp3772
g81
I4
ssg82
Nsg75
(lp3773
sbasbasbasbag68
(g84
g70
NtRp3774
(dp3775
g73
(dp3776
sg82
g3109
sg75
(lp3777
g68
(g89
g70
NtRp3778
(dp3779
g73
(dp3780
g93
g94
ssg82
g3774
sg75
(lp3781
S'session_cookie_expires'
p3782
asbag68
(g89
g70
NtRp3783
(dp3784
g73
(dp3785
g100
g101
ssg82
g3774
sg75
(lp3786
S':'
asbag68
(g89
g70
NtRp3787
(dp3788
g73
(dp3789
sg82
g3774
sg75
(lp3790
g68
(g69
g70
NtRp3791
(dp3792
g73
(dp3793
g81
I5
ssg82
g3787
sg75
(lp3794
S'None'
p3795
asbasbasbag68
(g84
g70
NtRp3796
(dp3797
g73
(dp3798
sg82
g3109
sg75
(lp3799
g68
(g89
g70
NtRp3800
(dp3801
g73
(dp3802
g93
g94
ssg82
g3796
sg75
(lp3803
S'session_data_name'
p3804
asbag68
(g89
g70
NtRp3805
(dp3806
g73
(dp3807
g100
g101
ssg82
g3796
sg75
(lp3808
S':'
asbag68
(g89
g70
NtRp3809
(dp3810
g73
(dp3811
sg82
g3796
sg75
(lp3812
g68
(g69
g70
NtRp3813
(dp3814
g73
(dp3815
g81
I5
ssg82
g3809
sg75
(lp3816
S'session_data_rsoutelino'
p3817
asbasbasbag68
(g84
g70
NtRp3818
(dp3819
g73
(dp3820
sg82
g3109
sg75
(lp3821
g68
(g89
g70
NtRp3822
(dp3823
g73
(dp3824
g93
g94
ssg82
g3818
sg75
(lp3825
S'session_filename'
p3826
asbag68
(g89
g70
NtRp3827
(dp3828
g73
(dp3829
g100
g101
ssg82
g3818
sg75
(lp3830
S':'
asbag68
(g89
g70
NtRp3831
(dp3832
g73
(dp3833
sg82
g3818
sg75
(lp3834
g68
(g69
g70
NtRp3835
(dp3836
g73
(dp3837
g81
I5
ssg82
g3831
sg75
(lp3838
S'/home/rsoutelino/web2py/applications/rsoutelino/sessions/172.30.6.206-b4a736d4-98b2-47b2-9261-fd718db69c0a'
p3839
asbasbasbag68
(g84
g70
NtRp3840
(dp3841
g73
(dp3842
sg82
g3109
sg75
(lp3843
g68
(g89
g70
NtRp3844
(dp3845
g73
(dp3846
g93
g94
ssg82
g3840
sg75
(lp3847
S'session_id'
p3848
asbag68
(g89
g70
NtRp3849
(dp3850
g73
(dp3851
g100
g101
ssg82
g3840
sg75
(lp3852
S':'
asbag68
(g89
g70
NtRp3853
(dp3854
g73
(dp3855
sg82
g3840
sg75
(lp3856
g68
(g69
g70
NtRp3857
(dp3858
g73
(dp3859
g81
I5
ssg82
g3853
sg75
(lp3860
g3179
asbasbasbag68
(g84
g70
NtRp3861
(dp3862
g73
(dp3863
sg82
g3109
sg75
(lp3864
g68
(g89
g70
NtRp3865
(dp3866
g73
(dp3867
g93
g94
ssg82
g3861
sg75
(lp3868
S'session_id_name'
p3869
asbag68
(g89
g70
NtRp3870
(dp3871
g73
(dp3872
g100
g101
ssg82
g3861
sg75
(lp3873
S':'
asbag68
(g89
g70
NtRp3874
(dp3875
g73
(dp3876
sg82
g3861
sg75
(lp3877
g68
(g69
g70
NtRp3878
(dp3879
g73
(dp3880
g81
I5
ssg82
g3874
sg75
(lp3881
g3166
asbasbasbag68
(g84
g70
NtRp3882
(dp3883
g73
(dp3884
sg82
g3109
sg75
(lp3885
g68
(g89
g70
NtRp3886
(dp3887
g73
(dp3888
g93
g94
ssg82
g3882
sg75
(lp3889
S'session_new'
p3890
asbag68
(g89
g70
NtRp3891
(dp3892
g73
(dp3893
g100
g101
ssg82
g3882
sg75
(lp3894
S':'
asbag68
(g89
g70
NtRp3895
(dp3896
g73
(dp3897
sg82
g3882
sg75
(lp3898
g68
(g69
g70
NtRp3899
(dp3900
g73
(dp3901
g81
I5
ssg82
g3895
sg75
(lp3902
S'True'
p3903
asbasbasbag68
(g84
g70
NtRp3904
(dp3905
g73
(dp3906
sg82
g3109
sg75
(lp3907
g68
(g89
g70
NtRp3908
(dp3909
g73
(dp3910
g93
g94
ssg82
g3904
sg75
(lp3911
S'session_storage_type'
p3912
asbag68
(g89
g70
NtRp3913
(dp3914
g73
(dp3915
g100
g101
ssg82
g3904
sg75
(lp3916
S':'
asbag68
(g89
g70
NtRp3917
(dp3918
g73
(dp3919
sg82
g3904
sg75
(lp3920
g68
(g69
g70
NtRp3921
(dp3922
g73
(dp3923
g81
I5
ssg82
g3917
sg75
(lp3924
g3038
asbasbasbag68
(g84
g70
NtRp3925
(dp3926
g73
(dp3927
sg82
g3109
sg75
(lp3928
g68
(g89
g70
NtRp3929
(dp3930
g73
(dp3931
g93
g94
ssg82
g3925
sg75
(lp3932
S'status'
p3933
asbag68
(g89
g70
NtRp3934
(dp3935
g73
(dp3936
g100
g101
ssg82
g3925
sg75
(lp3937
S':'
asbag68
(g89
g70
NtRp3938
(dp3939
g73
(dp3940
sg82
g3925
sg75
(lp3941
g68
(g69
g70
NtRp3942
(dp3943
g73
(dp3944
g81
I5
ssg82
g3938
sg75
(lp3945
S'200'
p3946
asbasbasbag68
(g84
g70
NtRp3947
(dp3948
g73
(dp3949
sg82
g3109
sg75
(lp3950
g68
(g89
g70
NtRp3951
(dp3952
g73
(dp3953
g93
g94
ssg82
g3947
sg75
(lp3954
S'subtitle'
p3955
asbag68
(g89
g70
NtRp3956
(dp3957
g73
(dp3958
g100
g101
ssg82
g3947
sg75
(lp3959
S':'
asbag68
(g89
g70
NtRp3960
(dp3961
g73
(dp3962
sg82
g3947
sg75
(lp3963
g68
(g69
g70
NtRp3964
(dp3965
g73
(dp3966
g81
I5
ssg82
g3960
sg75
(lp3967
cgluon.languages
lazyT_unpickle
p3968
(S's\x10\x00\x00\x00Rafael Soutelino'
tRp3969
asbasbasbag68
(g84
g70
NtRp3970
(dp3971
g73
(dp3972
sg82
g3109
sg75
(lp3973
g68
(g89
g70
NtRp3974
(dp3975
g73
(dp3976
g93
g94
ssg82
g3970
sg75
(lp3977
S'title'
p3978
asbag68
(g89
g70
NtRp3979
(dp3980
g73
(dp3981
g100
g101
ssg82
g3970
sg75
(lp3982
S':'
asbag68
(g89
g70
NtRp3983
(dp3984
g73
(dp3985
sg82
g3970
sg75
(lp3986
g68
(g69
g70
NtRp3987
(dp3988
g73
(dp3989
g81
I5
ssg82
g3983
sg75
(lp3990
S'Rafael Soutelino: Academic Website'
p3991
asbasbasbag68
(g84
g70
NtRp3992
(dp3993
g73
(dp3994
sg82
g3109
sg75
(lp3995
g68
(g89
g70
NtRp3996
(dp3997
g73
(dp3998
g93
g94
ssg82
g3992
sg75
(lp3999
S'view'
p4000
asbag68
(g89
g70
NtRp4001
(dp4002
g73
(dp4003
g100
g101
ssg82
g3992
sg75
(lp4004
S':'
asbag68
(g89
g70
NtRp4005
(dp4006
g73
(dp4007
sg82
g3992
sg75
(lp4008
g68
(g69
g70
NtRp4009
(dp4010
g73
(dp4011
g81
I5
ssg82
g4005
sg75
(lp4012
S'contact/contact.html'
p4013
asbasbasbasbasbsS'locals'
p4014
(dp4015
g4
S"'/home/rsoutelino/web2py/applications/rsoutelino/controllers/contact.py'"
p4016
sg6
S"'from Mail import *\\n\\ndef contact():\\n\\tform = SQLFO...m=form)\\nresponse._vars=response._caller(contact)\\n'"
p4017
sssS'traceback'
p4018
S'Traceback (most recent call last):\n  File "/home/rsoutelino/web2py/gluon/restricted.py", line 211, in restricted\n    ccode = compile2(code, layer)\n  File "/home/rsoutelino/web2py/gluon/restricted.py", line 194, in compile2\n    return compile(code.rstrip().replace(\'\\r\\n\', \'\\n\') + \'\\n\', layer, \'exec\')\n  File "/home/rsoutelino/web2py/applications/rsoutelino/controllers/contact.py", line 6\n    message = "%s %s %s" %(forms.vars.name, forms.vars.email, forms.vars.commentary)\n          ^\nIndentationError: expected an indented block\n'
p4019
s.