(dp1
S'output'
p2
S"<type 'exceptions.AttributeError'> 'NoneType' object has no attribute 'append'"
p3
sS'layer'
p4
S'/home/rsoutelino/web2py/applications/rsoutelino/views/default/index.html'
p5
sS'code'
p6
S'response.write(\'<!DOCTYPE html PUBLIC "-//W3C//DTD XHTML 1.0 Strict//EN" "http://www.w3.org/TR/xhtml1/DTD/xhtml1-strict.dtd">\\n<html xmlns="http://www.w3.org/1999/xhtml" lang="en">\\n\\n\\n<!--  Version: Multiflex-5.4 / Overview                     -->\\n<!--  Type:    Design with sidebar                          -->\\n<!--  Date:    March 13, 2008                               -->\\n<!--  Design:  www.1234.info                                -->\\n<!--  License: Fully open source without restrictions.      -->\\n<!--           Please keep footer credits with the words    -->\\n<!--           "Design by 1234.info". Thank you!            -->\\n\\n<head>\\n  <meta http-equiv="content-type" content="text/html; charset=utf-8" />\\n  <meta http-equiv="cache-control" content="no-cache" />\\n  <meta http-equiv="expires" content="3600" />\\n  <meta name="revisit-after" content="2 days" />\\n  <meta name="robots" content="index,follow" />\\n  <meta name="publisher" content="Your publisher infos here" />\\n  <meta name="copyright" content="Your copyright infos here" />\\n  <meta name="author" content="Designed by www.1234.info / Modified: Rafael Soutelino" />\\n  <meta name="distribution" content="global" />\\n  <meta name="description" content="Your container description here" />\\n  <meta name="keywords" content="Your keywords, keywords, keywords, here" />\\n  <link rel="stylesheet" type="text/css" media="screen,projection,print" href="\', escape=False)\nresponse.file.append(URL("static", "mf54_css/mf54_reset.css"))\nresponse.write(\'" />\\n  <link rel="stylesheet" type="text/css" media="screen,projection,print" href="\', escape=False)\nresponse.file.append(URL("static", "mf54_css/mf54_grid.css"))\nresponse.write(\'" />\\n  <link rel="stylesheet" type="text/css" media="screen,projection,print" href="\', escape=False)\nresponse.file.append(URL("static", "mf54_css/mf54_content.css"))\nresponse.write(\'" />\\n  <link rel="icon" type="image/x-icon" href="./img/favicon.ico" />\\n  <title>RSoutelino</title>\\n</head>\\n\\n<!-- Global IE fix to avoid layout crash when single word size wider than column width -->\\n<!-- Following line MUST remain as a comment to have the proper effect -->\\n<!--[if IE]><style type="text/css"> body {word-wrap: break-word;}</style><![endif]-->\\n\\n<body>\\n  <!-- CONTAINER FOR ENTIRE PAGE -->\\n  <div class="container">\\n\\n    <!-- A. HEADER -->\\n    <div class="corner-page-top"></div>\\n    <div class="header">\\n      <div class="header-top">\\n\\n        <!-- A.1 SITENAME -->\\n        <a class="sitelogo" href="index.html" title="Home"></a>\\n        <div class="sitename">\\n          <h1><a href="index.html" title="Home">Rafael G. Soutelino</a></h1>\\n          <h2>Academic Website</h2>\\n        </div>\\n\\n        <!-- A.2 BUTTON NAVIGATION -->\\n        <div class="navbutton">\\n          <ul>\\n            <li><a href="#" title="English"><img src="./img/icon_flag_us.gif" alt="Flag" /></a></li>\\n            <li><a href="#" title="Deutsch"><img src="./img/icon_flag_de.gif" alt="Flag" /></a></li>\\n            <li><a href="#" title="Svenska"><img src="./img/icon_flag_se.gif" alt="Flag" /></a></li>\\n            <li><a href="#" title="RSS"><img src="./img/icon_rss.gif" alt="RSS-Button" /></a></li>\\n          </ul>\\n        </div>\\n\\n        <!-- A.3 GLOBAL NAVIGATION -->\\n        <div class="navglobal">\\n          <ul>\\n            <li><a href="#" title="">About</a></li>\\n            <li><a href="#" title="">Contact</a></li>\\n            <li><a href="#" title="">Sitemap</a></li>\\n            <li><a href="#" title="">Links</a></li>\\n          </ul>\\n        </div>\\n      </div>\\n\\n      <!-- A.4 BREADCRUMB and SEARCHFORM -->\\n      <div class="header-bottom">\\n\\n        <!-- Breadcrumb -->\\n        <ul>\\n          <li class="nobullet">You are here:&nbsp;</li>\\n          <li><a href="#">Home</a></li>\\n          <li><a href="#">Page</a></li>\\n          <li><a href="#">Sub-Page</a></li>\\n          <li><a href="#">Sub-Sub-Page</a></li>\\n        </ul>\\n\\n        <!-- Search form -->\\n        <div class="searchform">\\n          <form action="index.html" method="get">\\n            <fieldset>\\n              <input name="field" class="field"  value=" Enter search word ..." />\\n              <input type="submit" name="button" class="button" value="Search" />\\n            </fieldset>\\n          </form>\\n        </div>\\n      </div>\\n    </div>\\n    <div class="corner-page-bottom"></div>\\n\\n    <!-- B. NAVIGATION BAR -->\\n    <div class="corner-page-top"></div>\\n    <div class="navbar">\\n\\n      <!-- Navigation item -->\\n      <ul>\\n        <li><a href="index.html">Home</a></li>\\n      </ul>\\n      <!-- Navigation item -->\\n      <ul>\\n        <li><a href="publications.html">Publications</a></li>\\n      </ul>\\n      <!-- Navigation item -->\\n      <ul>\\n        <li><a href="#">Links<!--[if IE 7]><!--></a><!--<![endif]-->\\n          <!--[if lte IE 6]><table><tr><td><![endif]-->\\n            <ul>\\n              <li><a href="mf54_grid.html">Useful meteorological and oceanographic links</a></li>\\n              <li><a href="mf54_grid_nosidebar.html">Useful websites</a></li>\\n            </ul>\\n          <!--[if lte IE 6]></td></tr></table></a><![endif]-->\\n        </li>\\n      </ul>\\n\\n    </div>\\n\\n    <!-- C. MAIN SECTION -->\\n    <div class="main">\\n      <h1 class="pagetitle">Home</h1>\\n\\n      <!-- C.1 CONTENT -->\\n      <div class="content">\\n\\n\\n<!-- ************************************************************************************************** -->\\n<!-- ************************************************************************************************** -->\\n<!-- **                                                                                              ** -->\\n<!-- **  1. CONTENT GRID (1-COLUMN)                                                                  ** -->\\n<!-- **                                                                                              ** -->\\n<!-- ************************************************************************************************** -->\\n<!-- ************************************************************************************************** -->\\n\\n\\n        <!-- CONTENT CELL -->\\n        <a id="anchor-grid-101"></a>\\n        <div class="corner-content-1col-top"></div>\\n        <div class="content-1col-nobox">\\n          <h1>Education</h1>\\n          <h2>Ph.D. in Physical Oceanography</h2>\\n          <p class="demo">Institution: Oceanographic Institute of the University of S\\xc3\\xa3o Paulo (IO-USP)\\n                         <br />\\n                         Advisor: Ilson C. A. da Silveira - IO-USP\\n                         <br />\\n                         Co-Advisor: Avijit Gangopadhyay - SMAST-UMassD\\n                         <br />\\n                         Dissertation: On the dynamics of the Brazil Current site of origin: PDF</p>\\n          <h2>M.Sc. in Physical Oceanography</h2>\\n          <p class="demo">Institution: Oceanographic Institute of the University of S\\xc3\\xa3o Paulo.\\n                         <br />\\n                         Advisor: Ilson C. A. da Silveira - IO-USP\\n                         <br />\\n                         Thesis: A Origem da Corrente do Brasil: PDF</p>\\n          <h2>B.Sc. in Oceanography</h2>\\n          <p class="demo">Institution: University of the state of Rio de Janeiro - UERJ.\\n                         <br />\\n                         Advisor: Ilson C. A. da Silveira - IO-USP\\n                         <br />\\n                         Co-Advisor: Luiz Carlos F. da Silva - UERJ\\n                         <br />\\n                         Thesis: Caracteriza\\xc3\\xa7\\xc3\\xa3o da estrutura barocl\\xc3\\xadnica do sistema de\\n                                       correntes de contorno oeste ao largo da costa leste\\n                                       brasileira: PDF</p>\\n        </div>\\n        <div class="corner-content-1col-bottom"></div>\\n\\n\\n        <!-- CONTENT CELL -->\\n        <div class="corner-content-1col-top"></div>\\n        <div class="content-1col-nobox">\\n          <h1>Research Interests</h1>\\n            <p class="demo">Write my research interests here!!!!  </p>\\n        </div>\\n        <div class="corner-content-1col-bottom"></div>\\n\\n      </div>\\n\\n\\n<!-- ************************************************************************************************** -->\\n<!-- ************************************************************************************************** -->\\n<!-- **                                                                                              ** -->\\n<!-- **  4. SUBCONTENT GRID                                                                          ** -->\\n<!-- **                                                                                              ** -->\\n<!-- ************************************************************************************************** -->\\n<!-- ************************************************************************************************** -->\\n\\n\\n      <!-- C.2 SUBCONTENT -->\\n      <a id="anchor-grid-401"></a>\\n      <div class="subcontent">\\n\\n<!-- ************************************************************************************************** -->\\n<!-- **   4-05. IMAGE                                                                                ** -->\\n<!-- ************************************************************************************************** -->\\n\\n        <!-- SUBCONTENT CELL -->\\n        <a id="anchor-image-4"></a>\\n        <div class="corner-subcontent-top"></div>\\n        <div class="subcontent-box">\\n          <h1>About Me</h1>\\n          <!-- <h2>Title heading (above image)</h2> -->\\n          <!-- <h3>Heading h3</h3> -->\\n          <!-- <h6>Heading h6</h6>                     -->\\n          <p><img src="./img/soutelino.jpg" alt="Image description" title="Image title" />I\\\'m a Physical Oceanographer working as a research fellow at IEAPM. I\\\'ve got my\\n                          Oceanographer B.Sc. degree at UERJ and my master\\\'s and Ph.D. degrees at\\n                          IO-USP, being the later in collaboration with SMAST-UMassD.</p>\\n          <p><img class="center" src="./img/image.jpg" alt="Image description" title="Image title" /></p>\\n          <h3>Heading h3</h3>\\n          <h6>Heading h6</h6>\\n        </div>\\n        <div class="corner-subcontent-bottom"></div>\\n\\n\\n      </div>\\n    </div>\\n\\n\\n<!-- ************************************************************************************************** -->\\n<!-- ************************************************************************************************** -->\\n<!-- *********************************   END OF CONTENT   ********************************************* -->\\n<!-- ************************************************************************************************** -->\\n<!-- ************************************************************************************************** -->\\n\\n\\n    <!-- D. FOOTER -->\\n    <div class="footer">\\n      <p>Copyright &copy; 2012 Rafael G. Soutelino&nbsp;&nbsp;|&nbsp;&nbsp;All Rights Reserved</p>\\n      <p class="credits">Design by <a href="http://1234.info/" title="Designer Homepage">1234.info</a> | Modified by <a href="#" title="Modifyer Homepage">Rafael Soutelino</a> | Powered by <a href="#" title="CMS Homepage">Your CMS</a> | Media Player by <a href="http://www.jeroenwijering.com" title="Media Player Credits">Jeroen Wijering</a>  | <a href="http://validator.w3.org/check?uri=referer" title="Validate XHTML code">XHTML 1.0</a> | <a href="http://jigsaw.w3.org/css-validator/" title="Validate CSS code">CSS 2.0</a></p>\\n    </div>\\n    <div class="corner-page-bottom"></div>\\n  </div>\\n\\n</body>\\n</html>\\n\\n\\n\\n\', escape=False)'
p7
sS'snapshot'
p8
(dp9
S'exception'
p10
(dp11
S'__hash__'
p12
S"<method-wrapper '__hash__' of exceptions.AttributeError object>"
p13
sS'__setattr__'
p14
S"<method-wrapper '__setattr__' of exceptions.AttributeError object>"
p15
sS'__reduce_ex__'
p16
S'<built-in method __reduce_ex__ of exceptions.AttributeError object>'
p17
sS'__getslice__'
p18
S"<method-wrapper '__getslice__' of exceptions.AttributeError object>"
p19
sS'__getitem__'
p20
S"<method-wrapper '__getitem__' of exceptions.AttributeError object>"
p21
sS'__setstate__'
p22
S'<built-in method __setstate__ of exceptions.AttributeError object>'
p23
sS'args'
p24
S'("\'NoneType\' object has no attribute \'append\'",)'
p25
sS'__reduce__'
p26
S'<built-in method __reduce__ of exceptions.AttributeError object>'
p27
sS'__str__'
p28
S"<method-wrapper '__str__' of exceptions.AttributeError object>"
p29
sS'__format__'
p30
S'<built-in method __format__ of exceptions.AttributeError object>'
p31
sS'__getattribute__'
p32
S"<method-wrapper '__getattribute__' of exceptions.AttributeError object>"
p33
sS'__class__'
p34
S"<type 'exceptions.AttributeError'>"
p35
sS'__unicode__'
p36
S'<built-in method __unicode__ of exceptions.AttributeError object>'
p37
sS'__delattr__'
p38
S"<method-wrapper '__delattr__' of exceptions.AttributeError object>"
p39
sS'__subclasshook__'
p40
S'<built-in method __subclasshook__ of type object>'
p41
sS'__repr__'
p42
S"<method-wrapper '__repr__' of exceptions.AttributeError object>"
p43
sS'__dict__'
p44
S'{}'
p45
sS'__sizeof__'
p46
S'<built-in method __sizeof__ of exceptions.AttributeError object>'
p47
sS'__doc__'
p48
S"'Attribute not found.'"
p49
sS'__init__'
p50
S"<method-wrapper '__init__' of exceptions.AttributeError object>"
p51
sS'__new__'
p52
S'<built-in method __new__ of type object>'
p53
ssS'evalue'
p54
S"'NoneType' object has no attribute 'append'"
p55
sS'request'
p56
ccopy_reg
_reconstructor
p57
(cgluon.html
BEAUTIFY
p58
c__builtin__
object
p59
NtRp60
(dp61
S'attributes'
p62
(dp63
sS'components'
p64
(lp65
g57
(cgluon.html
TABLE
p66
g59
NtRp67
(dp68
g62
(dp69
S'level'
p70
I5
ssS'parent'
p71
Nsg64
(lp72
g57
(cgluon.html
TR
p73
g59
NtRp74
(dp75
g62
(dp76
sg71
g67
sg64
(lp77
g57
(cgluon.html
TD
p78
g59
NtRp79
(dp80
g62
(dp81
S'_style'
p82
S'font-weight:bold;vertical-align:top'
p83
ssg71
g74
sg64
(lp84
S'ajax'
p85
asbag57
(g78
g59
NtRp86
(dp87
g62
(dp88
S'_valign'
p89
S'top'
p90
ssg71
g74
sg64
(lp91
S':'
asbag57
(g78
g59
NtRp92
(dp93
g62
(dp94
sg71
g74
sg64
(lp95
g57
(g58
g59
NtRp96
(dp97
g62
(dp98
g70
I5
ssg71
g92
sg64
(lp99
S'False'
p100
asbasbasbag57
(g73
g59
NtRp101
(dp102
g62
(dp103
sg71
g67
sg64
(lp104
g57
(g78
g59
NtRp105
(dp106
g62
(dp107
g82
g83
ssg71
g101
sg64
(lp108
S'application'
p109
asbag57
(g78
g59
NtRp110
(dp111
g62
(dp112
g89
g90
ssg71
g101
sg64
(lp113
S':'
asbag57
(g78
g59
NtRp114
(dp115
g62
(dp116
sg71
g101
sg64
(lp117
g57
(g58
g59
NtRp118
(dp119
g62
(dp120
g70
I5
ssg71
g114
sg64
(lp121
S'rsoutelino'
p122
asbasbasbag57
(g73
g59
NtRp123
(dp124
g62
(dp125
sg71
g67
sg64
(lp126
g57
(g78
g59
NtRp127
(dp128
g62
(dp129
g82
g83
ssg71
g123
sg64
(lp130
g24
asbag57
(g78
g59
NtRp131
(dp132
g62
(dp133
g89
g90
ssg71
g123
sg64
(lp134
S':'
asbag57
(g78
g59
NtRp135
(dp136
g62
(dp137
sg71
g123
sg64
(lp138
g57
(g58
g59
NtRp139
(dp140
g62
(dp141
g70
I5
ssg71
g135
sg64
(lp142
g57
(g66
g59
NtRp143
(dp144
g62
(dp145
g70
I4
ssg71
Nsg64
(lp146
sbasbasbasbag57
(g73
g59
NtRp147
(dp148
g62
(dp149
sg71
g67
sg64
(lp150
g57
(g78
g59
NtRp151
(dp152
g62
(dp153
g82
g83
ssg71
g147
sg64
(lp154
S'body'
p155
asbag57
(g78
g59
NtRp156
(dp157
g62
(dp158
g89
g90
ssg71
g147
sg64
(lp159
S':'
asbag57
(g78
g59
NtRp160
(dp161
g62
(dp162
sg71
g147
sg64
(lp163
g57
(g58
g59
NtRp164
(dp165
g62
(dp166
g70
I5
ssg71
g160
sg64
(lp167
S'<cStringIO.StringO object at 0x3e89ce0>'
p168
asbasbasbag57
(g73
g59
NtRp169
(dp170
g62
(dp171
sg71
g67
sg64
(lp172
g57
(g78
g59
NtRp173
(dp174
g62
(dp175
g82
g83
ssg71
g169
sg64
(lp176
S'cid'
p177
asbag57
(g78
g59
NtRp178
(dp179
g62
(dp180
g89
g90
ssg71
g169
sg64
(lp181
S':'
asbag57
(g78
g59
NtRp182
(dp183
g62
(dp184
sg71
g169
sg64
(lp185
g57
(g58
g59
NtRp186
(dp187
g62
(dp188
g70
I5
ssg71
g182
sg64
(lp189
S'None'
p190
asbasbasbag57
(g73
g59
NtRp191
(dp192
g62
(dp193
sg71
g67
sg64
(lp194
g57
(g78
g59
NtRp195
(dp196
g62
(dp197
g82
g83
ssg71
g191
sg64
(lp198
S'client'
p199
asbag57
(g78
g59
NtRp200
(dp201
g62
(dp202
g89
g90
ssg71
g191
sg64
(lp203
S':'
asbag57
(g78
g59
NtRp204
(dp205
g62
(dp206
sg71
g191
sg64
(lp207
g57
(g58
g59
NtRp208
(dp209
g62
(dp210
g70
I5
ssg71
g204
sg64
(lp211
S'177.61.67.104'
p212
asbasbasbag57
(g73
g59
NtRp213
(dp214
g62
(dp215
sg71
g67
sg64
(lp216
g57
(g78
g59
NtRp217
(dp218
g62
(dp219
g82
g83
ssg71
g213
sg64
(lp220
S'controller'
p221
asbag57
(g78
g59
NtRp222
(dp223
g62
(dp224
g89
g90
ssg71
g213
sg64
(lp225
S':'
asbag57
(g78
g59
NtRp226
(dp227
g62
(dp228
sg71
g213
sg64
(lp229
g57
(g58
g59
NtRp230
(dp231
g62
(dp232
g70
I5
ssg71
g226
sg64
(lp233
S'default'
p234
asbasbasbag57
(g73
g59
NtRp235
(dp236
g62
(dp237
sg71
g67
sg64
(lp238
g57
(g78
g59
NtRp239
(dp240
g62
(dp241
g82
g83
ssg71
g235
sg64
(lp242
S'cookies'
p243
asbag57
(g78
g59
NtRp244
(dp245
g62
(dp246
g89
g90
ssg71
g235
sg64
(lp247
S':'
asbag57
(g78
g59
NtRp248
(dp249
g62
(dp250
sg71
g235
sg64
(lp251
g57
(g58
g59
NtRp252
(dp253
g62
(dp254
g70
I5
ssg71
g248
sg64
(lp255
g57
(g66
g59
NtRp256
(dp257
g62
(dp258
g70
I4
ssg71
Nsg64
(lp259
g57
(g73
g59
NtRp260
(dp261
g62
(dp262
sg71
g256
sg64
(lp263
g57
(g78
g59
NtRp264
(dp265
g62
(dp266
g82
g83
ssg71
g260
sg64
(lp267
S'session_id_admin'
p268
asbag57
(g78
g59
NtRp269
(dp270
g62
(dp271
g89
g90
ssg71
g260
sg64
(lp272
S':'
asbag57
(g78
g59
NtRp273
(dp274
g62
(dp275
sg71
g260
sg64
(lp276
g57
(g58
g59
NtRp277
(dp278
g62
(dp279
g70
I4
ssg71
g273
sg64
(lp280
S'177.61.67.104-93e4a298-187c-4e88-bf96-bf3ce9b288ca'
p281
ag57
(g66
g59
NtRp282
(dp283
g62
(dp284
g70
I3
ssg71
Nsg64
(lp285
g57
(g73
g59
NtRp286
(dp287
g62
(dp288
sg71
g282
sg64
(lp289
g57
(g78
g59
NtRp290
(dp291
g62
(dp292
g82
g83
ssg71
g286
sg64
(lp293
S'comment'
p294
asbag57
(g78
g59
NtRp295
(dp296
g62
(dp297
g89
g90
ssg71
g286
sg64
(lp298
S':'
asbag57
(g78
g59
NtRp299
(dp300
g62
(dp301
sg71
g286
sg64
(lp302
g57
(g58
g59
NtRp303
(dp304
g62
(dp305
g70
I3
ssg71
g299
sg64
(lp306
S''
asbasbasbag57
(g73
g59
NtRp307
(dp308
g62
(dp309
sg71
g282
sg64
(lp310
g57
(g78
g59
NtRp311
(dp312
g62
(dp313
g82
g83
ssg71
g307
sg64
(lp314
S'domain'
p315
asbag57
(g78
g59
NtRp316
(dp317
g62
(dp318
g89
g90
ssg71
g307
sg64
(lp319
S':'
asbag57
(g78
g59
NtRp320
(dp321
g62
(dp322
sg71
g307
sg64
(lp323
g57
(g58
g59
NtRp324
(dp325
g62
(dp326
g70
I3
ssg71
g320
sg64
(lp327
S''
asbasbasbag57
(g73
g59
NtRp328
(dp329
g62
(dp330
sg71
g282
sg64
(lp331
g57
(g78
g59
NtRp332
(dp333
g62
(dp334
g82
g83
ssg71
g328
sg64
(lp335
S'expires'
p336
asbag57
(g78
g59
NtRp337
(dp338
g62
(dp339
g89
g90
ssg71
g328
sg64
(lp340
S':'
asbag57
(g78
g59
NtRp341
(dp342
g62
(dp343
sg71
g328
sg64
(lp344
g57
(g58
g59
NtRp345
(dp346
g62
(dp347
g70
I3
ssg71
g341
sg64
(lp348
S''
asbasbasbag57
(g73
g59
NtRp349
(dp350
g62
(dp351
sg71
g282
sg64
(lp352
g57
(g78
g59
NtRp353
(dp354
g62
(dp355
g82
g83
ssg71
g349
sg64
(lp356
S'httponly'
p357
asbag57
(g78
g59
NtRp358
(dp359
g62
(dp360
g89
g90
ssg71
g349
sg64
(lp361
S':'
asbag57
(g78
g59
NtRp362
(dp363
g62
(dp364
sg71
g349
sg64
(lp365
g57
(g58
g59
NtRp366
(dp367
g62
(dp368
g70
I3
ssg71
g362
sg64
(lp369
S''
asbasbasbag57
(g73
g59
NtRp370
(dp371
g62
(dp372
sg71
g282
sg64
(lp373
g57
(g78
g59
NtRp374
(dp375
g62
(dp376
g82
g83
ssg71
g370
sg64
(lp377
S'max-age'
p378
asbag57
(g78
g59
NtRp379
(dp380
g62
(dp381
g89
g90
ssg71
g370
sg64
(lp382
S':'
asbag57
(g78
g59
NtRp383
(dp384
g62
(dp385
sg71
g370
sg64
(lp386
g57
(g58
g59
NtRp387
(dp388
g62
(dp389
g70
I3
ssg71
g383
sg64
(lp390
S''
asbasbasbag57
(g73
g59
NtRp391
(dp392
g62
(dp393
sg71
g282
sg64
(lp394
g57
(g78
g59
NtRp395
(dp396
g62
(dp397
g82
g83
ssg71
g391
sg64
(lp398
S'path'
p399
asbag57
(g78
g59
NtRp400
(dp401
g62
(dp402
g89
g90
ssg71
g391
sg64
(lp403
S':'
asbag57
(g78
g59
NtRp404
(dp405
g62
(dp406
sg71
g391
sg64
(lp407
g57
(g58
g59
NtRp408
(dp409
g62
(dp410
g70
I3
ssg71
g404
sg64
(lp411
S''
asbasbasbag57
(g73
g59
NtRp412
(dp413
g62
(dp414
sg71
g282
sg64
(lp415
g57
(g78
g59
NtRp416
(dp417
g62
(dp418
g82
g83
ssg71
g412
sg64
(lp419
S'secure'
p420
asbag57
(g78
g59
NtRp421
(dp422
g62
(dp423
g89
g90
ssg71
g412
sg64
(lp424
S':'
asbag57
(g78
g59
NtRp425
(dp426
g62
(dp427
sg71
g412
sg64
(lp428
g57
(g58
g59
NtRp429
(dp430
g62
(dp431
g70
I3
ssg71
g425
sg64
(lp432
S''
asbasbasbag57
(g73
g59
NtRp433
(dp434
g62
(dp435
sg71
g282
sg64
(lp436
g57
(g78
g59
NtRp437
(dp438
g62
(dp439
g82
g83
ssg71
g433
sg64
(lp440
S'version'
p441
asbag57
(g78
g59
NtRp442
(dp443
g62
(dp444
g89
g90
ssg71
g433
sg64
(lp445
S':'
asbag57
(g78
g59
NtRp446
(dp447
g62
(dp448
sg71
g433
sg64
(lp449
g57
(g58
g59
NtRp450
(dp451
g62
(dp452
g70
I3
ssg71
g446
sg64
(lp453
S''
asbasbasbasbasbasbasbag57
(g73
g59
NtRp454
(dp455
g62
(dp456
sg71
g256
sg64
(lp457
g57
(g78
g59
NtRp458
(dp459
g62
(dp460
g82
g83
ssg71
g454
sg64
(lp461
S'session_id_rsoutelino'
p462
asbag57
(g78
g59
NtRp463
(dp464
g62
(dp465
g89
g90
ssg71
g454
sg64
(lp466
S':'
asbag57
(g78
g59
NtRp467
(dp468
g62
(dp469
sg71
g454
sg64
(lp470
g57
(g58
g59
NtRp471
(dp472
g62
(dp473
g70
I4
ssg71
g467
sg64
(lp474
S'177.162.249.173-367d9431-619b-4299-9fd0-6014b0e3ef85'
p475
ag57
(g66
g59
NtRp476
(dp477
g62
(dp478
g70
I3
ssg71
Nsg64
(lp479
g57
(g73
g59
NtRp480
(dp481
g62
(dp482
sg71
g476
sg64
(lp483
g57
(g78
g59
NtRp484
(dp485
g62
(dp486
g82
g83
ssg71
g480
sg64
(lp487
g294
asbag57
(g78
g59
NtRp488
(dp489
g62
(dp490
g89
g90
ssg71
g480
sg64
(lp491
S':'
asbag57
(g78
g59
NtRp492
(dp493
g62
(dp494
sg71
g480
sg64
(lp495
g57
(g58
g59
NtRp496
(dp497
g62
(dp498
g70
I3
ssg71
g492
sg64
(lp499
S''
asbasbasbag57
(g73
g59
NtRp500
(dp501
g62
(dp502
sg71
g476
sg64
(lp503
g57
(g78
g59
NtRp504
(dp505
g62
(dp506
g82
g83
ssg71
g500
sg64
(lp507
g315
asbag57
(g78
g59
NtRp508
(dp509
g62
(dp510
g89
g90
ssg71
g500
sg64
(lp511
S':'
asbag57
(g78
g59
NtRp512
(dp513
g62
(dp514
sg71
g500
sg64
(lp515
g57
(g58
g59
NtRp516
(dp517
g62
(dp518
g70
I3
ssg71
g512
sg64
(lp519
S''
asbasbasbag57
(g73
g59
NtRp520
(dp521
g62
(dp522
sg71
g476
sg64
(lp523
g57
(g78
g59
NtRp524
(dp525
g62
(dp526
g82
g83
ssg71
g520
sg64
(lp527
g336
asbag57
(g78
g59
NtRp528
(dp529
g62
(dp530
g89
g90
ssg71
g520
sg64
(lp531
S':'
asbag57
(g78
g59
NtRp532
(dp533
g62
(dp534
sg71
g520
sg64
(lp535
g57
(g58
g59
NtRp536
(dp537
g62
(dp538
g70
I3
ssg71
g532
sg64
(lp539
S''
asbasbasbag57
(g73
g59
NtRp540
(dp541
g62
(dp542
sg71
g476
sg64
(lp543
g57
(g78
g59
NtRp544
(dp545
g62
(dp546
g82
g83
ssg71
g540
sg64
(lp547
g357
asbag57
(g78
g59
NtRp548
(dp549
g62
(dp550
g89
g90
ssg71
g540
sg64
(lp551
S':'
asbag57
(g78
g59
NtRp552
(dp553
g62
(dp554
sg71
g540
sg64
(lp555
g57
(g58
g59
NtRp556
(dp557
g62
(dp558
g70
I3
ssg71
g552
sg64
(lp559
S''
asbasbasbag57
(g73
g59
NtRp560
(dp561
g62
(dp562
sg71
g476
sg64
(lp563
g57
(g78
g59
NtRp564
(dp565
g62
(dp566
g82
g83
ssg71
g560
sg64
(lp567
g378
asbag57
(g78
g59
NtRp568
(dp569
g62
(dp570
g89
g90
ssg71
g560
sg64
(lp571
S':'
asbag57
(g78
g59
NtRp572
(dp573
g62
(dp574
sg71
g560
sg64
(lp575
g57
(g58
g59
NtRp576
(dp577
g62
(dp578
g70
I3
ssg71
g572
sg64
(lp579
S''
asbasbasbag57
(g73
g59
NtRp580
(dp581
g62
(dp582
sg71
g476
sg64
(lp583
g57
(g78
g59
NtRp584
(dp585
g62
(dp586
g82
g83
ssg71
g580
sg64
(lp587
g399
asbag57
(g78
g59
NtRp588
(dp589
g62
(dp590
g89
g90
ssg71
g580
sg64
(lp591
S':'
asbag57
(g78
g59
NtRp592
(dp593
g62
(dp594
sg71
g580
sg64
(lp595
g57
(g58
g59
NtRp596
(dp597
g62
(dp598
g70
I3
ssg71
g592
sg64
(lp599
S''
asbasbasbag57
(g73
g59
NtRp600
(dp601
g62
(dp602
sg71
g476
sg64
(lp603
g57
(g78
g59
NtRp604
(dp605
g62
(dp606
g82
g83
ssg71
g600
sg64
(lp607
g420
asbag57
(g78
g59
NtRp608
(dp609
g62
(dp610
g89
g90
ssg71
g600
sg64
(lp611
S':'
asbag57
(g78
g59
NtRp612
(dp613
g62
(dp614
sg71
g600
sg64
(lp615
g57
(g58
g59
NtRp616
(dp617
g62
(dp618
g70
I3
ssg71
g612
sg64
(lp619
S''
asbasbasbag57
(g73
g59
NtRp620
(dp621
g62
(dp622
sg71
g476
sg64
(lp623
g57
(g78
g59
NtRp624
(dp625
g62
(dp626
g82
g83
ssg71
g620
sg64
(lp627
g441
asbag57
(g78
g59
NtRp628
(dp629
g62
(dp630
g89
g90
ssg71
g620
sg64
(lp631
S':'
asbag57
(g78
g59
NtRp632
(dp633
g62
(dp634
sg71
g620
sg64
(lp635
g57
(g58
g59
NtRp636
(dp637
g62
(dp638
g70
I3
ssg71
g632
sg64
(lp639
S''
asbasbasbasbasbasbasbag57
(g73
g59
NtRp640
(dp641
g62
(dp642
sg71
g256
sg64
(lp643
g57
(g78
g59
NtRp644
(dp645
g62
(dp646
g82
g83
ssg71
g640
sg64
(lp647
S'session_id_welcome'
p648
asbag57
(g78
g59
NtRp649
(dp650
g62
(dp651
g89
g90
ssg71
g640
sg64
(lp652
S':'
asbag57
(g78
g59
NtRp653
(dp654
g62
(dp655
sg71
g640
sg64
(lp656
g57
(g58
g59
NtRp657
(dp658
g62
(dp659
g70
I4
ssg71
g653
sg64
(lp660
S'177.162.249.173-be2b4b3b-2739-4474-88ef-89ea7433cded'
p661
ag57
(g66
g59
NtRp662
(dp663
g62
(dp664
g70
I3
ssg71
Nsg64
(lp665
g57
(g73
g59
NtRp666
(dp667
g62
(dp668
sg71
g662
sg64
(lp669
g57
(g78
g59
NtRp670
(dp671
g62
(dp672
g82
g83
ssg71
g666
sg64
(lp673
g294
asbag57
(g78
g59
NtRp674
(dp675
g62
(dp676
g89
g90
ssg71
g666
sg64
(lp677
S':'
asbag57
(g78
g59
NtRp678
(dp679
g62
(dp680
sg71
g666
sg64
(lp681
g57
(g58
g59
NtRp682
(dp683
g62
(dp684
g70
I3
ssg71
g678
sg64
(lp685
S''
asbasbasbag57
(g73
g59
NtRp686
(dp687
g62
(dp688
sg71
g662
sg64
(lp689
g57
(g78
g59
NtRp690
(dp691
g62
(dp692
g82
g83
ssg71
g686
sg64
(lp693
g315
asbag57
(g78
g59
NtRp694
(dp695
g62
(dp696
g89
g90
ssg71
g686
sg64
(lp697
S':'
asbag57
(g78
g59
NtRp698
(dp699
g62
(dp700
sg71
g686
sg64
(lp701
g57
(g58
g59
NtRp702
(dp703
g62
(dp704
g70
I3
ssg71
g698
sg64
(lp705
S''
asbasbasbag57
(g73
g59
NtRp706
(dp707
g62
(dp708
sg71
g662
sg64
(lp709
g57
(g78
g59
NtRp710
(dp711
g62
(dp712
g82
g83
ssg71
g706
sg64
(lp713
g336
asbag57
(g78
g59
NtRp714
(dp715
g62
(dp716
g89
g90
ssg71
g706
sg64
(lp717
S':'
asbag57
(g78
g59
NtRp718
(dp719
g62
(dp720
sg71
g706
sg64
(lp721
g57
(g58
g59
NtRp722
(dp723
g62
(dp724
g70
I3
ssg71
g718
sg64
(lp725
S''
asbasbasbag57
(g73
g59
NtRp726
(dp727
g62
(dp728
sg71
g662
sg64
(lp729
g57
(g78
g59
NtRp730
(dp731
g62
(dp732
g82
g83
ssg71
g726
sg64
(lp733
g357
asbag57
(g78
g59
NtRp734
(dp735
g62
(dp736
g89
g90
ssg71
g726
sg64
(lp737
S':'
asbag57
(g78
g59
NtRp738
(dp739
g62
(dp740
sg71
g726
sg64
(lp741
g57
(g58
g59
NtRp742
(dp743
g62
(dp744
g70
I3
ssg71
g738
sg64
(lp745
S''
asbasbasbag57
(g73
g59
NtRp746
(dp747
g62
(dp748
sg71
g662
sg64
(lp749
g57
(g78
g59
NtRp750
(dp751
g62
(dp752
g82
g83
ssg71
g746
sg64
(lp753
g378
asbag57
(g78
g59
NtRp754
(dp755
g62
(dp756
g89
g90
ssg71
g746
sg64
(lp757
S':'
asbag57
(g78
g59
NtRp758
(dp759
g62
(dp760
sg71
g746
sg64
(lp761
g57
(g58
g59
NtRp762
(dp763
g62
(dp764
g70
I3
ssg71
g758
sg64
(lp765
S''
asbasbasbag57
(g73
g59
NtRp766
(dp767
g62
(dp768
sg71
g662
sg64
(lp769
g57
(g78
g59
NtRp770
(dp771
g62
(dp772
g82
g83
ssg71
g766
sg64
(lp773
g399
asbag57
(g78
g59
NtRp774
(dp775
g62
(dp776
g89
g90
ssg71
g766
sg64
(lp777
S':'
asbag57
(g78
g59
NtRp778
(dp779
g62
(dp780
sg71
g766
sg64
(lp781
g57
(g58
g59
NtRp782
(dp783
g62
(dp784
g70
I3
ssg71
g778
sg64
(lp785
S''
asbasbasbag57
(g73
g59
NtRp786
(dp787
g62
(dp788
sg71
g662
sg64
(lp789
g57
(g78
g59
NtRp790
(dp791
g62
(dp792
g82
g83
ssg71
g786
sg64
(lp793
g420
asbag57
(g78
g59
NtRp794
(dp795
g62
(dp796
g89
g90
ssg71
g786
sg64
(lp797
S':'
asbag57
(g78
g59
NtRp798
(dp799
g62
(dp800
sg71
g786
sg64
(lp801
g57
(g58
g59
NtRp802
(dp803
g62
(dp804
g70
I3
ssg71
g798
sg64
(lp805
S''
asbasbasbag57
(g73
g59
NtRp806
(dp807
g62
(dp808
sg71
g662
sg64
(lp809
g57
(g78
g59
NtRp810
(dp811
g62
(dp812
g82
g83
ssg71
g806
sg64
(lp813
g441
asbag57
(g78
g59
NtRp814
(dp815
g62
(dp816
g89
g90
ssg71
g806
sg64
(lp817
S':'
asbag57
(g78
g59
NtRp818
(dp819
g62
(dp820
sg71
g806
sg64
(lp821
g57
(g58
g59
NtRp822
(dp823
g62
(dp824
g70
I3
ssg71
g818
sg64
(lp825
S''
asbasbasbasbasbasbasbasbasbasbasbag57
(g73
g59
NtRp826
(dp827
g62
(dp828
sg71
g67
sg64
(lp829
g57
(g78
g59
NtRp830
(dp831
g62
(dp832
g82
g83
ssg71
g826
sg64
(lp833
S'env'
p834
asbag57
(g78
g59
NtRp835
(dp836
g62
(dp837
g89
g90
ssg71
g826
sg64
(lp838
S':'
asbag57
(g78
g59
NtRp839
(dp840
g62
(dp841
sg71
g826
sg64
(lp842
g57
(g58
g59
NtRp843
(dp844
g62
(dp845
g70
I5
ssg71
g839
sg64
(lp846
g57
(g66
g59
NtRp847
(dp848
g62
(dp849
g70
I4
ssg71
Nsg64
(lp850
g57
(g73
g59
NtRp851
(dp852
g62
(dp853
sg71
g847
sg64
(lp854
g57
(g78
g59
NtRp855
(dp856
g62
(dp857
g82
g83
ssg71
g851
sg64
(lp858
S'app_folders'
p859
asbag57
(g78
g59
NtRp860
(dp861
g62
(dp862
g89
g90
ssg71
g851
sg64
(lp863
S':'
asbag57
(g78
g59
NtRp864
(dp865
g62
(dp866
sg71
g851
sg64
(lp867
g57
(g58
g59
NtRp868
(dp869
g62
(dp870
g70
I4
ssg71
g864
sg64
(lp871
S"set(['/home/rsoutelino/web2py/applications/rsoutelino/', '/home/rsoutelino/web2py/applications/admin/'])"
p872
asbasbasbag57
(g73
g59
NtRp873
(dp874
g62
(dp875
sg71
g847
sg64
(lp876
g57
(g78
g59
NtRp877
(dp878
g62
(dp879
g82
g83
ssg71
g873
sg64
(lp880
S'applications_parent'
p881
asbag57
(g78
g59
NtRp882
(dp883
g62
(dp884
g89
g90
ssg71
g873
sg64
(lp885
S':'
asbag57
(g78
g59
NtRp886
(dp887
g62
(dp888
sg71
g873
sg64
(lp889
g57
(g58
g59
NtRp890
(dp891
g62
(dp892
g70
I4
ssg71
g886
sg64
(lp893
S'/home/rsoutelino/web2py'
p894
asbasbasbag57
(g73
g59
NtRp895
(dp896
g62
(dp897
sg71
g847
sg64
(lp898
g57
(g78
g59
NtRp899
(dp900
g62
(dp901
g82
g83
ssg71
g895
sg64
(lp902
S'content_length'
p903
asbag57
(g78
g59
NtRp904
(dp905
g62
(dp906
g89
g90
ssg71
g895
sg64
(lp907
S':'
asbag57
(g78
g59
NtRp908
(dp909
g62
(dp910
sg71
g895
sg64
(lp911
g57
(g58
g59
NtRp912
(dp913
g62
(dp914
g70
I4
ssg71
g908
sg64
(lp915
S''
asbasbasbag57
(g73
g59
NtRp916
(dp917
g62
(dp918
sg71
g847
sg64
(lp919
g57
(g78
g59
NtRp920
(dp921
g62
(dp922
g82
g83
ssg71
g916
sg64
(lp923
S'content_type'
p924
asbag57
(g78
g59
NtRp925
(dp926
g62
(dp927
g89
g90
ssg71
g916
sg64
(lp928
S':'
asbag57
(g78
g59
NtRp929
(dp930
g62
(dp931
sg71
g916
sg64
(lp932
g57
(g58
g59
NtRp933
(dp934
g62
(dp935
g70
I4
ssg71
g929
sg64
(lp936
S''
asbasbasbag57
(g73
g59
NtRp937
(dp938
g62
(dp939
sg71
g847
sg64
(lp940
g57
(g78
g59
NtRp941
(dp942
g62
(dp943
g82
g83
ssg71
g937
sg64
(lp944
S'db_sessions'
p945
asbag57
(g78
g59
NtRp946
(dp947
g62
(dp948
g89
g90
ssg71
g937
sg64
(lp949
S':'
asbag57
(g78
g59
NtRp950
(dp951
g62
(dp952
sg71
g937
sg64
(lp953
g57
(g58
g59
NtRp954
(dp955
g62
(dp956
g70
I4
ssg71
g950
sg64
(lp957
S'set([])'
p958
asbasbasbag57
(g73
g59
NtRp959
(dp960
g62
(dp961
sg71
g847
sg64
(lp962
g57
(g78
g59
NtRp963
(dp964
g62
(dp965
g82
g83
ssg71
g959
sg64
(lp966
S'debugging'
p967
asbag57
(g78
g59
NtRp968
(dp969
g62
(dp970
g89
g90
ssg71
g959
sg64
(lp971
S':'
asbag57
(g78
g59
NtRp972
(dp973
g62
(dp974
sg71
g959
sg64
(lp975
g57
(g58
g59
NtRp976
(dp977
g62
(dp978
g70
I4
ssg71
g972
sg64
(lp979
g100
asbasbasbag57
(g73
g59
NtRp980
(dp981
g62
(dp982
sg71
g847
sg64
(lp983
g57
(g78
g59
NtRp984
(dp985
g62
(dp986
g82
g83
ssg71
g980
sg64
(lp987
S'document_root'
p988
asbag57
(g78
g59
NtRp989
(dp990
g62
(dp991
g89
g90
ssg71
g980
sg64
(lp992
S':'
asbag57
(g78
g59
NtRp993
(dp994
g62
(dp995
sg71
g980
sg64
(lp996
g57
(g58
g59
NtRp997
(dp998
g62
(dp999
g70
I4
ssg71
g993
sg64
(lp1000
S'/var/log/nginx/user_logs'
p1001
asbasbasbag57
(g73
g59
NtRp1002
(dp1003
g62
(dp1004
sg71
g847
sg64
(lp1005
g57
(g78
g59
NtRp1006
(dp1007
g62
(dp1008
g82
g83
ssg71
g1002
sg64
(lp1009
S'gluon_parent'
p1010
asbag57
(g78
g59
NtRp1011
(dp1012
g62
(dp1013
g89
g90
ssg71
g1002
sg64
(lp1014
S':'
asbag57
(g78
g59
NtRp1015
(dp1016
g62
(dp1017
sg71
g1002
sg64
(lp1018
g57
(g58
g59
NtRp1019
(dp1020
g62
(dp1021
g70
I4
ssg71
g1015
sg64
(lp1022
g894
asbasbasbag57
(g73
g59
NtRp1023
(dp1024
g62
(dp1025
sg71
g847
sg64
(lp1026
g57
(g78
g59
NtRp1027
(dp1028
g62
(dp1029
g82
g83
ssg71
g1023
sg64
(lp1030
S'http_accept'
p1031
asbag57
(g78
g59
NtRp1032
(dp1033
g62
(dp1034
g89
g90
ssg71
g1023
sg64
(lp1035
S':'
asbag57
(g78
g59
NtRp1036
(dp1037
g62
(dp1038
sg71
g1023
sg64
(lp1039
g57
(g58
g59
NtRp1040
(dp1041
g62
(dp1042
g70
I4
ssg71
g1036
sg64
(lp1043
S'text/html,application/xhtml+xml,application/xml;q=0.9,*/*;q=0.8'
p1044
asbasbasbag57
(g73
g59
NtRp1045
(dp1046
g62
(dp1047
sg71
g847
sg64
(lp1048
g57
(g78
g59
NtRp1049
(dp1050
g62
(dp1051
g82
g83
ssg71
g1045
sg64
(lp1052
S'http_accept_charset'
p1053
asbag57
(g78
g59
NtRp1054
(dp1055
g62
(dp1056
g89
g90
ssg71
g1045
sg64
(lp1057
S':'
asbag57
(g78
g59
NtRp1058
(dp1059
g62
(dp1060
sg71
g1045
sg64
(lp1061
g57
(g58
g59
NtRp1062
(dp1063
g62
(dp1064
g70
I4
ssg71
g1058
sg64
(lp1065
S'ISO-8859-1,utf-8;q=0.7,*;q=0.3'
p1066
asbasbasbag57
(g73
g59
NtRp1067
(dp1068
g62
(dp1069
sg71
g847
sg64
(lp1070
g57
(g78
g59
NtRp1071
(dp1072
g62
(dp1073
g82
g83
ssg71
g1067
sg64
(lp1074
S'http_accept_encoding'
p1075
asbag57
(g78
g59
NtRp1076
(dp1077
g62
(dp1078
g89
g90
ssg71
g1067
sg64
(lp1079
S':'
asbag57
(g78
g59
NtRp1080
(dp1081
g62
(dp1082
sg71
g1067
sg64
(lp1083
g57
(g58
g59
NtRp1084
(dp1085
g62
(dp1086
g70
I4
ssg71
g1080
sg64
(lp1087
S'gzip,deflate,sdch'
p1088
asbasbasbag57
(g73
g59
NtRp1089
(dp1090
g62
(dp1091
sg71
g847
sg64
(lp1092
g57
(g78
g59
NtRp1093
(dp1094
g62
(dp1095
g82
g83
ssg71
g1089
sg64
(lp1096
S'http_accept_language'
p1097
asbag57
(g78
g59
NtRp1098
(dp1099
g62
(dp1100
g89
g90
ssg71
g1089
sg64
(lp1101
S':'
asbag57
(g78
g59
NtRp1102
(dp1103
g62
(dp1104
sg71
g1089
sg64
(lp1105
g57
(g58
g59
NtRp1106
(dp1107
g62
(dp1108
g70
I4
ssg71
g1102
sg64
(lp1109
S'en-US,en;q=0.8'
p1110
asbasbasbag57
(g73
g59
NtRp1111
(dp1112
g62
(dp1113
sg71
g847
sg64
(lp1114
g57
(g78
g59
NtRp1115
(dp1116
g62
(dp1117
g82
g83
ssg71
g1111
sg64
(lp1118
S'http_cache_control'
p1119
asbag57
(g78
g59
NtRp1120
(dp1121
g62
(dp1122
g89
g90
ssg71
g1111
sg64
(lp1123
S':'
asbag57
(g78
g59
NtRp1124
(dp1125
g62
(dp1126
sg71
g1111
sg64
(lp1127
g57
(g58
g59
NtRp1128
(dp1129
g62
(dp1130
g70
I4
ssg71
g1124
sg64
(lp1131
S'max-age=0'
p1132
asbasbasbag57
(g73
g59
NtRp1133
(dp1134
g62
(dp1135
sg71
g847
sg64
(lp1136
g57
(g78
g59
NtRp1137
(dp1138
g62
(dp1139
g82
g83
ssg71
g1133
sg64
(lp1140
S'http_connection'
p1141
asbag57
(g78
g59
NtRp1142
(dp1143
g62
(dp1144
g89
g90
ssg71
g1133
sg64
(lp1145
S':'
asbag57
(g78
g59
NtRp1146
(dp1147
g62
(dp1148
sg71
g1133
sg64
(lp1149
g57
(g58
g59
NtRp1150
(dp1151
g62
(dp1152
g70
I4
ssg71
g1146
sg64
(lp1153
S'keep-alive'
p1154
asbasbasbag57
(g73
g59
NtRp1155
(dp1156
g62
(dp1157
sg71
g847
sg64
(lp1158
g57
(g78
g59
NtRp1159
(dp1160
g62
(dp1161
g82
g83
ssg71
g1155
sg64
(lp1162
S'http_cookie'
p1163
asbag57
(g78
g59
NtRp1164
(dp1165
g62
(dp1166
g89
g90
ssg71
g1155
sg64
(lp1167
S':'
asbag57
(g78
g59
NtRp1168
(dp1169
g62
(dp1170
sg71
g1155
sg64
(lp1171
g57
(g58
g59
NtRp1172
(dp1173
g62
(dp1174
g70
I4
ssg71
g1168
sg64
(lp1175
S'session_id_welcome=177.162.249.173-be2b4b3b-2739-4474-88ef-89ea7433cded; session_id_rsoutelino=177.162.249.173-367d9431-619b-4299-9fd0-6014b0e3ef85; session_id_admin=177.61.67.104-93e4a298-187c-4e88-bf96-bf3ce9b288ca'
p1176
asbasbasbag57
(g73
g59
NtRp1177
(dp1178
g62
(dp1179
sg71
g847
sg64
(lp1180
g57
(g78
g59
NtRp1181
(dp1182
g62
(dp1183
g82
g83
ssg71
g1177
sg64
(lp1184
S'http_host'
p1185
asbag57
(g78
g59
NtRp1186
(dp1187
g62
(dp1188
g89
g90
ssg71
g1177
sg64
(lp1189
S':'
asbag57
(g78
g59
NtRp1190
(dp1191
g62
(dp1192
sg71
g1177
sg64
(lp1193
g57
(g58
g59
NtRp1194
(dp1195
g62
(dp1196
g70
I4
ssg71
g1190
sg64
(lp1197
S'www.rsoutelino.com'
p1198
asbasbasbag57
(g73
g59
NtRp1199
(dp1200
g62
(dp1201
sg71
g847
sg64
(lp1202
g57
(g78
g59
NtRp1203
(dp1204
g62
(dp1205
g82
g83
ssg71
g1199
sg64
(lp1206
S'http_user_agent'
p1207
asbag57
(g78
g59
NtRp1208
(dp1209
g62
(dp1210
g89
g90
ssg71
g1199
sg64
(lp1211
S':'
asbag57
(g78
g59
NtRp1212
(dp1213
g62
(dp1214
sg71
g1199
sg64
(lp1215
g57
(g58
g59
NtRp1216
(dp1217
g62
(dp1218
g70
I4
ssg71
g1212
sg64
(lp1219
S'Mozilla/5.0 (Macintosh; Intel Mac OS X 10_6_8) AppleWebKit/537.11 (KHTML, like Gecko) Chrome/23.0.1271.95 Safari/537.11'
p1220
asbasbasbag57
(g73
g59
NtRp1221
(dp1222
g62
(dp1223
sg71
g847
sg64
(lp1224
g57
(g78
g59
NtRp1225
(dp1226
g62
(dp1227
g82
g83
ssg71
g1221
sg64
(lp1228
S'is_jython'
p1229
asbag57
(g78
g59
NtRp1230
(dp1231
g62
(dp1232
g89
g90
ssg71
g1221
sg64
(lp1233
S':'
asbag57
(g78
g59
NtRp1234
(dp1235
g62
(dp1236
sg71
g1221
sg64
(lp1237
g57
(g58
g59
NtRp1238
(dp1239
g62
(dp1240
g70
I4
ssg71
g1234
sg64
(lp1241
g100
asbasbasbag57
(g73
g59
NtRp1242
(dp1243
g62
(dp1244
sg71
g847
sg64
(lp1245
g57
(g78
g59
NtRp1246
(dp1247
g62
(dp1248
g82
g83
ssg71
g1242
sg64
(lp1249
S'is_pypy'
p1250
asbag57
(g78
g59
NtRp1251
(dp1252
g62
(dp1253
g89
g90
ssg71
g1242
sg64
(lp1254
S':'
asbag57
(g78
g59
NtRp1255
(dp1256
g62
(dp1257
sg71
g1242
sg64
(lp1258
g57
(g58
g59
NtRp1259
(dp1260
g62
(dp1261
g70
I4
ssg71
g1255
sg64
(lp1262
g100
asbasbasbag57
(g73
g59
NtRp1263
(dp1264
g62
(dp1265
sg71
g847
sg64
(lp1266
g57
(g78
g59
NtRp1267
(dp1268
g62
(dp1269
g82
g83
ssg71
g1263
sg64
(lp1270
S'local_hosts'
p1271
asbag57
(g78
g59
NtRp1272
(dp1273
g62
(dp1274
g89
g90
ssg71
g1263
sg64
(lp1275
S':'
asbag57
(g78
g59
NtRp1276
(dp1277
g62
(dp1278
sg71
g1263
sg64
(lp1279
g57
(g58
g59
NtRp1280
(dp1281
g62
(dp1282
g70
I4
ssg71
g1276
sg64
(lp1283
g57
(g66
g59
NtRp1284
(dp1285
g62
(dp1286
g70
I3
ssg71
Nsg64
(lp1287
g57
(g73
g59
NtRp1288
(dp1289
g62
(dp1290
sg71
g1284
sg64
(lp1291
g57
(g78
g59
NtRp1292
(dp1293
g62
(dp1294
sg71
g1288
sg64
(lp1295
g57
(g58
g59
NtRp1296
(dp1297
g62
(dp1298
g70
I3
ssg71
g1292
sg64
(lp1299
S'127.0.0.1'
p1300
asbasbasbag57
(g73
g59
NtRp1301
(dp1302
g62
(dp1303
sg71
g1284
sg64
(lp1304
g57
(g78
g59
NtRp1305
(dp1306
g62
(dp1307
sg71
g1301
sg64
(lp1308
g57
(g58
g59
NtRp1309
(dp1310
g62
(dp1311
g70
I3
ssg71
g1305
sg64
(lp1312
S'::ffff:127.0.0.1'
p1313
asbasbasbag57
(g73
g59
NtRp1314
(dp1315
g62
(dp1316
sg71
g1284
sg64
(lp1317
g57
(g78
g59
NtRp1318
(dp1319
g62
(dp1320
sg71
g1314
sg64
(lp1321
g57
(g58
g59
NtRp1322
(dp1323
g62
(dp1324
g70
I3
ssg71
g1318
sg64
(lp1325
S'glenn-liveweb'
p1326
asbasbasbasbasbasbasbag57
(g73
g59
NtRp1327
(dp1328
g62
(dp1329
sg71
g847
sg64
(lp1330
g57
(g78
g59
NtRp1331
(dp1332
g62
(dp1333
g82
g83
ssg71
g1327
sg64
(lp1334
S'path_info'
p1335
asbag57
(g78
g59
NtRp1336
(dp1337
g62
(dp1338
g89
g90
ssg71
g1327
sg64
(lp1339
S':'
asbag57
(g78
g59
NtRp1340
(dp1341
g62
(dp1342
sg71
g1327
sg64
(lp1343
g57
(g58
g59
NtRp1344
(dp1345
g62
(dp1346
g70
I4
ssg71
g1340
sg64
(lp1347
S'/'
asbasbasbag57
(g73
g59
NtRp1348
(dp1349
g62
(dp1350
sg71
g847
sg64
(lp1351
g57
(g78
g59
NtRp1352
(dp1353
g62
(dp1354
g82
g83
ssg71
g1348
sg64
(lp1355
S'query_string'
p1356
asbag57
(g78
g59
NtRp1357
(dp1358
g62
(dp1359
g89
g90
ssg71
g1348
sg64
(lp1360
S':'
asbag57
(g78
g59
NtRp1361
(dp1362
g62
(dp1363
sg71
g1348
sg64
(lp1364
g57
(g58
g59
NtRp1365
(dp1366
g62
(dp1367
g70
I4
ssg71
g1361
sg64
(lp1368
S''
asbasbasbag57
(g73
g59
NtRp1369
(dp1370
g62
(dp1371
sg71
g847
sg64
(lp1372
g57
(g78
g59
NtRp1373
(dp1374
g62
(dp1375
g82
g83
ssg71
g1369
sg64
(lp1376
S'remote_addr'
p1377
asbag57
(g78
g59
NtRp1378
(dp1379
g62
(dp1380
g89
g90
ssg71
g1369
sg64
(lp1381
S':'
asbag57
(g78
g59
NtRp1382
(dp1383
g62
(dp1384
sg71
g1369
sg64
(lp1385
g57
(g58
g59
NtRp1386
(dp1387
g62
(dp1388
g70
I4
ssg71
g1382
sg64
(lp1389
g212
asbasbasbag57
(g73
g59
NtRp1390
(dp1391
g62
(dp1392
sg71
g847
sg64
(lp1393
g57
(g78
g59
NtRp1394
(dp1395
g62
(dp1396
g82
g83
ssg71
g1390
sg64
(lp1397
S'remote_port'
p1398
asbag57
(g78
g59
NtRp1399
(dp1400
g62
(dp1401
g89
g90
ssg71
g1390
sg64
(lp1402
S':'
asbag57
(g78
g59
NtRp1403
(dp1404
g62
(dp1405
sg71
g1390
sg64
(lp1406
g57
(g58
g59
NtRp1407
(dp1408
g62
(dp1409
g70
I4
ssg71
g1403
sg64
(lp1410
S'57663'
p1411
asbasbasbag57
(g73
g59
NtRp1412
(dp1413
g62
(dp1414
sg71
g847
sg64
(lp1415
g57
(g78
g59
NtRp1416
(dp1417
g62
(dp1418
g82
g83
ssg71
g1412
sg64
(lp1419
S'request_method'
p1420
asbag57
(g78
g59
NtRp1421
(dp1422
g62
(dp1423
g89
g90
ssg71
g1412
sg64
(lp1424
S':'
asbag57
(g78
g59
NtRp1425
(dp1426
g62
(dp1427
sg71
g1412
sg64
(lp1428
g57
(g58
g59
NtRp1429
(dp1430
g62
(dp1431
g70
I4
ssg71
g1425
sg64
(lp1432
S'GET'
p1433
asbasbasbag57
(g73
g59
NtRp1434
(dp1435
g62
(dp1436
sg71
g847
sg64
(lp1437
g57
(g78
g59
NtRp1438
(dp1439
g62
(dp1440
g82
g83
ssg71
g1434
sg64
(lp1441
S'request_uri'
p1442
asbag57
(g78
g59
NtRp1443
(dp1444
g62
(dp1445
g89
g90
ssg71
g1434
sg64
(lp1446
S':'
asbag57
(g78
g59
NtRp1447
(dp1448
g62
(dp1449
sg71
g1434
sg64
(lp1450
g57
(g58
g59
NtRp1451
(dp1452
g62
(dp1453
g70
I4
ssg71
g1447
sg64
(lp1454
S'/'
asbasbasbag57
(g73
g59
NtRp1455
(dp1456
g62
(dp1457
sg71
g847
sg64
(lp1458
g57
(g78
g59
NtRp1459
(dp1460
g62
(dp1461
g82
g83
ssg71
g1455
sg64
(lp1462
S'script_name'
p1463
asbag57
(g78
g59
NtRp1464
(dp1465
g62
(dp1466
g89
g90
ssg71
g1455
sg64
(lp1467
S':'
asbag57
(g78
g59
NtRp1468
(dp1469
g62
(dp1470
sg71
g1455
sg64
(lp1471
g57
(g58
g59
NtRp1472
(dp1473
g62
(dp1474
g70
I4
ssg71
g1468
sg64
(lp1475
S''
asbasbasbag57
(g73
g59
NtRp1476
(dp1477
g62
(dp1478
sg71
g847
sg64
(lp1479
g57
(g78
g59
NtRp1480
(dp1481
g62
(dp1482
g82
g83
ssg71
g1476
sg64
(lp1483
S'server_name'
p1484
asbag57
(g78
g59
NtRp1485
(dp1486
g62
(dp1487
g89
g90
ssg71
g1476
sg64
(lp1488
S':'
asbag57
(g78
g59
NtRp1489
(dp1490
g62
(dp1491
sg71
g1476
sg64
(lp1492
g57
(g58
g59
NtRp1493
(dp1494
g62
(dp1495
g70
I4
ssg71
g1489
sg64
(lp1496
S'~(?<domain>.+)$'
p1497
asbasbasbag57
(g73
g59
NtRp1498
(dp1499
g62
(dp1500
sg71
g847
sg64
(lp1501
g57
(g78
g59
NtRp1502
(dp1503
g62
(dp1504
g82
g83
ssg71
g1498
sg64
(lp1505
S'server_port'
p1506
asbag57
(g78
g59
NtRp1507
(dp1508
g62
(dp1509
g89
g90
ssg71
g1498
sg64
(lp1510
S':'
asbag57
(g78
g59
NtRp1511
(dp1512
g62
(dp1513
sg71
g1498
sg64
(lp1514
g57
(g58
g59
NtRp1515
(dp1516
g62
(dp1517
g70
I4
ssg71
g1511
sg64
(lp1518
S'80'
p1519
asbasbasbag57
(g73
g59
NtRp1520
(dp1521
g62
(dp1522
sg71
g847
sg64
(lp1523
g57
(g78
g59
NtRp1524
(dp1525
g62
(dp1526
g82
g83
ssg71
g1520
sg64
(lp1527
S'server_protocol'
p1528
asbag57
(g78
g59
NtRp1529
(dp1530
g62
(dp1531
g89
g90
ssg71
g1520
sg64
(lp1532
S':'
asbag57
(g78
g59
NtRp1533
(dp1534
g62
(dp1535
sg71
g1520
sg64
(lp1536
g57
(g58
g59
NtRp1537
(dp1538
g62
(dp1539
g70
I4
ssg71
g1533
sg64
(lp1540
S'HTTP/1.1'
p1541
asbasbasbag57
(g73
g59
NtRp1542
(dp1543
g62
(dp1544
sg71
g847
sg64
(lp1545
g57
(g78
g59
NtRp1546
(dp1547
g62
(dp1548
g82
g83
ssg71
g1542
sg64
(lp1549
S'uwsgi_node'
p1550
asbag57
(g78
g59
NtRp1551
(dp1552
g62
(dp1553
g89
g90
ssg71
g1542
sg64
(lp1554
S':'
asbag57
(g78
g59
NtRp1555
(dp1556
g62
(dp1557
sg71
g1542
sg64
(lp1558
g57
(g58
g59
NtRp1559
(dp1560
g62
(dp1561
g70
I4
ssg71
g1555
sg64
(lp1562
S'glenn-liveweb'
p1563
asbasbasbag57
(g73
g59
NtRp1564
(dp1565
g62
(dp1566
sg71
g847
sg64
(lp1567
g57
(g78
g59
NtRp1568
(dp1569
g62
(dp1570
g82
g83
ssg71
g1564
sg64
(lp1571
S'uwsgi_version'
p1572
asbag57
(g78
g59
NtRp1573
(dp1574
g62
(dp1575
g89
g90
ssg71
g1564
sg64
(lp1576
S':'
asbag57
(g78
g59
NtRp1577
(dp1578
g62
(dp1579
sg71
g1564
sg64
(lp1580
g57
(g58
g59
NtRp1581
(dp1582
g62
(dp1583
g70
I4
ssg71
g1577
sg64
(lp1584
S'1.4.2'
p1585
asbasbasbag57
(g73
g59
NtRp1586
(dp1587
g62
(dp1588
sg71
g847
sg64
(lp1589
g57
(g78
g59
NtRp1590
(dp1591
g62
(dp1592
g82
g83
ssg71
g1586
sg64
(lp1593
S'web2py_path'
p1594
asbag57
(g78
g59
NtRp1595
(dp1596
g62
(dp1597
g89
g90
ssg71
g1586
sg64
(lp1598
S':'
asbag57
(g78
g59
NtRp1599
(dp1600
g62
(dp1601
sg71
g1586
sg64
(lp1602
g57
(g58
g59
NtRp1603
(dp1604
g62
(dp1605
g70
I4
ssg71
g1599
sg64
(lp1606
g894
asbasbasbag57
(g73
g59
NtRp1607
(dp1608
g62
(dp1609
sg71
g847
sg64
(lp1610
g57
(g78
g59
NtRp1611
(dp1612
g62
(dp1613
g82
g83
ssg71
g1607
sg64
(lp1614
S'web2py_version'
p1615
asbag57
(g78
g59
NtRp1616
(dp1617
g62
(dp1618
g89
g90
ssg71
g1607
sg64
(lp1619
S':'
asbag57
(g78
g59
NtRp1620
(dp1621
g62
(dp1622
sg71
g1607
sg64
(lp1623
g57
(g58
g59
NtRp1624
(dp1625
g62
(dp1626
g70
I4
ssg71
g1620
sg64
(lp1627
g57
(g66
g59
NtRp1628
(dp1629
g62
(dp1630
g70
I3
ssg71
Nsg64
(lp1631
g57
(g73
g59
NtRp1632
(dp1633
g62
(dp1634
sg71
g1628
sg64
(lp1635
g57
(g78
g59
NtRp1636
(dp1637
g62
(dp1638
sg71
g1632
sg64
(lp1639
g57
(g58
g59
NtRp1640
(dp1641
g62
(dp1642
g70
I3
ssg71
g1636
sg64
(lp1643
S'2'
asbasbasbag57
(g73
g59
NtRp1644
(dp1645
g62
(dp1646
sg71
g1628
sg64
(lp1647
g57
(g78
g59
NtRp1648
(dp1649
g62
(dp1650
sg71
g1644
sg64
(lp1651
g57
(g58
g59
NtRp1652
(dp1653
g62
(dp1654
g70
I3
ssg71
g1648
sg64
(lp1655
S'2'
asbasbasbag57
(g73
g59
NtRp1656
(dp1657
g62
(dp1658
sg71
g1628
sg64
(lp1659
g57
(g78
g59
NtRp1660
(dp1661
g62
(dp1662
sg71
g1656
sg64
(lp1663
g57
(g58
g59
NtRp1664
(dp1665
g62
(dp1666
g70
I3
ssg71
g1660
sg64
(lp1667
S'1'
asbasbasbag57
(g73
g59
NtRp1668
(dp1669
g62
(dp1670
sg71
g1628
sg64
(lp1671
g57
(g78
g59
NtRp1672
(dp1673
g62
(dp1674
sg71
g1668
sg64
(lp1675
g57
(g58
g59
NtRp1676
(dp1677
g62
(dp1678
g70
I3
ssg71
g1672
sg64
(lp1679
S'datetime.datetime(2012, 10, 21, 16, 57, 4)'
p1680
asbasbasbag57
(g73
g59
NtRp1681
(dp1682
g62
(dp1683
sg71
g1628
sg64
(lp1684
g57
(g78
g59
NtRp1685
(dp1686
g62
(dp1687
sg71
g1681
sg64
(lp1688
g57
(g58
g59
NtRp1689
(dp1690
g62
(dp1691
g70
I3
ssg71
g1685
sg64
(lp1692
S'stable'
p1693
asbasbasbasbasbasbasbag57
(g73
g59
NtRp1694
(dp1695
g62
(dp1696
sg71
g847
sg64
(lp1697
g57
(g78
g59
NtRp1698
(dp1699
g62
(dp1700
g82
g83
ssg71
g1694
sg64
(lp1701
S'wsgi_errors'
p1702
asbag57
(g78
g59
NtRp1703
(dp1704
g62
(dp1705
g89
g90
ssg71
g1694
sg64
(lp1706
S':'
asbag57
(g78
g59
NtRp1707
(dp1708
g62
(dp1709
sg71
g1694
sg64
(lp1710
g57
(g58
g59
NtRp1711
(dp1712
g62
(dp1713
g70
I4
ssg71
g1707
sg64
(lp1714
S'<uwsgi_file__bin_user_wsgi_wrapper.ErrorLogWrapper object at 0x33d7c10>'
p1715
asbasbasbag57
(g73
g59
NtRp1716
(dp1717
g62
(dp1718
sg71
g847
sg64
(lp1719
g57
(g78
g59
NtRp1720
(dp1721
g62
(dp1722
g82
g83
ssg71
g1716
sg64
(lp1723
S'wsgi_file_wrapper'
p1724
asbag57
(g78
g59
NtRp1725
(dp1726
g62
(dp1727
g89
g90
ssg71
g1716
sg64
(lp1728
S':'
asbag57
(g78
g59
NtRp1729
(dp1730
g62
(dp1731
sg71
g1716
sg64
(lp1732
g57
(g58
g59
NtRp1733
(dp1734
g62
(dp1735
g70
I4
ssg71
g1729
sg64
(lp1736
S'<built-in function uwsgi_sendfile>'
p1737
asbasbasbag57
(g73
g59
NtRp1738
(dp1739
g62
(dp1740
sg71
g847
sg64
(lp1741
g57
(g78
g59
NtRp1742
(dp1743
g62
(dp1744
g82
g83
ssg71
g1738
sg64
(lp1745
S'wsgi_input'
p1746
asbag57
(g78
g59
NtRp1747
(dp1748
g62
(dp1749
g89
g90
ssg71
g1738
sg64
(lp1750
S':'
asbag57
(g78
g59
NtRp1751
(dp1752
g62
(dp1753
sg71
g1738
sg64
(lp1754
g57
(g58
g59
NtRp1755
(dp1756
g62
(dp1757
g70
I4
ssg71
g1751
sg64
(lp1758
S'<uwsgi._Input object at 0x365aef0>'
p1759
asbasbasbag57
(g73
g59
NtRp1760
(dp1761
g62
(dp1762
sg71
g847
sg64
(lp1763
g57
(g78
g59
NtRp1764
(dp1765
g62
(dp1766
g82
g83
ssg71
g1760
sg64
(lp1767
S'wsgi_multiprocess'
p1768
asbag57
(g78
g59
NtRp1769
(dp1770
g62
(dp1771
g89
g90
ssg71
g1760
sg64
(lp1772
S':'
asbag57
(g78
g59
NtRp1773
(dp1774
g62
(dp1775
sg71
g1760
sg64
(lp1776
g57
(g58
g59
NtRp1777
(dp1778
g62
(dp1779
g70
I4
ssg71
g1773
sg64
(lp1780
g100
asbasbasbag57
(g73
g59
NtRp1781
(dp1782
g62
(dp1783
sg71
g847
sg64
(lp1784
g57
(g78
g59
NtRp1785
(dp1786
g62
(dp1787
g82
g83
ssg71
g1781
sg64
(lp1788
S'wsgi_multithread'
p1789
asbag57
(g78
g59
NtRp1790
(dp1791
g62
(dp1792
g89
g90
ssg71
g1781
sg64
(lp1793
S':'
asbag57
(g78
g59
NtRp1794
(dp1795
g62
(dp1796
sg71
g1781
sg64
(lp1797
g57
(g58
g59
NtRp1798
(dp1799
g62
(dp1800
g70
I4
ssg71
g1794
sg64
(lp1801
g100
asbasbasbag57
(g73
g59
NtRp1802
(dp1803
g62
(dp1804
sg71
g847
sg64
(lp1805
g57
(g78
g59
NtRp1806
(dp1807
g62
(dp1808
g82
g83
ssg71
g1802
sg64
(lp1809
S'wsgi_run_once'
p1810
asbag57
(g78
g59
NtRp1811
(dp1812
g62
(dp1813
g89
g90
ssg71
g1802
sg64
(lp1814
S':'
asbag57
(g78
g59
NtRp1815
(dp1816
g62
(dp1817
sg71
g1802
sg64
(lp1818
g57
(g58
g59
NtRp1819
(dp1820
g62
(dp1821
g70
I4
ssg71
g1815
sg64
(lp1822
g100
asbasbasbag57
(g73
g59
NtRp1823
(dp1824
g62
(dp1825
sg71
g847
sg64
(lp1826
g57
(g78
g59
NtRp1827
(dp1828
g62
(dp1829
g82
g83
ssg71
g1823
sg64
(lp1830
S'wsgi_url_scheme'
p1831
asbag57
(g78
g59
NtRp1832
(dp1833
g62
(dp1834
g89
g90
ssg71
g1823
sg64
(lp1835
S':'
asbag57
(g78
g59
NtRp1836
(dp1837
g62
(dp1838
sg71
g1823
sg64
(lp1839
g57
(g58
g59
NtRp1840
(dp1841
g62
(dp1842
g70
I4
ssg71
g1836
sg64
(lp1843
S'http'
p1844
asbasbasbag57
(g73
g59
NtRp1845
(dp1846
g62
(dp1847
sg71
g847
sg64
(lp1848
g57
(g78
g59
NtRp1849
(dp1850
g62
(dp1851
g82
g83
ssg71
g1845
sg64
(lp1852
S'wsgi_version'
p1853
asbag57
(g78
g59
NtRp1854
(dp1855
g62
(dp1856
g89
g90
ssg71
g1845
sg64
(lp1857
S':'
asbag57
(g78
g59
NtRp1858
(dp1859
g62
(dp1860
sg71
g1845
sg64
(lp1861
g57
(g58
g59
NtRp1862
(dp1863
g62
(dp1864
g70
I4
ssg71
g1858
sg64
(lp1865
g57
(g66
g59
NtRp1866
(dp1867
g62
(dp1868
g70
I3
ssg71
Nsg64
(lp1869
g57
(g73
g59
NtRp1870
(dp1871
g62
(dp1872
sg71
g1866
sg64
(lp1873
g57
(g78
g59
NtRp1874
(dp1875
g62
(dp1876
sg71
g1870
sg64
(lp1877
g57
(g58
g59
NtRp1878
(dp1879
g62
(dp1880
g70
I3
ssg71
g1874
sg64
(lp1881
S'1'
asbasbasbag57
(g73
g59
NtRp1882
(dp1883
g62
(dp1884
sg71
g1866
sg64
(lp1885
g57
(g78
g59
NtRp1886
(dp1887
g62
(dp1888
sg71
g1882
sg64
(lp1889
g57
(g58
g59
NtRp1890
(dp1891
g62
(dp1892
g70
I3
ssg71
g1886
sg64
(lp1893
S'0'
asbasbasbasbasbasbasbasbasbasbasbag57
(g73
g59
NtRp1894
(dp1895
g62
(dp1896
sg71
g67
sg64
(lp1897
g57
(g78
g59
NtRp1898
(dp1899
g62
(dp1900
g82
g83
ssg71
g1894
sg64
(lp1901
S'extension'
p1902
asbag57
(g78
g59
NtRp1903
(dp1904
g62
(dp1905
g89
g90
ssg71
g1894
sg64
(lp1906
S':'
asbag57
(g78
g59
NtRp1907
(dp1908
g62
(dp1909
sg71
g1894
sg64
(lp1910
g57
(g58
g59
NtRp1911
(dp1912
g62
(dp1913
g70
I5
ssg71
g1907
sg64
(lp1914
S'html'
p1915
asbasbasbag57
(g73
g59
NtRp1916
(dp1917
g62
(dp1918
sg71
g67
sg64
(lp1919
g57
(g78
g59
NtRp1920
(dp1921
g62
(dp1922
g82
g83
ssg71
g1916
sg64
(lp1923
S'folder'
p1924
asbag57
(g78
g59
NtRp1925
(dp1926
g62
(dp1927
g89
g90
ssg71
g1916
sg64
(lp1928
S':'
asbag57
(g78
g59
NtRp1929
(dp1930
g62
(dp1931
sg71
g1916
sg64
(lp1932
g57
(g58
g59
NtRp1933
(dp1934
g62
(dp1935
g70
I5
ssg71
g1929
sg64
(lp1936
S'/home/rsoutelino/web2py/applications/rsoutelino/'
p1937
asbasbasbag57
(g73
g59
NtRp1938
(dp1939
g62
(dp1940
sg71
g67
sg64
(lp1941
g57
(g78
g59
NtRp1942
(dp1943
g62
(dp1944
g82
g83
ssg71
g1938
sg64
(lp1945
S'function'
p1946
asbag57
(g78
g59
NtRp1947
(dp1948
g62
(dp1949
g89
g90
ssg71
g1938
sg64
(lp1950
S':'
asbag57
(g78
g59
NtRp1951
(dp1952
g62
(dp1953
sg71
g1938
sg64
(lp1954
g57
(g58
g59
NtRp1955
(dp1956
g62
(dp1957
g70
I5
ssg71
g1951
sg64
(lp1958
S'index'
p1959
asbasbasbag57
(g73
g59
NtRp1960
(dp1961
g62
(dp1962
sg71
g67
sg64
(lp1963
g57
(g78
g59
NtRp1964
(dp1965
g62
(dp1966
g82
g83
ssg71
g1960
sg64
(lp1967
S'get_vars'
p1968
asbag57
(g78
g59
NtRp1969
(dp1970
g62
(dp1971
g89
g90
ssg71
g1960
sg64
(lp1972
S':'
asbag57
(g78
g59
NtRp1973
(dp1974
g62
(dp1975
sg71
g1960
sg64
(lp1976
g57
(g58
g59
NtRp1977
(dp1978
g62
(dp1979
g70
I5
ssg71
g1973
sg64
(lp1980
g57
(g66
g59
NtRp1981
(dp1982
g62
(dp1983
g70
I4
ssg71
Nsg64
(lp1984
sbasbasbasbag57
(g73
g59
NtRp1985
(dp1986
g62
(dp1987
sg71
g67
sg64
(lp1988
g57
(g78
g59
NtRp1989
(dp1990
g62
(dp1991
g82
g83
ssg71
g1985
sg64
(lp1992
S'global_settings'
p1993
asbag57
(g78
g59
NtRp1994
(dp1995
g62
(dp1996
g89
g90
ssg71
g1985
sg64
(lp1997
S':'
asbag57
(g78
g59
NtRp1998
(dp1999
g62
(dp2000
sg71
g1985
sg64
(lp2001
g57
(g58
g59
NtRp2002
(dp2003
g62
(dp2004
g70
I5
ssg71
g1998
sg64
(lp2005
g57
(g66
g59
NtRp2006
(dp2007
g62
(dp2008
g70
I4
ssg71
Nsg64
(lp2009
g57
(g73
g59
NtRp2010
(dp2011
g62
(dp2012
sg71
g2006
sg64
(lp2013
g57
(g78
g59
NtRp2014
(dp2015
g62
(dp2016
g82
g83
ssg71
g2010
sg64
(lp2017
g859
asbag57
(g78
g59
NtRp2018
(dp2019
g62
(dp2020
g89
g90
ssg71
g2010
sg64
(lp2021
S':'
asbag57
(g78
g59
NtRp2022
(dp2023
g62
(dp2024
sg71
g2010
sg64
(lp2025
g57
(g58
g59
NtRp2026
(dp2027
g62
(dp2028
g70
I4
ssg71
g2022
sg64
(lp2029
S"set(['/home/rsoutelino/web2py/applications/rsoutelino/', '/home/rsoutelino/web2py/applications/admin/'])"
p2030
asbasbasbag57
(g73
g59
NtRp2031
(dp2032
g62
(dp2033
sg71
g2006
sg64
(lp2034
g57
(g78
g59
NtRp2035
(dp2036
g62
(dp2037
g82
g83
ssg71
g2031
sg64
(lp2038
g881
asbag57
(g78
g59
NtRp2039
(dp2040
g62
(dp2041
g89
g90
ssg71
g2031
sg64
(lp2042
S':'
asbag57
(g78
g59
NtRp2043
(dp2044
g62
(dp2045
sg71
g2031
sg64
(lp2046
g57
(g58
g59
NtRp2047
(dp2048
g62
(dp2049
g70
I4
ssg71
g2043
sg64
(lp2050
g894
asbasbasbag57
(g73
g59
NtRp2051
(dp2052
g62
(dp2053
sg71
g2006
sg64
(lp2054
g57
(g78
g59
NtRp2055
(dp2056
g62
(dp2057
g82
g83
ssg71
g2051
sg64
(lp2058
g945
asbag57
(g78
g59
NtRp2059
(dp2060
g62
(dp2061
g89
g90
ssg71
g2051
sg64
(lp2062
S':'
asbag57
(g78
g59
NtRp2063
(dp2064
g62
(dp2065
sg71
g2051
sg64
(lp2066
g57
(g58
g59
NtRp2067
(dp2068
g62
(dp2069
g70
I4
ssg71
g2063
sg64
(lp2070
S'set([])'
p2071
asbasbasbag57
(g73
g59
NtRp2072
(dp2073
g62
(dp2074
sg71
g2006
sg64
(lp2075
g57
(g78
g59
NtRp2076
(dp2077
g62
(dp2078
g82
g83
ssg71
g2072
sg64
(lp2079
g967
asbag57
(g78
g59
NtRp2080
(dp2081
g62
(dp2082
g89
g90
ssg71
g2072
sg64
(lp2083
S':'
asbag57
(g78
g59
NtRp2084
(dp2085
g62
(dp2086
sg71
g2072
sg64
(lp2087
g57
(g58
g59
NtRp2088
(dp2089
g62
(dp2090
g70
I4
ssg71
g2084
sg64
(lp2091
g100
asbasbasbag57
(g73
g59
NtRp2092
(dp2093
g62
(dp2094
sg71
g2006
sg64
(lp2095
g57
(g78
g59
NtRp2096
(dp2097
g62
(dp2098
g82
g83
ssg71
g2092
sg64
(lp2099
g1010
asbag57
(g78
g59
NtRp2100
(dp2101
g62
(dp2102
g89
g90
ssg71
g2092
sg64
(lp2103
S':'
asbag57
(g78
g59
NtRp2104
(dp2105
g62
(dp2106
sg71
g2092
sg64
(lp2107
g57
(g58
g59
NtRp2108
(dp2109
g62
(dp2110
g70
I4
ssg71
g2104
sg64
(lp2111
g894
asbasbasbag57
(g73
g59
NtRp2112
(dp2113
g62
(dp2114
sg71
g2006
sg64
(lp2115
g57
(g78
g59
NtRp2116
(dp2117
g62
(dp2118
g82
g83
ssg71
g2112
sg64
(lp2119
g1229
asbag57
(g78
g59
NtRp2120
(dp2121
g62
(dp2122
g89
g90
ssg71
g2112
sg64
(lp2123
S':'
asbag57
(g78
g59
NtRp2124
(dp2125
g62
(dp2126
sg71
g2112
sg64
(lp2127
g57
(g58
g59
NtRp2128
(dp2129
g62
(dp2130
g70
I4
ssg71
g2124
sg64
(lp2131
g100
asbasbasbag57
(g73
g59
NtRp2132
(dp2133
g62
(dp2134
sg71
g2006
sg64
(lp2135
g57
(g78
g59
NtRp2136
(dp2137
g62
(dp2138
g82
g83
ssg71
g2132
sg64
(lp2139
g1250
asbag57
(g78
g59
NtRp2140
(dp2141
g62
(dp2142
g89
g90
ssg71
g2132
sg64
(lp2143
S':'
asbag57
(g78
g59
NtRp2144
(dp2145
g62
(dp2146
sg71
g2132
sg64
(lp2147
g57
(g58
g59
NtRp2148
(dp2149
g62
(dp2150
g70
I4
ssg71
g2144
sg64
(lp2151
g100
asbasbasbag57
(g73
g59
NtRp2152
(dp2153
g62
(dp2154
sg71
g2006
sg64
(lp2155
g57
(g78
g59
NtRp2156
(dp2157
g62
(dp2158
g82
g83
ssg71
g2152
sg64
(lp2159
g1271
asbag57
(g78
g59
NtRp2160
(dp2161
g62
(dp2162
g89
g90
ssg71
g2152
sg64
(lp2163
S':'
asbag57
(g78
g59
NtRp2164
(dp2165
g62
(dp2166
sg71
g2152
sg64
(lp2167
g57
(g58
g59
NtRp2168
(dp2169
g62
(dp2170
g70
I4
ssg71
g2164
sg64
(lp2171
g57
(g66
g59
NtRp2172
(dp2173
g62
(dp2174
g70
I3
ssg71
Nsg64
(lp2175
g57
(g73
g59
NtRp2176
(dp2177
g62
(dp2178
sg71
g2172
sg64
(lp2179
g57
(g78
g59
NtRp2180
(dp2181
g62
(dp2182
sg71
g2176
sg64
(lp2183
g57
(g58
g59
NtRp2184
(dp2185
g62
(dp2186
g70
I3
ssg71
g2180
sg64
(lp2187
g1300
asbasbasbag57
(g73
g59
NtRp2188
(dp2189
g62
(dp2190
sg71
g2172
sg64
(lp2191
g57
(g78
g59
NtRp2192
(dp2193
g62
(dp2194
sg71
g2188
sg64
(lp2195
g57
(g58
g59
NtRp2196
(dp2197
g62
(dp2198
g70
I3
ssg71
g2192
sg64
(lp2199
g1313
asbasbasbag57
(g73
g59
NtRp2200
(dp2201
g62
(dp2202
sg71
g2172
sg64
(lp2203
g57
(g78
g59
NtRp2204
(dp2205
g62
(dp2206
sg71
g2200
sg64
(lp2207
g57
(g58
g59
NtRp2208
(dp2209
g62
(dp2210
g70
I3
ssg71
g2204
sg64
(lp2211
g1326
asbasbasbasbasbasbasbag57
(g73
g59
NtRp2212
(dp2213
g62
(dp2214
sg71
g2006
sg64
(lp2215
g57
(g78
g59
NtRp2216
(dp2217
g62
(dp2218
g82
g83
ssg71
g2212
sg64
(lp2219
g1615
asbag57
(g78
g59
NtRp2220
(dp2221
g62
(dp2222
g89
g90
ssg71
g2212
sg64
(lp2223
S':'
asbag57
(g78
g59
NtRp2224
(dp2225
g62
(dp2226
sg71
g2212
sg64
(lp2227
g57
(g58
g59
NtRp2228
(dp2229
g62
(dp2230
g70
I4
ssg71
g2224
sg64
(lp2231
g57
(g66
g59
NtRp2232
(dp2233
g62
(dp2234
g70
I3
ssg71
Nsg64
(lp2235
g57
(g73
g59
NtRp2236
(dp2237
g62
(dp2238
sg71
g2232
sg64
(lp2239
g57
(g78
g59
NtRp2240
(dp2241
g62
(dp2242
sg71
g2236
sg64
(lp2243
g57
(g58
g59
NtRp2244
(dp2245
g62
(dp2246
g70
I3
ssg71
g2240
sg64
(lp2247
S'2'
asbasbasbag57
(g73
g59
NtRp2248
(dp2249
g62
(dp2250
sg71
g2232
sg64
(lp2251
g57
(g78
g59
NtRp2252
(dp2253
g62
(dp2254
sg71
g2248
sg64
(lp2255
g57
(g58
g59
NtRp2256
(dp2257
g62
(dp2258
g70
I3
ssg71
g2252
sg64
(lp2259
S'2'
asbasbasbag57
(g73
g59
NtRp2260
(dp2261
g62
(dp2262
sg71
g2232
sg64
(lp2263
g57
(g78
g59
NtRp2264
(dp2265
g62
(dp2266
sg71
g2260
sg64
(lp2267
g57
(g58
g59
NtRp2268
(dp2269
g62
(dp2270
g70
I3
ssg71
g2264
sg64
(lp2271
S'1'
asbasbasbag57
(g73
g59
NtRp2272
(dp2273
g62
(dp2274
sg71
g2232
sg64
(lp2275
g57
(g78
g59
NtRp2276
(dp2277
g62
(dp2278
sg71
g2272
sg64
(lp2279
g57
(g58
g59
NtRp2280
(dp2281
g62
(dp2282
g70
I3
ssg71
g2276
sg64
(lp2283
S'datetime.datetime(2012, 10, 21, 16, 57, 4)'
p2284
asbasbasbag57
(g73
g59
NtRp2285
(dp2286
g62
(dp2287
sg71
g2232
sg64
(lp2288
g57
(g78
g59
NtRp2289
(dp2290
g62
(dp2291
sg71
g2285
sg64
(lp2292
g57
(g58
g59
NtRp2293
(dp2294
g62
(dp2295
g70
I3
ssg71
g2289
sg64
(lp2296
g1693
asbasbasbasbasbasbasbasbasbasbasbag57
(g73
g59
NtRp2297
(dp2298
g62
(dp2299
sg71
g67
sg64
(lp2300
g57
(g78
g59
NtRp2301
(dp2302
g62
(dp2303
g82
g83
ssg71
g2297
sg64
(lp2304
S'is_https'
p2305
asbag57
(g78
g59
NtRp2306
(dp2307
g62
(dp2308
g89
g90
ssg71
g2297
sg64
(lp2309
S':'
asbag57
(g78
g59
NtRp2310
(dp2311
g62
(dp2312
sg71
g2297
sg64
(lp2313
g57
(g58
g59
NtRp2314
(dp2315
g62
(dp2316
g70
I5
ssg71
g2310
sg64
(lp2317
g100
asbasbasbag57
(g73
g59
NtRp2318
(dp2319
g62
(dp2320
sg71
g67
sg64
(lp2321
g57
(g78
g59
NtRp2322
(dp2323
g62
(dp2324
g82
g83
ssg71
g2318
sg64
(lp2325
S'is_local'
p2326
asbag57
(g78
g59
NtRp2327
(dp2328
g62
(dp2329
g89
g90
ssg71
g2318
sg64
(lp2330
S':'
asbag57
(g78
g59
NtRp2331
(dp2332
g62
(dp2333
sg71
g2318
sg64
(lp2334
g57
(g58
g59
NtRp2335
(dp2336
g62
(dp2337
g70
I5
ssg71
g2331
sg64
(lp2338
g100
asbasbasbag57
(g73
g59
NtRp2339
(dp2340
g62
(dp2341
sg71
g67
sg64
(lp2342
g57
(g78
g59
NtRp2343
(dp2344
g62
(dp2345
g82
g83
ssg71
g2339
sg64
(lp2346
S'is_restful'
p2347
asbag57
(g78
g59
NtRp2348
(dp2349
g62
(dp2350
g89
g90
ssg71
g2339
sg64
(lp2351
S':'
asbag57
(g78
g59
NtRp2352
(dp2353
g62
(dp2354
sg71
g2339
sg64
(lp2355
g57
(g58
g59
NtRp2356
(dp2357
g62
(dp2358
g70
I5
ssg71
g2352
sg64
(lp2359
g100
asbasbasbag57
(g73
g59
NtRp2360
(dp2361
g62
(dp2362
sg71
g67
sg64
(lp2363
g57
(g78
g59
NtRp2364
(dp2365
g62
(dp2366
g82
g83
ssg71
g2360
sg64
(lp2367
S'now'
p2368
asbag57
(g78
g59
NtRp2369
(dp2370
g62
(dp2371
g89
g90
ssg71
g2360
sg64
(lp2372
S':'
asbag57
(g78
g59
NtRp2373
(dp2374
g62
(dp2375
sg71
g2360
sg64
(lp2376
g57
(g58
g59
NtRp2377
(dp2378
g62
(dp2379
g70
I5
ssg71
g2373
sg64
(lp2380
S'datetime.datetime(2012, 12, 18, 16, 20, 29, 152711)'
p2381
asbasbasbag57
(g73
g59
NtRp2382
(dp2383
g62
(dp2384
sg71
g67
sg64
(lp2385
g57
(g78
g59
NtRp2386
(dp2387
g62
(dp2388
g82
g83
ssg71
g2382
sg64
(lp2389
S'post_vars'
p2390
asbag57
(g78
g59
NtRp2391
(dp2392
g62
(dp2393
g89
g90
ssg71
g2382
sg64
(lp2394
S':'
asbag57
(g78
g59
NtRp2395
(dp2396
g62
(dp2397
sg71
g2382
sg64
(lp2398
g57
(g58
g59
NtRp2399
(dp2400
g62
(dp2401
g70
I5
ssg71
g2395
sg64
(lp2402
g57
(g66
g59
NtRp2403
(dp2404
g62
(dp2405
g70
I4
ssg71
Nsg64
(lp2406
sbasbasbasbag57
(g73
g59
NtRp2407
(dp2408
g62
(dp2409
sg71
g67
sg64
(lp2410
g57
(g78
g59
NtRp2411
(dp2412
g62
(dp2413
g82
g83
ssg71
g2407
sg64
(lp2414
S'raw_args'
p2415
asbag57
(g78
g59
NtRp2416
(dp2417
g62
(dp2418
g89
g90
ssg71
g2407
sg64
(lp2419
S':'
asbag57
(g78
g59
NtRp2420
(dp2421
g62
(dp2422
sg71
g2407
sg64
(lp2423
g57
(g58
g59
NtRp2424
(dp2425
g62
(dp2426
g70
I5
ssg71
g2420
sg64
(lp2427
S'None'
p2428
asbasbasbag57
(g73
g59
NtRp2429
(dp2430
g62
(dp2431
sg71
g67
sg64
(lp2432
g57
(g78
g59
NtRp2433
(dp2434
g62
(dp2435
g82
g83
ssg71
g2429
sg64
(lp2436
S'raw_extension'
p2437
asbag57
(g78
g59
NtRp2438
(dp2439
g62
(dp2440
g89
g90
ssg71
g2429
sg64
(lp2441
S':'
asbag57
(g78
g59
NtRp2442
(dp2443
g62
(dp2444
sg71
g2429
sg64
(lp2445
g57
(g58
g59
NtRp2446
(dp2447
g62
(dp2448
g70
I5
ssg71
g2442
sg64
(lp2449
S'None'
p2450
asbasbasbag57
(g73
g59
NtRp2451
(dp2452
g62
(dp2453
sg71
g67
sg64
(lp2454
g57
(g78
g59
NtRp2455
(dp2456
g62
(dp2457
g82
g83
ssg71
g2451
sg64
(lp2458
S'url'
p2459
asbag57
(g78
g59
NtRp2460
(dp2461
g62
(dp2462
g89
g90
ssg71
g2451
sg64
(lp2463
S':'
asbag57
(g78
g59
NtRp2464
(dp2465
g62
(dp2466
sg71
g2451
sg64
(lp2467
g57
(g58
g59
NtRp2468
(dp2469
g62
(dp2470
g70
I5
ssg71
g2464
sg64
(lp2471
S'/'
asbasbasbag57
(g73
g59
NtRp2472
(dp2473
g62
(dp2474
sg71
g67
sg64
(lp2475
g57
(g78
g59
NtRp2476
(dp2477
g62
(dp2478
g82
g83
ssg71
g2472
sg64
(lp2479
S'utcnow'
p2480
asbag57
(g78
g59
NtRp2481
(dp2482
g62
(dp2483
g89
g90
ssg71
g2472
sg64
(lp2484
S':'
asbag57
(g78
g59
NtRp2485
(dp2486
g62
(dp2487
sg71
g2472
sg64
(lp2488
g57
(g58
g59
NtRp2489
(dp2490
g62
(dp2491
g70
I5
ssg71
g2485
sg64
(lp2492
S'datetime.datetime(2012, 12, 18, 16, 20, 29, 152742)'
p2493
asbasbasbag57
(g73
g59
NtRp2494
(dp2495
g62
(dp2496
sg71
g67
sg64
(lp2497
g57
(g78
g59
NtRp2498
(dp2499
g62
(dp2500
g82
g83
ssg71
g2494
sg64
(lp2501
S'uuid'
p2502
asbag57
(g78
g59
NtRp2503
(dp2504
g62
(dp2505
g89
g90
ssg71
g2494
sg64
(lp2506
S':'
asbag57
(g78
g59
NtRp2507
(dp2508
g62
(dp2509
sg71
g2494
sg64
(lp2510
g57
(g58
g59
NtRp2511
(dp2512
g62
(dp2513
g70
I5
ssg71
g2507
sg64
(lp2514
S'rsoutelino/177.61.67.104.2012-12-18.16-20-29.66f6cd27-1109-4bb0-a81e-045280a13785'
p2515
asbasbasbag57
(g73
g59
NtRp2516
(dp2517
g62
(dp2518
sg71
g67
sg64
(lp2519
g57
(g78
g59
NtRp2520
(dp2521
g62
(dp2522
g82
g83
ssg71
g2516
sg64
(lp2523
S'vars'
p2524
asbag57
(g78
g59
NtRp2525
(dp2526
g62
(dp2527
g89
g90
ssg71
g2516
sg64
(lp2528
S':'
asbag57
(g78
g59
NtRp2529
(dp2530
g62
(dp2531
sg71
g2516
sg64
(lp2532
g57
(g58
g59
NtRp2533
(dp2534
g62
(dp2535
g70
I5
ssg71
g2529
sg64
(lp2536
g57
(g66
g59
NtRp2537
(dp2538
g62
(dp2539
g70
I4
ssg71
Nsg64
(lp2540
sbasbasbasbag57
(g73
g59
NtRp2541
(dp2542
g62
(dp2543
sg71
g67
sg64
(lp2544
g57
(g78
g59
NtRp2545
(dp2546
g62
(dp2547
g82
g83
ssg71
g2541
sg64
(lp2548
S'wsgi'
p2549
asbag57
(g78
g59
NtRp2550
(dp2551
g62
(dp2552
g89
g90
ssg71
g2541
sg64
(lp2553
S':'
asbag57
(g78
g59
NtRp2554
(dp2555
g62
(dp2556
sg71
g2541
sg64
(lp2557
g57
(g58
g59
NtRp2558
(dp2559
g62
(dp2560
g70
I5
ssg71
g2554
sg64
(lp2561
g57
(g66
g59
NtRp2562
(dp2563
g62
(dp2564
g70
I4
ssg71
Nsg64
(lp2565
g57
(g73
g59
NtRp2566
(dp2567
g62
(dp2568
sg71
g2562
sg64
(lp2569
g57
(g78
g59
NtRp2570
(dp2571
g62
(dp2572
g82
g83
ssg71
g2566
sg64
(lp2573
S'environ'
p2574
asbag57
(g78
g59
NtRp2575
(dp2576
g62
(dp2577
g89
g90
ssg71
g2566
sg64
(lp2578
S':'
asbag57
(g78
g59
NtRp2579
(dp2580
g62
(dp2581
sg71
g2566
sg64
(lp2582
g57
(g58
g59
NtRp2583
(dp2584
g62
(dp2585
g70
I4
ssg71
g2579
sg64
(lp2586
g57
(g66
g59
NtRp2587
(dp2588
g62
(dp2589
g70
I3
ssg71
Nsg64
(lp2590
g57
(g73
g59
NtRp2591
(dp2592
g62
(dp2593
sg71
g2587
sg64
(lp2594
g57
(g78
g59
NtRp2595
(dp2596
g62
(dp2597
g82
g83
ssg71
g2591
sg64
(lp2598
S'CONTENT_LENGTH'
p2599
asbag57
(g78
g59
NtRp2600
(dp2601
g62
(dp2602
g89
g90
ssg71
g2591
sg64
(lp2603
S':'
asbag57
(g78
g59
NtRp2604
(dp2605
g62
(dp2606
sg71
g2591
sg64
(lp2607
g57
(g58
g59
NtRp2608
(dp2609
g62
(dp2610
g70
I3
ssg71
g2604
sg64
(lp2611
S''
asbasbasbag57
(g73
g59
NtRp2612
(dp2613
g62
(dp2614
sg71
g2587
sg64
(lp2615
g57
(g78
g59
NtRp2616
(dp2617
g62
(dp2618
g82
g83
ssg71
g2612
sg64
(lp2619
S'CONTENT_TYPE'
p2620
asbag57
(g78
g59
NtRp2621
(dp2622
g62
(dp2623
g89
g90
ssg71
g2612
sg64
(lp2624
S':'
asbag57
(g78
g59
NtRp2625
(dp2626
g62
(dp2627
sg71
g2612
sg64
(lp2628
g57
(g58
g59
NtRp2629
(dp2630
g62
(dp2631
g70
I3
ssg71
g2625
sg64
(lp2632
S''
asbasbasbag57
(g73
g59
NtRp2633
(dp2634
g62
(dp2635
sg71
g2587
sg64
(lp2636
g57
(g78
g59
NtRp2637
(dp2638
g62
(dp2639
g82
g83
ssg71
g2633
sg64
(lp2640
S'DOCUMENT_ROOT'
p2641
asbag57
(g78
g59
NtRp2642
(dp2643
g62
(dp2644
g89
g90
ssg71
g2633
sg64
(lp2645
S':'
asbag57
(g78
g59
NtRp2646
(dp2647
g62
(dp2648
sg71
g2633
sg64
(lp2649
g57
(g58
g59
NtRp2650
(dp2651
g62
(dp2652
g70
I3
ssg71
g2646
sg64
(lp2653
g1001
asbasbasbag57
(g73
g59
NtRp2654
(dp2655
g62
(dp2656
sg71
g2587
sg64
(lp2657
g57
(g78
g59
NtRp2658
(dp2659
g62
(dp2660
g82
g83
ssg71
g2654
sg64
(lp2661
S'HTTP_ACCEPT'
p2662
asbag57
(g78
g59
NtRp2663
(dp2664
g62
(dp2665
g89
g90
ssg71
g2654
sg64
(lp2666
S':'
asbag57
(g78
g59
NtRp2667
(dp2668
g62
(dp2669
sg71
g2654
sg64
(lp2670
g57
(g58
g59
NtRp2671
(dp2672
g62
(dp2673
g70
I3
ssg71
g2667
sg64
(lp2674
g1044
asbasbasbag57
(g73
g59
NtRp2675
(dp2676
g62
(dp2677
sg71
g2587
sg64
(lp2678
g57
(g78
g59
NtRp2679
(dp2680
g62
(dp2681
g82
g83
ssg71
g2675
sg64
(lp2682
S'HTTP_ACCEPT_CHARSET'
p2683
asbag57
(g78
g59
NtRp2684
(dp2685
g62
(dp2686
g89
g90
ssg71
g2675
sg64
(lp2687
S':'
asbag57
(g78
g59
NtRp2688
(dp2689
g62
(dp2690
sg71
g2675
sg64
(lp2691
g57
(g58
g59
NtRp2692
(dp2693
g62
(dp2694
g70
I3
ssg71
g2688
sg64
(lp2695
g1066
asbasbasbag57
(g73
g59
NtRp2696
(dp2697
g62
(dp2698
sg71
g2587
sg64
(lp2699
g57
(g78
g59
NtRp2700
(dp2701
g62
(dp2702
g82
g83
ssg71
g2696
sg64
(lp2703
S'HTTP_ACCEPT_ENCODING'
p2704
asbag57
(g78
g59
NtRp2705
(dp2706
g62
(dp2707
g89
g90
ssg71
g2696
sg64
(lp2708
S':'
asbag57
(g78
g59
NtRp2709
(dp2710
g62
(dp2711
sg71
g2696
sg64
(lp2712
g57
(g58
g59
NtRp2713
(dp2714
g62
(dp2715
g70
I3
ssg71
g2709
sg64
(lp2716
g1088
asbasbasbag57
(g73
g59
NtRp2717
(dp2718
g62
(dp2719
sg71
g2587
sg64
(lp2720
g57
(g78
g59
NtRp2721
(dp2722
g62
(dp2723
g82
g83
ssg71
g2717
sg64
(lp2724
S'HTTP_ACCEPT_LANGUAGE'
p2725
asbag57
(g78
g59
NtRp2726
(dp2727
g62
(dp2728
g89
g90
ssg71
g2717
sg64
(lp2729
S':'
asbag57
(g78
g59
NtRp2730
(dp2731
g62
(dp2732
sg71
g2717
sg64
(lp2733
g57
(g58
g59
NtRp2734
(dp2735
g62
(dp2736
g70
I3
ssg71
g2730
sg64
(lp2737
g1110
asbasbasbag57
(g73
g59
NtRp2738
(dp2739
g62
(dp2740
sg71
g2587
sg64
(lp2741
g57
(g78
g59
NtRp2742
(dp2743
g62
(dp2744
g82
g83
ssg71
g2738
sg64
(lp2745
S'HTTP_CACHE_CONTROL'
p2746
asbag57
(g78
g59
NtRp2747
(dp2748
g62
(dp2749
g89
g90
ssg71
g2738
sg64
(lp2750
S':'
asbag57
(g78
g59
NtRp2751
(dp2752
g62
(dp2753
sg71
g2738
sg64
(lp2754
g57
(g58
g59
NtRp2755
(dp2756
g62
(dp2757
g70
I3
ssg71
g2751
sg64
(lp2758
g1132
asbasbasbag57
(g73
g59
NtRp2759
(dp2760
g62
(dp2761
sg71
g2587
sg64
(lp2762
g57
(g78
g59
NtRp2763
(dp2764
g62
(dp2765
g82
g83
ssg71
g2759
sg64
(lp2766
S'HTTP_CONNECTION'
p2767
asbag57
(g78
g59
NtRp2768
(dp2769
g62
(dp2770
g89
g90
ssg71
g2759
sg64
(lp2771
S':'
asbag57
(g78
g59
NtRp2772
(dp2773
g62
(dp2774
sg71
g2759
sg64
(lp2775
g57
(g58
g59
NtRp2776
(dp2777
g62
(dp2778
g70
I3
ssg71
g2772
sg64
(lp2779
g1154
asbasbasbag57
(g73
g59
NtRp2780
(dp2781
g62
(dp2782
sg71
g2587
sg64
(lp2783
g57
(g78
g59
NtRp2784
(dp2785
g62
(dp2786
g82
g83
ssg71
g2780
sg64
(lp2787
S'HTTP_COOKIE'
p2788
asbag57
(g78
g59
NtRp2789
(dp2790
g62
(dp2791
g89
g90
ssg71
g2780
sg64
(lp2792
S':'
asbag57
(g78
g59
NtRp2793
(dp2794
g62
(dp2795
sg71
g2780
sg64
(lp2796
g57
(g58
g59
NtRp2797
(dp2798
g62
(dp2799
g70
I3
ssg71
g2793
sg64
(lp2800
g1176
asbasbasbag57
(g73
g59
NtRp2801
(dp2802
g62
(dp2803
sg71
g2587
sg64
(lp2804
g57
(g78
g59
NtRp2805
(dp2806
g62
(dp2807
g82
g83
ssg71
g2801
sg64
(lp2808
S'HTTP_HOST'
p2809
asbag57
(g78
g59
NtRp2810
(dp2811
g62
(dp2812
g89
g90
ssg71
g2801
sg64
(lp2813
S':'
asbag57
(g78
g59
NtRp2814
(dp2815
g62
(dp2816
sg71
g2801
sg64
(lp2817
g57
(g58
g59
NtRp2818
(dp2819
g62
(dp2820
g70
I3
ssg71
g2814
sg64
(lp2821
g1198
asbasbasbag57
(g73
g59
NtRp2822
(dp2823
g62
(dp2824
sg71
g2587
sg64
(lp2825
g57
(g78
g59
NtRp2826
(dp2827
g62
(dp2828
g82
g83
ssg71
g2822
sg64
(lp2829
S'HTTP_USER_AGENT'
p2830
asbag57
(g78
g59
NtRp2831
(dp2832
g62
(dp2833
g89
g90
ssg71
g2822
sg64
(lp2834
S':'
asbag57
(g78
g59
NtRp2835
(dp2836
g62
(dp2837
sg71
g2822
sg64
(lp2838
g57
(g58
g59
NtRp2839
(dp2840
g62
(dp2841
g70
I3
ssg71
g2835
sg64
(lp2842
g1220
asbasbasbag57
(g73
g59
NtRp2843
(dp2844
g62
(dp2845
sg71
g2587
sg64
(lp2846
g57
(g78
g59
NtRp2847
(dp2848
g62
(dp2849
g82
g83
ssg71
g2843
sg64
(lp2850
S'PATH_INFO'
p2851
asbag57
(g78
g59
NtRp2852
(dp2853
g62
(dp2854
g89
g90
ssg71
g2843
sg64
(lp2855
S':'
asbag57
(g78
g59
NtRp2856
(dp2857
g62
(dp2858
sg71
g2843
sg64
(lp2859
g57
(g58
g59
NtRp2860
(dp2861
g62
(dp2862
g70
I3
ssg71
g2856
sg64
(lp2863
S'/'
asbasbasbag57
(g73
g59
NtRp2864
(dp2865
g62
(dp2866
sg71
g2587
sg64
(lp2867
g57
(g78
g59
NtRp2868
(dp2869
g62
(dp2870
g82
g83
ssg71
g2864
sg64
(lp2871
S'QUERY_STRING'
p2872
asbag57
(g78
g59
NtRp2873
(dp2874
g62
(dp2875
g89
g90
ssg71
g2864
sg64
(lp2876
S':'
asbag57
(g78
g59
NtRp2877
(dp2878
g62
(dp2879
sg71
g2864
sg64
(lp2880
g57
(g58
g59
NtRp2881
(dp2882
g62
(dp2883
g70
I3
ssg71
g2877
sg64
(lp2884
S''
asbasbasbag57
(g73
g59
NtRp2885
(dp2886
g62
(dp2887
sg71
g2587
sg64
(lp2888
g57
(g78
g59
NtRp2889
(dp2890
g62
(dp2891
g82
g83
ssg71
g2885
sg64
(lp2892
S'REMOTE_ADDR'
p2893
asbag57
(g78
g59
NtRp2894
(dp2895
g62
(dp2896
g89
g90
ssg71
g2885
sg64
(lp2897
S':'
asbag57
(g78
g59
NtRp2898
(dp2899
g62
(dp2900
sg71
g2885
sg64
(lp2901
g57
(g58
g59
NtRp2902
(dp2903
g62
(dp2904
g70
I3
ssg71
g2898
sg64
(lp2905
g212
asbasbasbag57
(g73
g59
NtRp2906
(dp2907
g62
(dp2908
sg71
g2587
sg64
(lp2909
g57
(g78
g59
NtRp2910
(dp2911
g62
(dp2912
g82
g83
ssg71
g2906
sg64
(lp2913
S'REMOTE_PORT'
p2914
asbag57
(g78
g59
NtRp2915
(dp2916
g62
(dp2917
g89
g90
ssg71
g2906
sg64
(lp2918
S':'
asbag57
(g78
g59
NtRp2919
(dp2920
g62
(dp2921
sg71
g2906
sg64
(lp2922
g57
(g58
g59
NtRp2923
(dp2924
g62
(dp2925
g70
I3
ssg71
g2919
sg64
(lp2926
g1411
asbasbasbag57
(g73
g59
NtRp2927
(dp2928
g62
(dp2929
sg71
g2587
sg64
(lp2930
g57
(g78
g59
NtRp2931
(dp2932
g62
(dp2933
g82
g83
ssg71
g2927
sg64
(lp2934
S'REQUEST_METHOD'
p2935
asbag57
(g78
g59
NtRp2936
(dp2937
g62
(dp2938
g89
g90
ssg71
g2927
sg64
(lp2939
S':'
asbag57
(g78
g59
NtRp2940
(dp2941
g62
(dp2942
sg71
g2927
sg64
(lp2943
g57
(g58
g59
NtRp2944
(dp2945
g62
(dp2946
g70
I3
ssg71
g2940
sg64
(lp2947
g1433
asbasbasbag57
(g73
g59
NtRp2948
(dp2949
g62
(dp2950
sg71
g2587
sg64
(lp2951
g57
(g78
g59
NtRp2952
(dp2953
g62
(dp2954
g82
g83
ssg71
g2948
sg64
(lp2955
S'REQUEST_URI'
p2956
asbag57
(g78
g59
NtRp2957
(dp2958
g62
(dp2959
g89
g90
ssg71
g2948
sg64
(lp2960
S':'
asbag57
(g78
g59
NtRp2961
(dp2962
g62
(dp2963
sg71
g2948
sg64
(lp2964
g57
(g58
g59
NtRp2965
(dp2966
g62
(dp2967
g70
I3
ssg71
g2961
sg64
(lp2968
S'/'
asbasbasbag57
(g73
g59
NtRp2969
(dp2970
g62
(dp2971
sg71
g2587
sg64
(lp2972
g57
(g78
g59
NtRp2973
(dp2974
g62
(dp2975
g82
g83
ssg71
g2969
sg64
(lp2976
S'SCRIPT_NAME'
p2977
asbag57
(g78
g59
NtRp2978
(dp2979
g62
(dp2980
g89
g90
ssg71
g2969
sg64
(lp2981
S':'
asbag57
(g78
g59
NtRp2982
(dp2983
g62
(dp2984
sg71
g2969
sg64
(lp2985
g57
(g58
g59
NtRp2986
(dp2987
g62
(dp2988
g70
I3
ssg71
g2982
sg64
(lp2989
S''
asbasbasbag57
(g73
g59
NtRp2990
(dp2991
g62
(dp2992
sg71
g2587
sg64
(lp2993
g57
(g78
g59
NtRp2994
(dp2995
g62
(dp2996
g82
g83
ssg71
g2990
sg64
(lp2997
S'SERVER_NAME'
p2998
asbag57
(g78
g59
NtRp2999
(dp3000
g62
(dp3001
g89
g90
ssg71
g2990
sg64
(lp3002
S':'
asbag57
(g78
g59
NtRp3003
(dp3004
g62
(dp3005
sg71
g2990
sg64
(lp3006
g57
(g58
g59
NtRp3007
(dp3008
g62
(dp3009
g70
I3
ssg71
g3003
sg64
(lp3010
g1497
asbasbasbag57
(g73
g59
NtRp3011
(dp3012
g62
(dp3013
sg71
g2587
sg64
(lp3014
g57
(g78
g59
NtRp3015
(dp3016
g62
(dp3017
g82
g83
ssg71
g3011
sg64
(lp3018
S'SERVER_PORT'
p3019
asbag57
(g78
g59
NtRp3020
(dp3021
g62
(dp3022
g89
g90
ssg71
g3011
sg64
(lp3023
S':'
asbag57
(g78
g59
NtRp3024
(dp3025
g62
(dp3026
sg71
g3011
sg64
(lp3027
g57
(g58
g59
NtRp3028
(dp3029
g62
(dp3030
g70
I3
ssg71
g3024
sg64
(lp3031
g1519
asbasbasbag57
(g73
g59
NtRp3032
(dp3033
g62
(dp3034
sg71
g2587
sg64
(lp3035
g57
(g78
g59
NtRp3036
(dp3037
g62
(dp3038
g82
g83
ssg71
g3032
sg64
(lp3039
S'SERVER_PROTOCOL'
p3040
asbag57
(g78
g59
NtRp3041
(dp3042
g62
(dp3043
g89
g90
ssg71
g3032
sg64
(lp3044
S':'
asbag57
(g78
g59
NtRp3045
(dp3046
g62
(dp3047
sg71
g3032
sg64
(lp3048
g57
(g58
g59
NtRp3049
(dp3050
g62
(dp3051
g70
I3
ssg71
g3045
sg64
(lp3052
g1541
asbasbasbag57
(g73
g59
NtRp3053
(dp3054
g62
(dp3055
sg71
g2587
sg64
(lp3056
g57
(g78
g59
NtRp3057
(dp3058
g62
(dp3059
g82
g83
ssg71
g3053
sg64
(lp3060
S'uwsgi.node'
p3061
asbag57
(g78
g59
NtRp3062
(dp3063
g62
(dp3064
g89
g90
ssg71
g3053
sg64
(lp3065
S':'
asbag57
(g78
g59
NtRp3066
(dp3067
g62
(dp3068
sg71
g3053
sg64
(lp3069
g57
(g58
g59
NtRp3070
(dp3071
g62
(dp3072
g70
I3
ssg71
g3066
sg64
(lp3073
g1563
asbasbasbag57
(g73
g59
NtRp3074
(dp3075
g62
(dp3076
sg71
g2587
sg64
(lp3077
g57
(g78
g59
NtRp3078
(dp3079
g62
(dp3080
g82
g83
ssg71
g3074
sg64
(lp3081
S'uwsgi.version'
p3082
asbag57
(g78
g59
NtRp3083
(dp3084
g62
(dp3085
g89
g90
ssg71
g3074
sg64
(lp3086
S':'
asbag57
(g78
g59
NtRp3087
(dp3088
g62
(dp3089
sg71
g3074
sg64
(lp3090
g57
(g58
g59
NtRp3091
(dp3092
g62
(dp3093
g70
I3
ssg71
g3087
sg64
(lp3094
g1585
asbasbasbag57
(g73
g59
NtRp3095
(dp3096
g62
(dp3097
sg71
g2587
sg64
(lp3098
g57
(g78
g59
NtRp3099
(dp3100
g62
(dp3101
g82
g83
ssg71
g3095
sg64
(lp3102
S'wsgi.errors'
p3103
asbag57
(g78
g59
NtRp3104
(dp3105
g62
(dp3106
g89
g90
ssg71
g3095
sg64
(lp3107
S':'
asbag57
(g78
g59
NtRp3108
(dp3109
g62
(dp3110
sg71
g3095
sg64
(lp3111
g57
(g58
g59
NtRp3112
(dp3113
g62
(dp3114
g70
I3
ssg71
g3108
sg64
(lp3115
S'<uwsgi_file__bin_user_wsgi_wrapper.ErrorLogWrapper object at 0x33d7c10>'
p3116
asbasbasbag57
(g73
g59
NtRp3117
(dp3118
g62
(dp3119
sg71
g2587
sg64
(lp3120
g57
(g78
g59
NtRp3121
(dp3122
g62
(dp3123
g82
g83
ssg71
g3117
sg64
(lp3124
S'wsgi.file_wrapper'
p3125
asbag57
(g78
g59
NtRp3126
(dp3127
g62
(dp3128
g89
g90
ssg71
g3117
sg64
(lp3129
S':'
asbag57
(g78
g59
NtRp3130
(dp3131
g62
(dp3132
sg71
g3117
sg64
(lp3133
g57
(g58
g59
NtRp3134
(dp3135
g62
(dp3136
g70
I3
ssg71
g3130
sg64
(lp3137
S'<built-in function uwsgi_sendfile>'
p3138
asbasbasbag57
(g73
g59
NtRp3139
(dp3140
g62
(dp3141
sg71
g2587
sg64
(lp3142
g57
(g78
g59
NtRp3143
(dp3144
g62
(dp3145
g82
g83
ssg71
g3139
sg64
(lp3146
S'wsgi.input'
p3147
asbag57
(g78
g59
NtRp3148
(dp3149
g62
(dp3150
g89
g90
ssg71
g3139
sg64
(lp3151
S':'
asbag57
(g78
g59
NtRp3152
(dp3153
g62
(dp3154
sg71
g3139
sg64
(lp3155
g57
(g58
g59
NtRp3156
(dp3157
g62
(dp3158
g70
I3
ssg71
g3152
sg64
(lp3159
S'<cStringIO.StringO object at 0x3e89ce0>'
p3160
asbasbasbag57
(g73
g59
NtRp3161
(dp3162
g62
(dp3163
sg71
g2587
sg64
(lp3164
g57
(g78
g59
NtRp3165
(dp3166
g62
(dp3167
g82
g83
ssg71
g3161
sg64
(lp3168
S'wsgi.multiprocess'
p3169
asbag57
(g78
g59
NtRp3170
(dp3171
g62
(dp3172
g89
g90
ssg71
g3161
sg64
(lp3173
S':'
asbag57
(g78
g59
NtRp3174
(dp3175
g62
(dp3176
sg71
g3161
sg64
(lp3177
g57
(g58
g59
NtRp3178
(dp3179
g62
(dp3180
g70
I3
ssg71
g3174
sg64
(lp3181
g100
asbasbasbag57
(g73
g59
NtRp3182
(dp3183
g62
(dp3184
sg71
g2587
sg64
(lp3185
g57
(g78
g59
NtRp3186
(dp3187
g62
(dp3188
g82
g83
ssg71
g3182
sg64
(lp3189
S'wsgi.multithread'
p3190
asbag57
(g78
g59
NtRp3191
(dp3192
g62
(dp3193
g89
g90
ssg71
g3182
sg64
(lp3194
S':'
asbag57
(g78
g59
NtRp3195
(dp3196
g62
(dp3197
sg71
g3182
sg64
(lp3198
g57
(g58
g59
NtRp3199
(dp3200
g62
(dp3201
g70
I3
ssg71
g3195
sg64
(lp3202
g100
asbasbasbag57
(g73
g59
NtRp3203
(dp3204
g62
(dp3205
sg71
g2587
sg64
(lp3206
g57
(g78
g59
NtRp3207
(dp3208
g62
(dp3209
g82
g83
ssg71
g3203
sg64
(lp3210
S'wsgi.run_once'
p3211
asbag57
(g78
g59
NtRp3212
(dp3213
g62
(dp3214
g89
g90
ssg71
g3203
sg64
(lp3215
S':'
asbag57
(g78
g59
NtRp3216
(dp3217
g62
(dp3218
sg71
g3203
sg64
(lp3219
g57
(g58
g59
NtRp3220
(dp3221
g62
(dp3222
g70
I3
ssg71
g3216
sg64
(lp3223
g100
asbasbasbag57
(g73
g59
NtRp3224
(dp3225
g62
(dp3226
sg71
g2587
sg64
(lp3227
g57
(g78
g59
NtRp3228
(dp3229
g62
(dp3230
g82
g83
ssg71
g3224
sg64
(lp3231
S'wsgi.url_scheme'
p3232
asbag57
(g78
g59
NtRp3233
(dp3234
g62
(dp3235
g89
g90
ssg71
g3224
sg64
(lp3236
S':'
asbag57
(g78
g59
NtRp3237
(dp3238
g62
(dp3239
sg71
g3224
sg64
(lp3240
g57
(g58
g59
NtRp3241
(dp3242
g62
(dp3243
g70
I3
ssg71
g3237
sg64
(lp3244
g1844
asbasbasbag57
(g73
g59
NtRp3245
(dp3246
g62
(dp3247
sg71
g2587
sg64
(lp3248
g57
(g78
g59
NtRp3249
(dp3250
g62
(dp3251
g82
g83
ssg71
g3245
sg64
(lp3252
S'wsgi.version'
p3253
asbag57
(g78
g59
NtRp3254
(dp3255
g62
(dp3256
g89
g90
ssg71
g3245
sg64
(lp3257
S':'
asbag57
(g78
g59
NtRp3258
(dp3259
g62
(dp3260
sg71
g3245
sg64
(lp3261
g57
(g58
g59
NtRp3262
(dp3263
g62
(dp3264
g70
I3
ssg71
g3258
sg64
(lp3265
S'1'
asbasbasbasbasbasbasbasbasbasbasbasbasbsS'frames'
p3266
(lp3267
(dp3268
S'file'
p3269
S'/home/rsoutelino/web2py/gluon/restricted.py'
p3270
sS'dump'
p3271
(dp3272
S'environment'
p3273
S"{'A': <class 'gluon.html.A'>, 'Auth': <class 'gluon.tools.Auth'>, 'B': <class 'gluon.html.B'>, 'BEAUTIFY': <class 'gluon.html.BEAUTIFY'>, 'BODY': <class 'gluon.html.BODY'>, 'BR': <class 'gluon.html.BR'>, 'BUTTON': <class 'gluon.html.BUTTON'>, 'CAT': <class 'gluon.html.CAT'>, 'CENTER': <class 'gluon.html.CENTER'>, 'CLEANUP': <class 'gluon.validators.CLEANUP'>, ...}"
p3274
sS'ccode'
p3275
S'<code object <module> at 0x3ea7030, file "/home/...ons/rsoutelino/views/default/index.html", line 1>'
p3276
ssS'lnum'
p3277
I212
sS'lines'
p3278
(dp3279
I207
S'    try:'
p3280
sI208
S'        if isinstance(code, types.CodeType):'
p3281
sI209
S'            ccode = code'
p3282
sI210
S'        else:'
p3283
sI211
S'            ccode = compile2(code, layer)'
p3284
sI212
S'        exec ccode in environment'
p3285
sI213
S'    except HTTP:'
p3286
sI214
S'        raise'
p3287
sI215
S'    except RestrictedError:'
p3288
sI216
S'        # do not encapsulate (obfuscate) the original RestrictedError'
p3289
ssS'call'
p3290
S'(code=\'response.write(\\\'<!DOCTYPE html PUBLIC "-//W3C//D.../div>\\\\n\\\\n</body>\\\\n</html>\\\\n\\\\n\\\\n\\\\n\\\', escape=False)\', environment={\'A\': <class \'gluon.html.A\'>, \'Auth\': <class \'gluon.tools.Auth\'>, \'B\': <class \'gluon.html.B\'>, \'BEAUTIFY\': <class \'gluon.html.BEAUTIFY\'>, \'BODY\': <class \'gluon.html.BODY\'>, \'BR\': <class \'gluon.html.BR\'>, \'BUTTON\': <class \'gluon.html.BUTTON\'>, \'CAT\': <class \'gluon.html.CAT\'>, \'CENTER\': <class \'gluon.html.CENTER\'>, \'CLEANUP\': <class \'gluon.validators.CLEANUP\'>, ...}, layer=\'/home/rsoutelino/web2py/applications/rsoutelino/views/default/index.html\')'
p3291
sS'func'
p3292
S'restricted'
p3293
sa(dp3294
g3269
S'/home/rsoutelino/web2py/applications/rsoutelino/views/default/index.html'
p3295
sg3271
(dp3296
S'lang'
p3297
S'undefined'
p3298
sS'html'
p3299
g3298
sS'xmlns'
p3300
g3298
ssg3277
I2
sg3278
(dp3301
I1
S'response.write(\'<!DOCTYPE html PUBLIC "-//W3C//DTD XHTML 1.0 Strict//EN" "http://www.w3.org/TR/xhtml1/DTD/xhtml1-strict.dtd">\\n<html xmlns="http://www.w3.org/1999/xhtml" lang="en">\\n\\n\\n<!--  Version: Multiflex-5.4 / Overview                     -->\\n<!--  Type:    Design with sidebar                          -->\\n<!--  Date:    March 13, 2008                               -->\\n<!--  Design:  www.1234.info                                -->\\n<!--  License: Fully open source without restrictions.      -->\\n<!--           Please keep footer credits with the words    -->\\n<!--           "Design by 1234.info". Thank you!            -->\\n\\n<head>\\n  <meta http-equiv="content-type" content="text/html; charset=utf-8" />\\n  <meta http-equiv="cache-control" content="no-cache" />\\n  <meta http-equiv="expires" content="3600" />\\n  <meta name="revisit-after" content="2 days" />\\n  <meta name="robots" content="index,follow" />\\n  <meta name="publisher" content="Your publisher infos here" />\\n  <meta name="copyright" content="Your copyright infos here" />\\n  <meta name="author" content="Designed by www.1234.info / Modified: Rafael Soutelino" />\\n  <meta name="distribution" content="global" />\\n  <meta name="description" content="Your container description here" />\\n  <meta name="keywords" content="Your keywords, keywords, keywords, here" />\\n  <link rel="stylesheet" type="text/css" media="screen,projection,print" href="\', escape=False)'
p3302
sI2
S'response.file.append(URL("static", "mf54_css/mf54_reset.css"))'
p3303
sI3
S'response.write(\'" />\\n  <link rel="stylesheet" type="text/css" media="screen,projection,print" href="\', escape=False)'
p3304
sI4
S'response.file.append(URL("static", "mf54_css/mf54_grid.css"))'
p3305
sI5
S'response.write(\'" />\\n  <link rel="stylesheet" type="text/css" media="screen,projection,print" href="\', escape=False)'
p3306
sI6
S'response.file.append(URL("static", "mf54_css/mf54_content.css"))'
p3307
sI7
S'response.write(\'" />\\n  <link rel="icon" type="image/x-icon" href="./img/favicon.ico" />\\n  <title>RSoutelino</title>\\n</head>\\n\\n<!-- Global IE fix to avoid layout crash when single word size wider than column width -->\\n<!-- Following line MUST remain as a comment to have the proper effect -->\\n<!--[if IE]><style type="text/css"> body {word-wrap: break-word;}</style><![endif]-->\\n\\n<body>\\n  <!-- CONTAINER FOR ENTIRE PAGE -->\\n  <div class="container">\\n\\n    <!-- A. HEADER -->\\n    <div class="corner-page-top"></div>\\n    <div class="header">\\n      <div class="header-top">\\n\\n        <!-- A.1 SITENAME -->\\n        <a class="sitelogo" href="index.html" title="Home"></a>\\n        <div class="sitename">\\n          <h1><a href="index.html" title="Home">Rafael G. Soutelino</a></h1>\\n          <h2>Academic Website</h2>\\n        </div>\\n\\n        <!-- A.2 BUTTON NAVIGATION -->\\n        <div class="navbutton">\\n          <ul>\\n            <li><a href="#" title="English"><img src="./img/icon_flag_us.gif" alt="Flag" /></a></li>\\n            <li><a href="#" title="Deutsch"><img src="./img/icon_flag_de.gif" alt="Flag" /></a></li>\\n            <li><a href="#" title="Svenska"><img src="./img/icon_flag_se.gif" alt="Flag" /></a></li>\\n            <li><a href="#" title="RSS"><img src="./img/icon_rss.gif" alt="RSS-Button" /></a></li>\\n          </ul>\\n        </div>\\n\\n        <!-- A.3 GLOBAL NAVIGATION -->\\n        <div class="navglobal">\\n          <ul>\\n            <li><a href="#" title="">About</a></li>\\n            <li><a href="#" title="">Contact</a></li>\\n            <li><a href="#" title="">Sitemap</a></li>\\n            <li><a href="#" title="">Links</a></li>\\n          </ul>\\n        </div>\\n      </div>\\n\\n      <!-- A.4 BREADCRUMB and SEARCHFORM -->\\n      <div class="header-bottom">\\n\\n        <!-- Breadcrumb -->\\n        <ul>\\n          <li class="nobullet">You are here:&nbsp;</li>\\n          <li><a href="#">Home</a></li>\\n          <li><a href="#">Page</a></li>\\n          <li><a href="#">Sub-Page</a></li>\\n          <li><a href="#">Sub-Sub-Page</a></li>\\n        </ul>\\n\\n        <!-- Search form -->\\n        <div class="searchform">\\n          <form action="index.html" method="get">\\n            <fieldset>\\n              <input name="field" class="field"  value=" Enter search word ..." />\\n              <input type="submit" name="button" class="button" value="Search" />\\n            </fieldset>\\n          </form>\\n        </div>\\n      </div>\\n    </div>\\n    <div class="corner-page-bottom"></div>\\n\\n    <!-- B. NAVIGATION BAR -->\\n    <div class="corner-page-top"></div>\\n    <div class="navbar">\\n\\n      <!-- Navigation item -->\\n      <ul>\\n        <li><a href="index.html">Home</a></li>\\n      </ul>\\n      <!-- Navigation item -->\\n      <ul>\\n        <li><a href="publications.html">Publications</a></li>\\n      </ul>\\n      <!-- Navigation item -->\\n      <ul>\\n        <li><a href="#">Links<!--[if IE 7]><!--></a><!--<![endif]-->\\n          <!--[if lte IE 6]><table><tr><td><![endif]-->\\n            <ul>\\n              <li><a href="mf54_grid.html">Useful meteorological and oceanographic links</a></li>\\n              <li><a href="mf54_grid_nosidebar.html">Useful websites</a></li>\\n            </ul>\\n          <!--[if lte IE 6]></td></tr></table></a><![endif]-->\\n        </li>\\n      </ul>\\n\\n    </div>\\n\\n    <!-- C. MAIN SECTION -->\\n    <div class="main">\\n      <h1 class="pagetitle">Home</h1>\\n\\n      <!-- C.1 CONTENT -->\\n      <div class="content">\\n\\n\\n<!-- ************************************************************************************************** -->\\n<!-- ************************************************************************************************** -->\\n<!-- **                                                                                              ** -->\\n<!-- **  1. CONTENT GRID (1-COLUMN)                                                                  ** -->\\n<!-- **                                                                                              ** -->\\n<!-- ************************************************************************************************** -->\\n<!-- ************************************************************************************************** -->\\n\\n\\n        <!-- CONTENT CELL -->\\n        <a id="anchor-grid-101"></a>\\n        <div class="corner-content-1col-top"></div>\\n        <div class="content-1col-nobox">\\n          <h1>Education</h1>\\n          <h2>Ph.D. in Physical Oceanography</h2>\\n          <p class="demo">Institution: Oceanographic Institute of the University of S\\xc3\\xa3o Paulo (IO-USP)\\n                         <br />\\n                         Advisor: Ilson C. A. da Silveira - IO-USP\\n                         <br />\\n                         Co-Advisor: Avijit Gangopadhyay - SMAST-UMassD\\n                         <br />\\n                         Dissertation: On the dynamics of the Brazil Current site of origin: PDF</p>\\n          <h2>M.Sc. in Physical Oceanography</h2>\\n          <p class="demo">Institution: Oceanographic Institute of the University of S\\xc3\\xa3o Paulo.\\n                         <br />\\n                         Advisor: Ilson C. A. da Silveira - IO-USP\\n                         <br />\\n                         Thesis: A Origem da Corrente do Brasil: PDF</p>\\n          <h2>B.Sc. in Oceanography</h2>\\n          <p class="demo">Institution: University of the state of Rio de Janeiro - UERJ.\\n                         <br />\\n                         Advisor: Ilson C. A. da Silveira - IO-USP\\n                         <br />\\n                         Co-Advisor: Luiz Carlos F. da Silva - UERJ\\n                         <br />\\n                         Thesis: Caracteriza\\xc3\\xa7\\xc3\\xa3o da estrutura barocl\\xc3\\xadnica do sistema de\\n                                       correntes de contorno oeste ao largo da costa leste\\n                                       brasileira: PDF</p>\\n        </div>\\n        <div class="corner-content-1col-bottom"></div>\\n\\n\\n        <!-- CONTENT CELL -->\\n        <div class="corner-content-1col-top"></div>\\n        <div class="content-1col-nobox">\\n          <h1>Research Interests</h1>\\n            <p class="demo">Write my research interests here!!!!  </p>\\n        </div>\\n        <div class="corner-content-1col-bottom"></div>\\n\\n      </div>\\n\\n\\n<!-- ************************************************************************************************** -->\\n<!-- ************************************************************************************************** -->\\n<!-- **                                                                                              ** -->\\n<!-- **  4. SUBCONTENT GRID                                                                          ** -->\\n<!-- **                                                                                              ** -->\\n<!-- ************************************************************************************************** -->\\n<!-- ************************************************************************************************** -->\\n\\n\\n      <!-- C.2 SUBCONTENT -->\\n      <a id="anchor-grid-401"></a>\\n      <div class="subcontent">\\n\\n<!-- ************************************************************************************************** -->\\n<!-- **   4-05. IMAGE                                                                                ** -->\\n<!-- ************************************************************************************************** -->\\n\\n        <!-- SUBCONTENT CELL -->\\n        <a id="anchor-image-4"></a>\\n        <div class="corner-subcontent-top"></div>\\n        <div class="subcontent-box">\\n          <h1>About Me</h1>\\n          <!-- <h2>Title heading (above image)</h2> -->\\n          <!-- <h3>Heading h3</h3> -->\\n          <!-- <h6>Heading h6</h6>                     -->\\n          <p><img src="./img/soutelino.jpg" alt="Image description" title="Image title" />I\\\'m a Physical Oceanographer working as a research fellow at IEAPM. I\\\'ve got my\\n                          Oceanographer B.Sc. degree at UERJ and my master\\\'s and Ph.D. degrees at\\n                          IO-USP, being the later in collaboration with SMAST-UMassD.</p>\\n          <p><img class="center" src="./img/image.jpg" alt="Image description" title="Image title" /></p>\\n          <h3>Heading h3</h3>\\n          <h6>Heading h6</h6>\\n        </div>\\n        <div class="corner-subcontent-bottom"></div>\\n\\n\\n      </div>\\n    </div>\\n\\n\\n<!-- ************************************************************************************************** -->\\n<!-- ************************************************************************************************** -->\\n<!-- *********************************   END OF CONTENT   ********************************************* -->\\n<!-- ************************************************************************************************** -->\\n<!-- ************************************************************************************************** -->\\n\\n\\n    <!-- D. FOOTER -->\\n    <div class="footer">\\n      <p>Copyright &copy; 2012 Rafael G. Soutelino&nbsp;&nbsp;|&nbsp;&nbsp;All Rights Reserved</p>\\n      <p class="credits">Design by <a href="http://1234.info/" title="Designer Homepage">1234.info</a> | Modified by <a href="#" title="Modifyer Homepage">Rafael Soutelino</a> | Powered by <a href="#" title="CMS Homepage">Your CMS</a> | Media Player by <a href="http://www.jeroenwijering.com" title="Media Player Credits">Jeroen Wijering</a>  | <a href="http://validator.w3.org/check?uri=referer" title="Validate XHTML code">XHTML 1.0</a> | <a href="http://jigsaw.w3.org/css-validator/" title="Validate CSS code">CSS 2.0</a></p>\\n    </div>\\n    <div class="corner-page-bottom"></div>\\n  </div>\\n\\n</body>\\n</html>\\n\\n\\n\\n\', escape=False)'
p3308
ssg3290
S'()'
p3309
sg3292
S'<module>'
p3310
sasS'pyver'
p3311
S'Python 2.7.3: /usr/local/bin/uwsgi'
p3312
sS'session'
p3313
g57
(g58
g59
NtRp3314
(dp3315
g62
(dp3316
sg64
(lp3317
g57
(g66
g59
NtRp3318
(dp3319
g62
(dp3320
g70
I5
ssg71
Nsg64
(lp3321
g57
(g73
g59
NtRp3322
(dp3323
g62
(dp3324
sg71
g3318
sg64
(lp3325
g57
(g78
g59
NtRp3326
(dp3327
g62
(dp3328
g82
g83
ssg71
g3322
sg64
(lp3329
S'auth'
p3330
asbag57
(g78
g59
NtRp3331
(dp3332
g62
(dp3333
g89
g90
ssg71
g3322
sg64
(lp3334
S':'
asbag57
(g78
g59
NtRp3335
(dp3336
g62
(dp3337
sg71
g3322
sg64
(lp3338
g57
(g58
g59
NtRp3339
(dp3340
g62
(dp3341
g70
I5
ssg71
g3335
sg64
(lp3342
S'None'
p3343
asbasbasbag57
(g73
g59
NtRp3344
(dp3345
g62
(dp3346
sg71
g3318
sg64
(lp3347
g57
(g78
g59
NtRp3348
(dp3349
g62
(dp3350
g82
g83
ssg71
g3344
sg64
(lp3351
S'flash'
p3352
asbag57
(g78
g59
NtRp3353
(dp3354
g62
(dp3355
g89
g90
ssg71
g3344
sg64
(lp3356
S':'
asbag57
(g78
g59
NtRp3357
(dp3358
g62
(dp3359
sg71
g3344
sg64
(lp3360
g57
(g58
g59
NtRp3361
(dp3362
g62
(dp3363
g70
I5
ssg71
g3357
sg64
(lp3364
S'None'
p3365
asbasbasbasbasbsS'etype'
p3366
S"<type 'exceptions.AttributeError'>"
p3367
sS'date'
p3368
S'Tue Dec 18 16:20:29 2012'
p3369
sS'response'
p3370
g57
(g58
g59
NtRp3371
(dp3372
g62
(dp3373
sg64
(lp3374
g57
(g66
g59
NtRp3375
(dp3376
g62
(dp3377
g70
I5
ssg71
Nsg64
(lp3378
g57
(g73
g59
NtRp3379
(dp3380
g62
(dp3381
sg71
g3375
sg64
(lp3382
g57
(g78
g59
NtRp3383
(dp3384
g62
(dp3385
g82
g83
ssg71
g3379
sg64
(lp3386
g155
asbag57
(g78
g59
NtRp3387
(dp3388
g62
(dp3389
g89
g90
ssg71
g3379
sg64
(lp3390
S':'
asbag57
(g78
g59
NtRp3391
(dp3392
g62
(dp3393
sg71
g3379
sg64
(lp3394
g57
(g58
g59
NtRp3395
(dp3396
g62
(dp3397
g70
I5
ssg71
g3391
sg64
(lp3398
S'<cStringIO.StringO object at 0x3e898f0>'
p3399
asbasbasbag57
(g73
g59
NtRp3400
(dp3401
g62
(dp3402
sg71
g3375
sg64
(lp3403
g57
(g78
g59
NtRp3404
(dp3405
g62
(dp3406
g82
g83
ssg71
g3400
sg64
(lp3407
g243
asbag57
(g78
g59
NtRp3408
(dp3409
g62
(dp3410
g89
g90
ssg71
g3400
sg64
(lp3411
S':'
asbag57
(g78
g59
NtRp3412
(dp3413
g62
(dp3414
sg71
g3400
sg64
(lp3415
g57
(g58
g59
NtRp3416
(dp3417
g62
(dp3418
g70
I5
ssg71
g3412
sg64
(lp3419
g57
(g66
g59
NtRp3420
(dp3421
g62
(dp3422
g70
I4
ssg71
Nsg64
(lp3423
g57
(g73
g59
NtRp3424
(dp3425
g62
(dp3426
sg71
g3420
sg64
(lp3427
g57
(g78
g59
NtRp3428
(dp3429
g62
(dp3430
g82
g83
ssg71
g3424
sg64
(lp3431
S'session_id_rsoutelino'
p3432
asbag57
(g78
g59
NtRp3433
(dp3434
g62
(dp3435
g89
g90
ssg71
g3424
sg64
(lp3436
S':'
asbag57
(g78
g59
NtRp3437
(dp3438
g62
(dp3439
sg71
g3424
sg64
(lp3440
g57
(g58
g59
NtRp3441
(dp3442
g62
(dp3443
g70
I4
ssg71
g3437
sg64
(lp3444
g475
ag57
(g66
g59
NtRp3445
(dp3446
g62
(dp3447
g70
I3
ssg71
Nsg64
(lp3448
g57
(g73
g59
NtRp3449
(dp3450
g62
(dp3451
sg71
g3445
sg64
(lp3452
g57
(g78
g59
NtRp3453
(dp3454
g62
(dp3455
g82
g83
ssg71
g3449
sg64
(lp3456
g294
asbag57
(g78
g59
NtRp3457
(dp3458
g62
(dp3459
g89
g90
ssg71
g3449
sg64
(lp3460
S':'
asbag57
(g78
g59
NtRp3461
(dp3462
g62
(dp3463
sg71
g3449
sg64
(lp3464
g57
(g58
g59
NtRp3465
(dp3466
g62
(dp3467
g70
I3
ssg71
g3461
sg64
(lp3468
S''
asbasbasbag57
(g73
g59
NtRp3469
(dp3470
g62
(dp3471
sg71
g3445
sg64
(lp3472
g57
(g78
g59
NtRp3473
(dp3474
g62
(dp3475
g82
g83
ssg71
g3469
sg64
(lp3476
g315
asbag57
(g78
g59
NtRp3477
(dp3478
g62
(dp3479
g89
g90
ssg71
g3469
sg64
(lp3480
S':'
asbag57
(g78
g59
NtRp3481
(dp3482
g62
(dp3483
sg71
g3469
sg64
(lp3484
g57
(g58
g59
NtRp3485
(dp3486
g62
(dp3487
g70
I3
ssg71
g3481
sg64
(lp3488
S''
asbasbasbag57
(g73
g59
NtRp3489
(dp3490
g62
(dp3491
sg71
g3445
sg64
(lp3492
g57
(g78
g59
NtRp3493
(dp3494
g62
(dp3495
g82
g83
ssg71
g3489
sg64
(lp3496
g336
asbag57
(g78
g59
NtRp3497
(dp3498
g62
(dp3499
g89
g90
ssg71
g3489
sg64
(lp3500
S':'
asbag57
(g78
g59
NtRp3501
(dp3502
g62
(dp3503
sg71
g3489
sg64
(lp3504
g57
(g58
g59
NtRp3505
(dp3506
g62
(dp3507
g70
I3
ssg71
g3501
sg64
(lp3508
S''
asbasbasbag57
(g73
g59
NtRp3509
(dp3510
g62
(dp3511
sg71
g3445
sg64
(lp3512
g57
(g78
g59
NtRp3513
(dp3514
g62
(dp3515
g82
g83
ssg71
g3509
sg64
(lp3516
g357
asbag57
(g78
g59
NtRp3517
(dp3518
g62
(dp3519
g89
g90
ssg71
g3509
sg64
(lp3520
S':'
asbag57
(g78
g59
NtRp3521
(dp3522
g62
(dp3523
sg71
g3509
sg64
(lp3524
g57
(g58
g59
NtRp3525
(dp3526
g62
(dp3527
g70
I3
ssg71
g3521
sg64
(lp3528
S''
asbasbasbag57
(g73
g59
NtRp3529
(dp3530
g62
(dp3531
sg71
g3445
sg64
(lp3532
g57
(g78
g59
NtRp3533
(dp3534
g62
(dp3535
g82
g83
ssg71
g3529
sg64
(lp3536
g378
asbag57
(g78
g59
NtRp3537
(dp3538
g62
(dp3539
g89
g90
ssg71
g3529
sg64
(lp3540
S':'
asbag57
(g78
g59
NtRp3541
(dp3542
g62
(dp3543
sg71
g3529
sg64
(lp3544
g57
(g58
g59
NtRp3545
(dp3546
g62
(dp3547
g70
I3
ssg71
g3541
sg64
(lp3548
S''
asbasbasbag57
(g73
g59
NtRp3549
(dp3550
g62
(dp3551
sg71
g3445
sg64
(lp3552
g57
(g78
g59
NtRp3553
(dp3554
g62
(dp3555
g82
g83
ssg71
g3549
sg64
(lp3556
g399
asbag57
(g78
g59
NtRp3557
(dp3558
g62
(dp3559
g89
g90
ssg71
g3549
sg64
(lp3560
S':'
asbag57
(g78
g59
NtRp3561
(dp3562
g62
(dp3563
sg71
g3549
sg64
(lp3564
g57
(g58
g59
NtRp3565
(dp3566
g62
(dp3567
g70
I3
ssg71
g3561
sg64
(lp3568
S'/'
asbasbasbag57
(g73
g59
NtRp3569
(dp3570
g62
(dp3571
sg71
g3445
sg64
(lp3572
g57
(g78
g59
NtRp3573
(dp3574
g62
(dp3575
g82
g83
ssg71
g3569
sg64
(lp3576
g420
asbag57
(g78
g59
NtRp3577
(dp3578
g62
(dp3579
g89
g90
ssg71
g3569
sg64
(lp3580
S':'
asbag57
(g78
g59
NtRp3581
(dp3582
g62
(dp3583
sg71
g3569
sg64
(lp3584
g57
(g58
g59
NtRp3585
(dp3586
g62
(dp3587
g70
I3
ssg71
g3581
sg64
(lp3588
S''
asbasbasbag57
(g73
g59
NtRp3589
(dp3590
g62
(dp3591
sg71
g3445
sg64
(lp3592
g57
(g78
g59
NtRp3593
(dp3594
g62
(dp3595
g82
g83
ssg71
g3589
sg64
(lp3596
g441
asbag57
(g78
g59
NtRp3597
(dp3598
g62
(dp3599
g89
g90
ssg71
g3589
sg64
(lp3600
S':'
asbag57
(g78
g59
NtRp3601
(dp3602
g62
(dp3603
sg71
g3589
sg64
(lp3604
g57
(g58
g59
NtRp3605
(dp3606
g62
(dp3607
g70
I3
ssg71
g3601
sg64
(lp3608
S''
asbasbasbasbasbasbasbasbasbasbasbag57
(g73
g59
NtRp3609
(dp3610
g62
(dp3611
sg71
g3375
sg64
(lp3612
g57
(g78
g59
NtRp3613
(dp3614
g62
(dp3615
g82
g83
ssg71
g3609
sg64
(lp3616
S'delimiters'
p3617
asbag57
(g78
g59
NtRp3618
(dp3619
g62
(dp3620
g89
g90
ssg71
g3609
sg64
(lp3621
S':'
asbag57
(g78
g59
NtRp3622
(dp3623
g62
(dp3624
sg71
g3609
sg64
(lp3625
g57
(g58
g59
NtRp3626
(dp3627
g62
(dp3628
g70
I5
ssg71
g3622
sg64
(lp3629
g57
(g66
g59
NtRp3630
(dp3631
g62
(dp3632
g70
I4
ssg71
Nsg64
(lp3633
g57
(g73
g59
NtRp3634
(dp3635
g62
(dp3636
sg71
g3630
sg64
(lp3637
g57
(g78
g59
NtRp3638
(dp3639
g62
(dp3640
sg71
g3634
sg64
(lp3641
g57
(g58
g59
NtRp3642
(dp3643
g62
(dp3644
g70
I4
ssg71
g3638
sg64
(lp3645
S'{{'
p3646
asbasbasbag57
(g73
g59
NtRp3647
(dp3648
g62
(dp3649
sg71
g3630
sg64
(lp3650
g57
(g78
g59
NtRp3651
(dp3652
g62
(dp3653
sg71
g3647
sg64
(lp3654
g57
(g58
g59
NtRp3655
(dp3656
g62
(dp3657
g70
I4
ssg71
g3651
sg64
(lp3658
S'}}'
p3659
asbasbasbasbasbasbasbag57
(g73
g59
NtRp3660
(dp3661
g62
(dp3662
sg71
g3375
sg64
(lp3663
g57
(g78
g59
NtRp3664
(dp3665
g62
(dp3666
g82
g83
ssg71
g3660
sg64
(lp3667
S'files'
p3668
asbag57
(g78
g59
NtRp3669
(dp3670
g62
(dp3671
g89
g90
ssg71
g3660
sg64
(lp3672
S':'
asbag57
(g78
g59
NtRp3673
(dp3674
g62
(dp3675
sg71
g3660
sg64
(lp3676
g57
(g58
g59
NtRp3677
(dp3678
g62
(dp3679
g70
I5
ssg71
g3673
sg64
(lp3680
g57
(g66
g59
NtRp3681
(dp3682
g62
(dp3683
g70
I4
ssg71
Nsg64
(lp3684
sbasbasbasbag57
(g73
g59
NtRp3685
(dp3686
g62
(dp3687
sg71
g3375
sg64
(lp3688
g57
(g78
g59
NtRp3689
(dp3690
g62
(dp3691
g82
g83
ssg71
g3685
sg64
(lp3692
S'flash'
p3693
asbag57
(g78
g59
NtRp3694
(dp3695
g62
(dp3696
g89
g90
ssg71
g3685
sg64
(lp3697
S':'
asbag57
(g78
g59
NtRp3698
(dp3699
g62
(dp3700
sg71
g3685
sg64
(lp3701
g57
(g58
g59
NtRp3702
(dp3703
g62
(dp3704
g70
I5
ssg71
g3698
sg64
(lp3705
S''
asbasbasbag57
(g73
g59
NtRp3706
(dp3707
g62
(dp3708
sg71
g3375
sg64
(lp3709
g57
(g78
g59
NtRp3710
(dp3711
g62
(dp3712
g82
g83
ssg71
g3706
sg64
(lp3713
S'generic_patterns'
p3714
asbag57
(g78
g59
NtRp3715
(dp3716
g62
(dp3717
g89
g90
ssg71
g3706
sg64
(lp3718
S':'
asbag57
(g78
g59
NtRp3719
(dp3720
g62
(dp3721
sg71
g3706
sg64
(lp3722
g57
(g58
g59
NtRp3723
(dp3724
g62
(dp3725
g70
I5
ssg71
g3719
sg64
(lp3726
g57
(g66
g59
NtRp3727
(dp3728
g62
(dp3729
g70
I4
ssg71
Nsg64
(lp3730
g57
(g73
g59
NtRp3731
(dp3732
g62
(dp3733
sg71
g3727
sg64
(lp3734
g57
(g78
g59
NtRp3735
(dp3736
g62
(dp3737
sg71
g3731
sg64
(lp3738
g57
(g58
g59
NtRp3739
(dp3740
g62
(dp3741
g70
I4
ssg71
g3735
sg64
(lp3742
S'*'
asbasbasbasbasbasbasbag57
(g73
g59
NtRp3743
(dp3744
g62
(dp3745
sg71
g3375
sg64
(lp3746
g57
(g78
g59
NtRp3747
(dp3748
g62
(dp3749
g82
g83
ssg71
g3743
sg64
(lp3750
S'headers'
p3751
asbag57
(g78
g59
NtRp3752
(dp3753
g62
(dp3754
g89
g90
ssg71
g3743
sg64
(lp3755
S':'
asbag57
(g78
g59
NtRp3756
(dp3757
g62
(dp3758
sg71
g3743
sg64
(lp3759
g57
(g58
g59
NtRp3760
(dp3761
g62
(dp3762
g70
I5
ssg71
g3756
sg64
(lp3763
g57
(g66
g59
NtRp3764
(dp3765
g62
(dp3766
g70
I4
ssg71
Nsg64
(lp3767
g57
(g73
g59
NtRp3768
(dp3769
g62
(dp3770
sg71
g3764
sg64
(lp3771
g57
(g78
g59
NtRp3772
(dp3773
g62
(dp3774
g82
g83
ssg71
g3768
sg64
(lp3775
S'X-Powered-By'
p3776
asbag57
(g78
g59
NtRp3777
(dp3778
g62
(dp3779
g89
g90
ssg71
g3768
sg64
(lp3780
S':'
asbag57
(g78
g59
NtRp3781
(dp3782
g62
(dp3783
sg71
g3768
sg64
(lp3784
g57
(g58
g59
NtRp3785
(dp3786
g62
(dp3787
g70
I4
ssg71
g3781
sg64
(lp3788
S'web2py'
p3789
asbasbasbasbasbasbasbag57
(g73
g59
NtRp3790
(dp3791
g62
(dp3792
sg71
g3375
sg64
(lp3793
g57
(g78
g59
NtRp3794
(dp3795
g62
(dp3796
g82
g83
ssg71
g3790
sg64
(lp3797
S'menu'
p3798
asbag57
(g78
g59
NtRp3799
(dp3800
g62
(dp3801
g89
g90
ssg71
g3790
sg64
(lp3802
S':'
asbag57
(g78
g59
NtRp3803
(dp3804
g62
(dp3805
sg71
g3790
sg64
(lp3806
g57
(g58
g59
NtRp3807
(dp3808
g62
(dp3809
g70
I5
ssg71
g3803
sg64
(lp3810
g57
(g66
g59
NtRp3811
(dp3812
g62
(dp3813
g70
I4
ssg71
Nsg64
(lp3814
sbasbasbasbag57
(g73
g59
NtRp3815
(dp3816
g62
(dp3817
sg71
g3375
sg64
(lp3818
g57
(g78
g59
NtRp3819
(dp3820
g62
(dp3821
g82
g83
ssg71
g3815
sg64
(lp3822
S'meta'
p3823
asbag57
(g78
g59
NtRp3824
(dp3825
g62
(dp3826
g89
g90
ssg71
g3815
sg64
(lp3827
S':'
asbag57
(g78
g59
NtRp3828
(dp3829
g62
(dp3830
sg71
g3815
sg64
(lp3831
g57
(g58
g59
NtRp3832
(dp3833
g62
(dp3834
g70
I5
ssg71
g3828
sg64
(lp3835
g57
(g66
g59
NtRp3836
(dp3837
g62
(dp3838
g70
I4
ssg71
Nsg64
(lp3839
g57
(g73
g59
NtRp3840
(dp3841
g62
(dp3842
sg71
g3836
sg64
(lp3843
g57
(g78
g59
NtRp3844
(dp3845
g62
(dp3846
g82
g83
ssg71
g3840
sg64
(lp3847
S'author'
p3848
asbag57
(g78
g59
NtRp3849
(dp3850
g62
(dp3851
g89
g90
ssg71
g3840
sg64
(lp3852
S':'
asbag57
(g78
g59
NtRp3853
(dp3854
g62
(dp3855
sg71
g3840
sg64
(lp3856
g57
(g58
g59
NtRp3857
(dp3858
g62
(dp3859
g70
I4
ssg71
g3853
sg64
(lp3860
S'Diego Miranda'
p3861
asbasbasbag57
(g73
g59
NtRp3862
(dp3863
g62
(dp3864
sg71
g3836
sg64
(lp3865
g57
(g78
g59
NtRp3866
(dp3867
g62
(dp3868
g82
g83
ssg71
g3862
sg64
(lp3869
S'copyright'
p3870
asbag57
(g78
g59
NtRp3871
(dp3872
g62
(dp3873
g89
g90
ssg71
g3862
sg64
(lp3874
S':'
asbag57
(g78
g59
NtRp3875
(dp3876
g62
(dp3877
sg71
g3862
sg64
(lp3878
g57
(g58
g59
NtRp3879
(dp3880
g62
(dp3881
g70
I4
ssg71
g3875
sg64
(lp3882
S'Copyright 2012'
p3883
asbasbasbag57
(g73
g59
NtRp3884
(dp3885
g62
(dp3886
sg71
g3836
sg64
(lp3887
g57
(g78
g59
NtRp3888
(dp3889
g62
(dp3890
g82
g83
ssg71
g3884
sg64
(lp3891
S'description'
p3892
asbag57
(g78
g59
NtRp3893
(dp3894
g62
(dp3895
g89
g90
ssg71
g3884
sg64
(lp3896
S':'
asbag57
(g78
g59
NtRp3897
(dp3898
g62
(dp3899
sg71
g3884
sg64
(lp3900
g57
(g58
g59
NtRp3901
(dp3902
g62
(dp3903
g70
I4
ssg71
g3897
sg64
(lp3904
S'Rafael App'
p3905
asbasbasbag57
(g73
g59
NtRp3906
(dp3907
g62
(dp3908
sg71
g3836
sg64
(lp3909
g57
(g78
g59
NtRp3910
(dp3911
g62
(dp3912
g82
g83
ssg71
g3906
sg64
(lp3913
S'generator'
p3914
asbag57
(g78
g59
NtRp3915
(dp3916
g62
(dp3917
g89
g90
ssg71
g3906
sg64
(lp3918
S':'
asbag57
(g78
g59
NtRp3919
(dp3920
g62
(dp3921
sg71
g3906
sg64
(lp3922
g57
(g58
g59
NtRp3923
(dp3924
g62
(dp3925
g70
I4
ssg71
g3919
sg64
(lp3926
S'web2py web framework'
p3927
asbasbasbag57
(g73
g59
NtRp3928
(dp3929
g62
(dp3930
sg71
g3836
sg64
(lp3931
g57
(g78
g59
NtRp3932
(dp3933
g62
(dp3934
g82
g83
ssg71
g3928
sg64
(lp3935
S'keywords'
p3936
asbag57
(g78
g59
NtRp3937
(dp3938
g62
(dp3939
g89
g90
ssg71
g3928
sg64
(lp3940
S':'
asbag57
(g78
g59
NtRp3941
(dp3942
g62
(dp3943
sg71
g3928
sg64
(lp3944
g57
(g58
g59
NtRp3945
(dp3946
g62
(dp3947
g70
I4
ssg71
g3941
sg64
(lp3948
S'web2py, python framework'
p3949
asbasbasbasbasbasbasbag57
(g73
g59
NtRp3950
(dp3951
g62
(dp3952
sg71
g3375
sg64
(lp3953
g57
(g78
g59
NtRp3954
(dp3955
g62
(dp3956
g82
g83
ssg71
g3950
sg64
(lp3957
S'models_to_run'
p3958
asbag57
(g78
g59
NtRp3959
(dp3960
g62
(dp3961
g89
g90
ssg71
g3950
sg64
(lp3962
S':'
asbag57
(g78
g59
NtRp3963
(dp3964
g62
(dp3965
sg71
g3950
sg64
(lp3966
g57
(g58
g59
NtRp3967
(dp3968
g62
(dp3969
g70
I5
ssg71
g3963
sg64
(lp3970
g57
(g66
g59
NtRp3971
(dp3972
g62
(dp3973
g70
I4
ssg71
Nsg64
(lp3974
g57
(g73
g59
NtRp3975
(dp3976
g62
(dp3977
sg71
g3971
sg64
(lp3978
g57
(g78
g59
NtRp3979
(dp3980
g62
(dp3981
sg71
g3975
sg64
(lp3982
g57
(g58
g59
NtRp3983
(dp3984
g62
(dp3985
g70
I4
ssg71
g3979
sg64
(lp3986
S'^\\w+\\.py$'
p3987
asbasbasbag57
(g73
g59
NtRp3988
(dp3989
g62
(dp3990
sg71
g3971
sg64
(lp3991
g57
(g78
g59
NtRp3992
(dp3993
g62
(dp3994
sg71
g3988
sg64
(lp3995
g57
(g58
g59
NtRp3996
(dp3997
g62
(dp3998
g70
I4
ssg71
g3992
sg64
(lp3999
S'^default/\\w+\\.py$'
p4000
asbasbasbag57
(g73
g59
NtRp4001
(dp4002
g62
(dp4003
sg71
g3971
sg64
(lp4004
g57
(g78
g59
NtRp4005
(dp4006
g62
(dp4007
sg71
g4001
sg64
(lp4008
g57
(g58
g59
NtRp4009
(dp4010
g62
(dp4011
g70
I4
ssg71
g4005
sg64
(lp4012
S'^default/index/\\w+\\.py$'
p4013
asbasbasbasbasbasbasbag57
(g73
g59
NtRp4014
(dp4015
g62
(dp4016
sg71
g3375
sg64
(lp4017
g57
(g78
g59
NtRp4018
(dp4019
g62
(dp4020
g82
g83
ssg71
g4014
sg64
(lp4021
S'postprocessing'
p4022
asbag57
(g78
g59
NtRp4023
(dp4024
g62
(dp4025
g89
g90
ssg71
g4014
sg64
(lp4026
S':'
asbag57
(g78
g59
NtRp4027
(dp4028
g62
(dp4029
sg71
g4014
sg64
(lp4030
g57
(g58
g59
NtRp4031
(dp4032
g62
(dp4033
g70
I5
ssg71
g4027
sg64
(lp4034
g57
(g66
g59
NtRp4035
(dp4036
g62
(dp4037
g70
I4
ssg71
Nsg64
(lp4038
sbasbasbasbag57
(g73
g59
NtRp4039
(dp4040
g62
(dp4041
sg71
g3375
sg64
(lp4042
g57
(g78
g59
NtRp4043
(dp4044
g62
(dp4045
g82
g83
ssg71
g4039
sg64
(lp4046
S'session_cookie_expires'
p4047
asbag57
(g78
g59
NtRp4048
(dp4049
g62
(dp4050
g89
g90
ssg71
g4039
sg64
(lp4051
S':'
asbag57
(g78
g59
NtRp4052
(dp4053
g62
(dp4054
sg71
g4039
sg64
(lp4055
g57
(g58
g59
NtRp4056
(dp4057
g62
(dp4058
g70
I5
ssg71
g4052
sg64
(lp4059
S'None'
p4060
asbasbasbag57
(g73
g59
NtRp4061
(dp4062
g62
(dp4063
sg71
g3375
sg64
(lp4064
g57
(g78
g59
NtRp4065
(dp4066
g62
(dp4067
g82
g83
ssg71
g4061
sg64
(lp4068
S'session_data_name'
p4069
asbag57
(g78
g59
NtRp4070
(dp4071
g62
(dp4072
g89
g90
ssg71
g4061
sg64
(lp4073
S':'
asbag57
(g78
g59
NtRp4074
(dp4075
g62
(dp4076
sg71
g4061
sg64
(lp4077
g57
(g58
g59
NtRp4078
(dp4079
g62
(dp4080
g70
I5
ssg71
g4074
sg64
(lp4081
S'session_data_rsoutelino'
p4082
asbasbasbag57
(g73
g59
NtRp4083
(dp4084
g62
(dp4085
sg71
g3375
sg64
(lp4086
g57
(g78
g59
NtRp4087
(dp4088
g62
(dp4089
g82
g83
ssg71
g4083
sg64
(lp4090
S'session_file'
p4091
asbag57
(g78
g59
NtRp4092
(dp4093
g62
(dp4094
g89
g90
ssg71
g4083
sg64
(lp4095
S':'
asbag57
(g78
g59
NtRp4096
(dp4097
g62
(dp4098
sg71
g4083
sg64
(lp4099
g57
(g58
g59
NtRp4100
(dp4101
g62
(dp4102
g70
I5
ssg71
g4096
sg64
(lp4103
S"<open file '/home/rsoutelino/web2py/applications/rsoutelino/sessions/177.162.249.173-367d9431-619b-4299-9fd0-6014b0e3ef85', mode 'rb+' at 0x3e6f780>"
p4104
asbasbasbag57
(g73
g59
NtRp4105
(dp4106
g62
(dp4107
sg71
g3375
sg64
(lp4108
g57
(g78
g59
NtRp4109
(dp4110
g62
(dp4111
g82
g83
ssg71
g4105
sg64
(lp4112
S'session_filename'
p4113
asbag57
(g78
g59
NtRp4114
(dp4115
g62
(dp4116
g89
g90
ssg71
g4105
sg64
(lp4117
S':'
asbag57
(g78
g59
NtRp4118
(dp4119
g62
(dp4120
sg71
g4105
sg64
(lp4121
g57
(g58
g59
NtRp4122
(dp4123
g62
(dp4124
g70
I5
ssg71
g4118
sg64
(lp4125
S'/home/rsoutelino/web2py/applications/rsoutelino/sessions/177.162.249.173-367d9431-619b-4299-9fd0-6014b0e3ef85'
p4126
asbasbasbag57
(g73
g59
NtRp4127
(dp4128
g62
(dp4129
sg71
g3375
sg64
(lp4130
g57
(g78
g59
NtRp4131
(dp4132
g62
(dp4133
g82
g83
ssg71
g4127
sg64
(lp4134
S'session_id'
p4135
asbag57
(g78
g59
NtRp4136
(dp4137
g62
(dp4138
g89
g90
ssg71
g4127
sg64
(lp4139
S':'
asbag57
(g78
g59
NtRp4140
(dp4141
g62
(dp4142
sg71
g4127
sg64
(lp4143
g57
(g58
g59
NtRp4144
(dp4145
g62
(dp4146
g70
I5
ssg71
g4140
sg64
(lp4147
g475
asbasbasbag57
(g73
g59
NtRp4148
(dp4149
g62
(dp4150
sg71
g3375
sg64
(lp4151
g57
(g78
g59
NtRp4152
(dp4153
g62
(dp4154
g82
g83
ssg71
g4148
sg64
(lp4155
S'session_id_name'
p4156
asbag57
(g78
g59
NtRp4157
(dp4158
g62
(dp4159
g89
g90
ssg71
g4148
sg64
(lp4160
S':'
asbag57
(g78
g59
NtRp4161
(dp4162
g62
(dp4163
sg71
g4148
sg64
(lp4164
g57
(g58
g59
NtRp4165
(dp4166
g62
(dp4167
g70
I5
ssg71
g4161
sg64
(lp4168
g3432
asbasbasbag57
(g73
g59
NtRp4169
(dp4170
g62
(dp4171
sg71
g3375
sg64
(lp4172
g57
(g78
g59
NtRp4173
(dp4174
g62
(dp4175
g82
g83
ssg71
g4169
sg64
(lp4176
S'session_locked'
p4177
asbag57
(g78
g59
NtRp4178
(dp4179
g62
(dp4180
g89
g90
ssg71
g4169
sg64
(lp4181
S':'
asbag57
(g78
g59
NtRp4182
(dp4183
g62
(dp4184
sg71
g4169
sg64
(lp4185
g57
(g58
g59
NtRp4186
(dp4187
g62
(dp4188
g70
I5
ssg71
g4182
sg64
(lp4189
S'True'
p4190
asbasbasbag57
(g73
g59
NtRp4191
(dp4192
g62
(dp4193
sg71
g3375
sg64
(lp4194
g57
(g78
g59
NtRp4195
(dp4196
g62
(dp4197
g82
g83
ssg71
g4191
sg64
(lp4198
S'session_new'
p4199
asbag57
(g78
g59
NtRp4200
(dp4201
g62
(dp4202
g89
g90
ssg71
g4191
sg64
(lp4203
S':'
asbag57
(g78
g59
NtRp4204
(dp4205
g62
(dp4206
sg71
g4191
sg64
(lp4207
g57
(g58
g59
NtRp4208
(dp4209
g62
(dp4210
g70
I5
ssg71
g4204
sg64
(lp4211
g100
asbasbasbag57
(g73
g59
NtRp4212
(dp4213
g62
(dp4214
sg71
g3375
sg64
(lp4215
g57
(g78
g59
NtRp4216
(dp4217
g62
(dp4218
g82
g83
ssg71
g4212
sg64
(lp4219
S'session_storage_type'
p4220
asbag57
(g78
g59
NtRp4221
(dp4222
g62
(dp4223
g89
g90
ssg71
g4212
sg64
(lp4224
S':'
asbag57
(g78
g59
NtRp4225
(dp4226
g62
(dp4227
sg71
g4212
sg64
(lp4228
g57
(g58
g59
NtRp4229
(dp4230
g62
(dp4231
g70
I5
ssg71
g4225
sg64
(lp4232
g3269
asbasbasbag57
(g73
g59
NtRp4233
(dp4234
g62
(dp4235
sg71
g3375
sg64
(lp4236
g57
(g78
g59
NtRp4237
(dp4238
g62
(dp4239
g82
g83
ssg71
g4233
sg64
(lp4240
S'status'
p4241
asbag57
(g78
g59
NtRp4242
(dp4243
g62
(dp4244
g89
g90
ssg71
g4233
sg64
(lp4245
S':'
asbag57
(g78
g59
NtRp4246
(dp4247
g62
(dp4248
sg71
g4233
sg64
(lp4249
g57
(g58
g59
NtRp4250
(dp4251
g62
(dp4252
g70
I5
ssg71
g4246
sg64
(lp4253
S'200'
p4254
asbasbasbag57
(g73
g59
NtRp4255
(dp4256
g62
(dp4257
sg71
g3375
sg64
(lp4258
g57
(g78
g59
NtRp4259
(dp4260
g62
(dp4261
g82
g83
ssg71
g4255
sg64
(lp4262
S'subtitle'
p4263
asbag57
(g78
g59
NtRp4264
(dp4265
g62
(dp4266
g89
g90
ssg71
g4255
sg64
(lp4267
S':'
asbag57
(g78
g59
NtRp4268
(dp4269
g62
(dp4270
sg71
g4255
sg64
(lp4271
g57
(g58
g59
NtRp4272
(dp4273
g62
(dp4274
g70
I5
ssg71
g4268
sg64
(lp4275
cgluon.languages
lazyT_unpickle
p4276
(S's\x10\x00\x00\x00Rafael Soutelino'
tRp4277
asbasbasbag57
(g73
g59
NtRp4278
(dp4279
g62
(dp4280
sg71
g3375
sg64
(lp4281
g57
(g78
g59
NtRp4282
(dp4283
g62
(dp4284
g82
g83
ssg71
g4278
sg64
(lp4285
S'title'
p4286
asbag57
(g78
g59
NtRp4287
(dp4288
g62
(dp4289
g89
g90
ssg71
g4278
sg64
(lp4290
S':'
asbag57
(g78
g59
NtRp4291
(dp4292
g62
(dp4293
sg71
g4278
sg64
(lp4294
g57
(g58
g59
NtRp4295
(dp4296
g62
(dp4297
g70
I5
ssg71
g4291
sg64
(lp4298
S'Rafael Soutelino (under construction...)'
p4299
asbasbasbag57
(g73
g59
NtRp4300
(dp4301
g62
(dp4302
sg71
g3375
sg64
(lp4303
g57
(g78
g59
NtRp4304
(dp4305
g62
(dp4306
g82
g83
ssg71
g4300
sg64
(lp4307
S'view'
p4308
asbag57
(g78
g59
NtRp4309
(dp4310
g62
(dp4311
g89
g90
ssg71
g4300
sg64
(lp4312
S':'
asbag57
(g78
g59
NtRp4313
(dp4314
g62
(dp4315
sg71
g4300
sg64
(lp4316
g57
(g58
g59
NtRp4317
(dp4318
g62
(dp4319
g70
I5
ssg71
g4313
sg64
(lp4320
S'default/index.html'
p4321
asbasbasbasbasbsS'locals'
p4322
(dp4323
S'Service'
p4324
S"<class 'gluon.tools.Service'>"
p4325
sS'OBJECT'
p4326
S"<class 'gluon.html.OBJECT'>"
p4327
sS'track_changes'
p4328
S'<function track_changes>'
p4329
sS'SQLDB'
p4330
S"<class 'gluon.dal.DAL'>"
p4331
sg3313
S"<Storage {'_formkey[register]': '3b21d889-f689-4...login]': 'ba289430-e821-43fa-a88e-6caefba6cc78'}>"
p4332
sS'LINK'
p4333
S"<class 'gluon.html.LINK'>"
p4334
sS'BR'
p4335
S"<class 'gluon.html.BR'>"
p4336
sS'local_import'
p4337
S'<function <lambda>>'
p4338
sS'OPTGROUP'
p4339
S"<class 'gluon.html.OPTGROUP'>"
p4340
sS'__package__'
p4341
S'None'
p4342
sS'PRE'
p4343
S"<class 'gluon.html.PRE'>"
p4344
sS'IS_INT_IN_RANGE'
p4345
S"<class 'gluon.validators.IS_INT_IN_RANGE'>"
p4346
sS'IS_LOWER'
p4347
S"<class 'gluon.validators.IS_LOWER'>"
p4348
sS'IS_STRONG'
p4349
S"<class 'gluon.validators.IS_STRONG'>"
p4350
sS'cache'
p4351
S'<gluon.cache.Cache object>'
p4352
sS'IS_IN_DB'
p4353
S"<class 'gluon.validators.IS_IN_DB'>"
p4354
sS'TAG'
p4355
S'<gluon.html.__TAG__ object>'
p4356
sS'CRYPT'
p4357
S"<class 'gluon.validators.CRYPT'>"
p4358
sS'SQLField'
p4359
S"<class 'gluon.dal.Field'>"
p4360
sS'mail'
p4361
S'<applications.rsoutelino.modules.helpers.mail.Mailer object>'
p4362
sS'dbset'
p4363
S'<Set (user_address.user_id IS NULL)>'
p4364
sS'BODY'
p4365
S"<class 'gluon.html.BODY'>"
p4366
sS'IS_DATE_IN_RANGE'
p4367
S"<class 'gluon.validators.IS_DATE_IN_RANGE'>"
p4368
sS'IFRAME'
p4369
S"<class 'gluon.html.IFRAME'>"
p4370
sS'URL'
p4371
S'<function URL>'
p4372
sS'config'
p4373
S"<Storage {'mail': <Storage {'login': 'rsoutelino...se, 'registration_requires_approval': False}>}>}>"
p4374
sS'__file__'
p4375
S"'/home/rsoutelino/web2py/applications/rsoutelino/views/default/index.html'"
p4376
sS'db'
p4377
S'<DAL uri="sqlite://contacts.sqlite">'
p4378
sS'auth'
p4379
S'<gluon.tools.Auth object>'
p4380
sS'P'
S"<class 'gluon.html.P'>"
p4381
sS'TFOOT'
p4382
S"<class 'gluon.html.TFOOT'>"
p4383
sS'XHTML'
p4384
S"<class 'gluon.html.XHTML'>"
p4385
sS'ON'
p4386
g4190
sS'OL'
p4387
S"<class 'gluon.html.OL'>"
p4388
sS'TEXTAREA'
p4389
S"<class 'gluon.html.TEXTAREA'>"
p4390
sS'MENU'
p4391
S"<class 'gluon.html.MENU'>"
p4392
sS'IS_IMAGE'
p4393
S"<class 'gluon.validators.IS_IMAGE'>"
p4394
sS'EM'
p4395
S"<class 'gluon.html.EM'>"
p4396
sS'CODE'
p4397
S"<class 'gluon.html.CODE'>"
p4398
sS'HTTP'
p4399
S"<class 'gluon.http.HTTP'>"
p4400
sS'HR'
p4401
S"<class 'gluon.html.HR'>"
p4402
sS'IS_DATETIME'
p4403
S"<class 'gluon.validators.IS_DATETIME'>"
p4404
sS'Storage'
p4405
S"<class 'gluon.storage.Storage'>"
p4406
sS'STYLE'
p4407
S"<class 'gluon.html.STYLE'>"
p4408
sS'LABEL'
p4409
S"<class 'gluon.html.LABEL'>"
p4410
sS'CLEANUP'
p4411
S"<class 'gluon.validators.CLEANUP'>"
p4412
sS'SELECT'
p4413
S"<class 'gluon.html.SELECT'>"
p4414
sS'CENTER'
p4415
S"<class 'gluon.html.CENTER'>"
p4416
sS'private_service'
p4417
S'<gluon.tools.Service object>'
p4418
sS'Auth'
p4419
S"<class 'gluon.tools.Auth'>"
p4420
sS'current'
p4421
S'<thread._local object>'
p4422
sS'__builtins__'
p4423
S"{'ArithmeticError': <type 'exceptions.ArithmeticError'>, 'AssertionError': <type 'exceptions.AssertionError'>, 'AttributeError': <type 'exceptions.AttributeError'>, 'BaseException': <type 'exceptions.BaseException'>, 'BufferError': <type 'exceptions.BufferError'>, 'BytesWarning': <type 'exceptions.BytesWarning'>, 'DeprecationWarning': <type 'exceptions.DeprecationWarning'>, 'EOFError': <type 'exceptions.EOFError'>, 'Ellipsis': Ellipsis, 'EnvironmentError': <type 'exceptions.EnvironmentError'>, ...}"
p4424
sS'HTML'
p4425
S"<class 'gluon.html.HTML'>"
p4426
sS'SQLFORM'
p4427
S"<class 'gluon.sqlhtml.SQLFORM'>"
p4428
sS'NOT_STARTS_WITH'
p4429
S"<class '__restricted__.NOT_STARTS_WITH'>"
p4430
sS'LOAD'
p4431
S'<function LOAD>'
p4432
sS'redirect'
p4433
S'<function redirect>'
p4434
sS'FIELDSET'
p4435
S"<class 'gluon.html.FIELDSET'>"
p4436
sS'IS_EQUAL_TO'
p4437
S"<class 'gluon.validators.IS_EQUAL_TO'>"
p4438
sS'embed64'
p4439
S'<function embed64>'
p4440
sS'IS_LIST_OF'
p4441
S"<class 'gluon.validators.IS_LIST_OF'>"
p4442
sS'INPUT'
p4443
S"<class 'gluon.html.INPUT'>"
p4444
sS'EMBED'
p4445
S"<class 'gluon.html.EMBED'>"
p4446
sS'Comment'
p4447
S'<Table coment (id,id_coment,coment)>'
p4448
sS'H2'
p4449
S"<class 'gluon.html.H2'>"
p4450
sS'H3'
p4451
S"<class 'gluon.html.H3'>"
p4452
sS'BUTTON'
p4453
S"<class 'gluon.html.BUTTON'>"
p4454
sS'H1'
p4455
S"<class 'gluon.html.H1'>"
p4456
sS'H6'
p4457
S"<class 'gluon.html.H6'>"
p4458
sS'H4'
p4459
S"<class 'gluon.html.H4'>"
p4460
sS'H5'
p4461
S"<class 'gluon.html.H5'>"
p4462
sS'UL'
p4463
S"<class 'gluon.html.UL'>"
p4464
sS'IS_UPPER'
p4465
S"<class 'gluon.validators.IS_UPPER'>"
p4466
sS'xmlescape'
p4467
S'<function xmlescape>'
p4468
sS'IS_TIME'
p4469
S"<class 'gluon.validators.IS_TIME'>"
p4470
sS'OPTION'
p4471
S"<class 'gluon.html.OPTION'>"
p4472
sS'TITLE'
p4473
S"<class 'gluon.html.TITLE'>"
p4474
sS'Pictures'
p4475
S'<Table pictures (id,thumb,foto)>'
p4476
sS'IS_EMPTY_OR'
p4477
S"<class 'gluon.validators.IS_EMPTY_OR'>"
p4478
sS'MARKMIN'
p4479
S"<class 'gluon.html.MARKMIN'>"
p4480
sS'__name__'
p4481
S"'__restricted__'"
p4482
sS'STRONG'
p4483
S"<class 'gluon.html.STRONG'>"
p4484
sS'COL'
p4485
S"<class 'gluon.html.COL'>"
p4486
sS'UserAddress'
p4487
S'<Table user_address (id,user_id,zip_code,country...ncy,city,address_type,address,home_number,extra)>'
p4488
sS'service'
p4489
S'<gluon.tools.Service object>'
p4490
sS'SCRIPT'
p4491
S"<class 'gluon.html.SCRIPT'>"
p4492
sS'TABLE'
p4493
S"<class 'gluon.html.TABLE'>"
p4494
sS'IS_IPV4'
p4495
S"<class 'gluon.validators.IS_IPV4'>"
p4496
sS'IS_LENGTH'
p4497
S"<class 'gluon.validators.IS_LENGTH'>"
p4498
sS'XML'
p4499
S"<class 'gluon.html.XML'>"
p4500
sS'B'
S"<class 'gluon.html.B'>"
p4501
sS'IMG'
p4502
S"<class 'gluon.html.IMG'>"
p4503
sS'SQLTABLE'
p4504
S"<class 'gluon.sqlhtml.SQLTABLE'>"
p4505
sS'IS_MATCH'
p4506
S"<class 'gluon.validators.IS_MATCH'>"
p4507
sS'IS_ALPHANUMERIC'
p4508
S"<class 'gluon.validators.IS_ALPHANUMERIC'>"
p4509
sS'Contacts'
p4510
S'<Table contacts (id,name,email,tel,adress,commentary)>'
p4511
sS'SPAN'
p4512
S"<class 'gluon.html.SPAN'>"
p4513
sS'IS_SLUG'
p4514
S"<class 'gluon.validators.IS_SLUG'>"
p4515
sS'BEAUTIFY'
p4516
S"<class 'gluon.html.BEAUTIFY'>"
p4517
sS'META'
p4518
S"<class 'gluon.html.META'>"
p4519
sS'IS_DATE'
p4520
S"<class 'gluon.validators.IS_DATE'>"
p4521
sS'IS_EMAIL'
p4522
S"<class 'gluon.validators.IS_EMAIL'>"
p4523
sS'IS_NOT_EMPTY'
p4524
S"<class 'gluon.validators.IS_NOT_EMPTY'>"
p4525
sS'IS_FLOAT_IN_RANGE'
p4526
S"<class 'gluon.validators.IS_FLOAT_IN_RANGE'>"
p4527
sS'TBODY'
p4528
S"<class 'gluon.html.TBODY'>"
p4529
sS'CAT'
p4530
S"<class 'gluon.html.CAT'>"
p4531
sS'Field'
p4532
S"<class 'gluon.dal.Field'>"
p4533
sS'DIV'
p4534
S"<class 'gluon.html.DIV'>"
p4535
sS'LEGEND'
p4536
S"<class 'gluon.html.LEGEND'>"
p4537
sS'Mailer'
p4538
S"<class 'applications.rsoutelino.modules.helpers.mail.Mailer'>"
p4539
sS'COLGROUP'
p4540
S"<class 'gluon.html.COLGROUP'>"
p4541
sS'DAL'
p4542
S"<class 'gluon.dal.DAL'>"
p4543
sS'TT'
p4544
S"<class 'gluon.html.TT'>"
p4545
sS'TR'
p4546
S"<class 'gluon.html.TR'>"
p4547
sS'LI'
p4548
S"<class 'gluon.html.LI'>"
p4549
sS'TH'
p4550
S"<class 'gluon.html.TH'>"
p4551
sS'TD'
p4552
S"<class 'gluon.html.TD'>"
p4553
sS'IS_URL'
p4554
S"<class 'gluon.validators.IS_URL'>"
p4555
sS'A'
S"<class 'gluon.html.A'>"
p4556
sS'HEAD'
p4557
S"<class 'gluon.html.HEAD'>"
p4558
sS'IS_DATETIME_IN_RANGE'
p4559
S"<class 'gluon.validators.IS_DATETIME_IN_RANGE'>"
p4560
sS'FORM'
p4561
S"<class 'gluon.html.FORM'>"
p4562
sS'I'
S"<class 'gluon.html.I'>"
p4563
sS'IS_NOT_IN_DB'
p4564
S"<class 'gluon.validators.IS_NOT_IN_DB'>"
p4565
sg3370
S"<Storage {'body': <cStringIO.StringO object at 0...da> at 0x3e90848>, 'view': 'default/index.html'}>"
p4566
sS'THEAD'
p4567
S"<class 'gluon.html.THEAD'>"
p4568
sS'IS_NULL_OR'
p4569
S"<class 'gluon.validators.IS_EMPTY_OR'>"
p4570
sg56
S"<Storage {'function': 'index', 'body': <cStringI...cations/rsoutelino/', 'post_vars': <Storage {}>}>"
p4571
sS'IS_EXPR'
p4572
S"<class 'gluon.validators.IS_EXPR'>"
p4573
sS'T'
S'<gluon.languages.translator object>'
p4574
sS'IS_IN_SET'
p4575
S"<class 'gluon.validators.IS_IN_SET'>"
p4576
sS'IS_UPLOAD_FILENAME'
p4577
S"<class 'gluon.validators.IS_UPLOAD_FILENAME'>"
p4578
sS'IS_DECIMAL_IN_RANGE'
p4579
S"<class 'gluon.validators.IS_DECIMAL_IN_RANGE'>"
p4580
sssS'traceback'
p4581
S'Traceback (most recent call last):\n  File "/home/rsoutelino/web2py/gluon/restricted.py", line 212, in restricted\n    exec ccode in environment\n  File "/home/rsoutelino/web2py/applications/rsoutelino/views/default/index.html", line 2, in <module>\n    <html xmlns="http://www.w3.org/1999/xhtml" lang="en">\nAttributeError: \'NoneType\' object has no attribute \'append\'\n'
p4582
s.