(dp1
S'output'
p2
S"<type 'exceptions.SyntaxError'> invalid syntax (index.html, line 4)"
p3
sS'layer'
p4
S'/home/rsoutelino/web2py/applications/rsoutelino/views/default/index.html'
p5
sS'code'
p6
S'response.write(\'    \', escape=False)\nresponse.write(\'<!DOCTYPE html PUBLIC "-//W3C//DTD XHTML 1.0 Strict//EN" "http://www.w3.org/TR/xhtml1/DTD/xhtml1-strict.dtd">\\n<html xmlns="http://www.w3.org/1999/xhtml" lang="en">\\n\\n\\n<!--  Version: Multiflex-5.4 / Overview                     -->\\n<!--  Type:    Design with sidebar                          -->\\n<!--  Date:    March 13, 2008                               -->\\n<!--  Design:  www.1234.info                                -->\\n<!--  License: Fully open source without restrictions.      -->\\n<!--           Please keep footer credits with the words    -->\\n<!--           "Design by 1234.info". Thank you!            -->\\n\\n<head>\\n  <meta http-equiv="content-type" content="text/html; charset=utf-8" />\\n  <meta http-equiv="cache-control" content="no-cache" />\\n  <meta http-equiv="expires" content="3600" />\\n  <meta name="revisit-after" content="2 days" />\\n  <meta name="robots" content="index,follow" />\\n  <meta name="publisher" content="Your publisher infos here" />\\n  <meta name="copyright" content="Your copyright infos here" />\\n  <meta name="author" content="Designed by www.1234.info / Modified: Rafael Soutelino" />\\n  <meta name="distribution" content="global" />\\n  <meta name="description" content="Your container description here" />\\n  <meta name="keywords" content="Your keywords, keywords, keywords, here" />\\n  \', escape=False)\nresponse.write(response.files.append(URL(\'static\', \'/mf/css/reset.css\'))\nresponse.files.append(URL("static", "/mf/css/grid.css"))\nresponse.files.append(URL("static", "/mf/css/content.css")))\nresponse.write(\'\\n  <link rel="icon" type="image/x-icon" href="./img/favicon.ico" />\\n  <title>\', escape=False)\nresponse.write(response.title)\nresponse.write(\'</title>\\n</head>\\n\\n<!-- Global IE fix to avoid layout crash when single word size wider than column width -->\\n<!-- Following line MUST remain as a comment to have the proper effect -->\\n<!--[if IE]><style type="text/css"> body {word-wrap: break-word;}</style><![endif]-->\\n\\n<body>\\n  <!-- CONTAINER FOR ENTIRE PAGE -->\\n  <div class="container">\\n\\n    <!-- A. HEADER -->\\n    <div class="corner-page-top"></div>\\n    <div class="header">\\n      <div class="header-top">\\n\\n        <!-- A.1 SITENAME -->\\n        <a class="sitelogo" href="index.html" title="Home"></a>\\n        <div class="sitename">\\n          <h1><a href="index.html" title="Home">Rafael G. Soutelino</a></h1>\\n          <h2>Academic Website</h2>\\n        </div>\\n\\n        <!-- A.2 BUTTON NAVIGATION -->\\n        <div class="navbutton">\\n          <ul>\\n            <li><a href="#" title="English"><img src="./img/icon_flag_us.gif" alt="Flag" /></a></li>\\n            <li><a href="#" title="Deutsch"><img src="./img/icon_flag_de.gif" alt="Flag" /></a></li>\\n            <li><a href="#" title="Svenska"><img src="./img/icon_flag_se.gif" alt="Flag" /></a></li>\\n            <li><a href="#" title="RSS"><img src="./img/icon_rss.gif" alt="RSS-Button" /></a></li>\\n          </ul>\\n        </div>\\n\\n        <!-- A.3 GLOBAL NAVIGATION -->\\n        <div class="navglobal">\\n          <ul>\\n            <li><a href="#" title="">About</a></li>\\n            <li><a href="#" title="">Contact</a></li>\\n            <li><a href="#" title="">Sitemap</a></li>\\n            <li><a href="#" title="">Links</a></li>\\n          </ul>\\n        </div>\\n      </div>\\n\\n      <!-- A.4 BREADCRUMB and SEARCHFORM -->\\n      <div class="header-bottom">\\n\\n        <!-- Breadcrumb -->\\n        <ul>\\n          <li class="nobullet">You are here:&nbsp;</li>\\n          <li><a href="#">Home</a></li>\\n          <li><a href="#">Page</a></li>\\n          <li><a href="#">Sub-Page</a></li>\\n          <li><a href="#">Sub-Sub-Page</a></li>\\n        </ul>\\n\\n        <!-- Search form -->\\n        <div class="searchform">\\n          <form action="index.html" method="get">\\n            <fieldset>\\n              <input name="field" class="field"  value=" Enter search word ..." />\\n              <input type="submit" name="button" class="button" value="Search" />\\n            </fieldset>\\n          </form>\\n        </div>\\n      </div>\\n    </div>\\n    <div class="corner-page-bottom"></div>\\n\\n    <!-- B. NAVIGATION BAR -->\\n    <div class="corner-page-top"></div>\\n    <div class="navbar">\\n\\n      <!-- Navigation item -->\\n      <ul>\\n        <li><a href="index.html">Home</a></li>\\n      </ul>\\n      <!-- Navigation item -->\\n      <ul>\\n        <li><a href="publications.html">Publications</a></li>\\n      </ul>\\n      <!-- Navigation item -->\\n      <ul>\\n        <li><a href="#">Links<!--[if IE 7]><!--></a><!--<![endif]-->\\n          <!--[if lte IE 6]><table><tr><td><![endif]-->\\n            <ul>\\n              <li><a href="mf54_grid.html">Useful meteorological and oceanographic links</a></li>\\n              <li><a href="mf54_grid_nosidebar.html">Useful websites</a></li>\\n            </ul>\\n          <!--[if lte IE 6]></td></tr></table></a><![endif]-->\\n        </li>\\n      </ul>\\n\\n    </div>\\n\\n\', escape=False)\nresponse.write(\'\\n\\n    <!-- C. MAIN SECTION -->\\n    <div class="main">\\n      <h1 class="pagetitle">Home</h1>\\n\\n      <!-- C.1 CONTENT -->\\n      <div class="content">\\n\\n\\n<!-- ************************************************************************************************** -->\\n<!-- ************************************************************************************************** -->\\n<!-- **                                                                                              ** -->\\n<!-- **  1. CONTENT GRID (1-COLUMN)                                                                  ** -->\\n<!-- **                                                                                              ** -->\\n<!-- ************************************************************************************************** -->\\n<!-- ************************************************************************************************** -->\\n\\n\\n        <!-- CONTENT CELL -->\\n        <a id="anchor-grid-101"></a>\\n        <div class="corner-content-1col-top"></div>\\n        <div class="content-1col-nobox">\\n          <h1>Education</h1>\\n          <h2>Ph.D. in Physical Oceanography</h2>\\n          <p class="demo">Institution: Oceanographic Institute of the University of S\\xc3\\xa3o Paulo (IO-USP)\\n                         <br />\\n                         Advisor: Ilson C. A. da Silveira - IO-USP\\n                         <br />\\n                         Co-Advisor: Avijit Gangopadhyay - SMAST-UMassD\\n                         <br />\\n                         Dissertation: On the dynamics of the Brazil Current site of origin: PDF</p>\\n          <h2>M.Sc. in Physical Oceanography</h2>\\n          <p class="demo">Institution: Oceanographic Institute of the University of S\\xc3\\xa3o Paulo.\\n                         <br />\\n                         Advisor: Ilson C. A. da Silveira - IO-USP\\n                         <br />\\n                         Thesis: A Origem da Corrente do Brasil: PDF</p>\\n          <h2>B.Sc. in Oceanography</h2>\\n          <p class="demo">Institution: University of the state of Rio de Janeiro - UERJ.\\n                         <br />\\n                         Advisor: Ilson C. A. da Silveira - IO-USP\\n                         <br />\\n                         Co-Advisor: Luiz Carlos F. da Silva - UERJ\\n                         <br />\\n                         Thesis: Caracteriza\\xc3\\xa7\\xc3\\xa3o da estrutura barocl\\xc3\\xadnica do sistema de\\n                                       correntes de contorno oeste ao largo da costa leste\\n                                       brasileira: PDF</p>\\n        </div>\\n        <div class="corner-content-1col-bottom"></div>\\n\\n\\n        <!-- CONTENT CELL -->\\n        <div class="corner-content-1col-top"></div>\\n        <div class="content-1col-nobox">\\n          <h1>Research Interests</h1>\\n            <p class="demo">Write my research interests here!!!!  </p>\\n        </div>\\n        <div class="corner-content-1col-bottom"></div>\\n\\n      </div>\\n\\n\\n<!-- ************************************************************************************************** -->\\n<!-- ************************************************************************************************** -->\\n<!-- **                                                                                              ** -->\\n<!-- **  4. SUBCONTENT GRID                                                                          ** -->\\n<!-- **                                                                                              ** -->\\n<!-- ************************************************************************************************** -->\\n<!-- ************************************************************************************************** -->\\n\\n\\n      <!-- C.2 SUBCONTENT -->\\n      <a id="anchor-grid-401"></a>\\n      <div class="subcontent">\\n\\n<!-- ************************************************************************************************** -->\\n<!-- **   4-05. IMAGE                                                                                ** -->\\n<!-- ************************************************************************************************** -->\\n\\n        <!-- SUBCONTENT CELL -->\\n        <a id="anchor-image-4"></a>\\n        <div class="corner-subcontent-top"></div>\\n        <div class="subcontent-box">\\n          <h1>About Me</h1>\\n          <!-- <h2>Title heading (above image)</h2> -->\\n          <!-- <h3>Heading h3</h3> -->\\n          <!-- <h6>Heading h6</h6>                     -->\\n          <p><img src="./img/soutelino.jpg" alt="Image description" title="Image title" />I\\\'m a Physical Oceanographer working as a research fellow at IEAPM. I\\\'ve got my\\n                          Oceanographer B.Sc. degree at UERJ and my master\\\'s and Ph.D. degrees at\\n                          IO-USP, being the later in collaboration with SMAST-UMassD.</p>\\n          <p><img class="center" src="./img/image.jpg" alt="Image description" title="Image title" /></p>\\n          <h3>Heading h3</h3>\\n          <h6>Heading h6</h6>\\n        </div>\\n        <div class="corner-subcontent-bottom"></div>\\n\\n\\n      </div>\\n    </div>\\n\', escape=False)\nresponse.write(\'\\n\\n<!-- ************************************************************************************************** -->\\n<!-- ************************************************************************************************** -->\\n<!-- *********************************   END OF CONTENT   ********************************************* -->\\n<!-- ************************************************************************************************** -->\\n<!-- ************************************************************************************************** -->\\n\\n\\n    <!-- D. FOOTER -->\\n    <div class="footer">\\n      <p>Copyright &copy; 2012 Rafael G. Soutelino&nbsp;&nbsp;|&nbsp;&nbsp;All Rights Reserved</p>\\n      <p class="credits">Design by <a href="http://1234.info/" title="Designer Homepage">1234.info</a> | Modified by <a href="#" title="Modifyer Homepage">Rafael Soutelino</a> | Powered by <a href="#" title="CMS Homepage">Your CMS</a> | Media Player by <a href="http://www.jeroenwijering.com" title="Media Player Credits">Jeroen Wijering</a>  | <a href="http://validator.w3.org/check?uri=referer" title="Validate XHTML code">XHTML 1.0</a> | <a href="http://jigsaw.w3.org/css-validator/" title="Validate CSS code">CSS 2.0</a></p>\\n    </div>\\n    <div class="corner-page-bottom"></div>\\n  </div>\\n\\n</body>\\n</html>\\n\\n\', escape=False)'
p7
sS'snapshot'
p8
(dp9
S'exception'
p10
(dp11
S'__getslice__'
p12
S"<method-wrapper '__getslice__' of exceptions.SyntaxError object>"
p13
sS'text'
p14
S'\'response.files.append(URL("static", "/mf/css/grid.css"))\\n\''
p15
sS'__str__'
p16
S"<method-wrapper '__str__' of exceptions.SyntaxError object>"
p17
sS'__reduce__'
p18
S'<built-in method __reduce__ of exceptions.SyntaxError object>'
p19
sS'__dict__'
p20
S'{}'
p21
sS'__sizeof__'
p22
S'<built-in method __sizeof__ of exceptions.SyntaxError object>'
p23
sS'__init__'
p24
S"<method-wrapper '__init__' of exceptions.SyntaxError object>"
p25
sS'__setattr__'
p26
S"<method-wrapper '__setattr__' of exceptions.SyntaxError object>"
p27
sS'__reduce_ex__'
p28
S'<built-in method __reduce_ex__ of exceptions.SyntaxError object>'
p29
sS'__new__'
p30
S'<built-in method __new__ of type object>'
p31
sS'__format__'
p32
S'<built-in method __format__ of exceptions.SyntaxError object>'
p33
sS'__class__'
p34
S"<type 'exceptions.SyntaxError'>"
p35
sS'filename'
p36
S"'/home/rsoutelino/web2py/applications/rsoutelino/views/default/index.html'"
p37
sS'lineno'
p38
S'4'
sS'msg'
p39
S"'invalid syntax'"
p40
sS'__doc__'
p41
S"'Invalid syntax.'"
p42
sS'__getitem__'
p43
S"<method-wrapper '__getitem__' of exceptions.SyntaxError object>"
p44
sS'__setstate__'
p45
S'<built-in method __setstate__ of exceptions.SyntaxError object>'
p46
sS'__getattribute__'
p47
S"<method-wrapper '__getattribute__' of exceptions.SyntaxError object>"
p48
sS'print_file_and_line'
p49
S'None'
p50
sS'args'
p51
S'(\'invalid syntax\', (\'/home/rsoutelino/web2py/applications/rsoutelino/views/default/index.html\', 4, 8, \'response.files.append(URL("static", "/mf/css/grid.css"))\\n\'))'
p52
sS'__subclasshook__'
p53
S'<built-in method __subclasshook__ of type object>'
p54
sS'offset'
p55
S'8'
sS'__unicode__'
p56
S'<built-in method __unicode__ of exceptions.SyntaxError object>'
p57
sS'__delattr__'
p58
S"<method-wrapper '__delattr__' of exceptions.SyntaxError object>"
p59
sS'__repr__'
p60
S"<method-wrapper '__repr__' of exceptions.SyntaxError object>"
p61
sS'__hash__'
p62
S"<method-wrapper '__hash__' of exceptions.SyntaxError object>"
p63
ssS'evalue'
p64
S'invalid syntax (index.html, line 4)'
p65
sS'request'
p66
ccopy_reg
_reconstructor
p67
(cgluon.html
BEAUTIFY
p68
c__builtin__
object
p69
NtRp70
(dp71
S'attributes'
p72
(dp73
sS'components'
p74
(lp75
g67
(cgluon.html
TABLE
p76
g69
NtRp77
(dp78
g72
(dp79
S'level'
p80
I5
ssS'parent'
p81
Nsg74
(lp82
g67
(cgluon.html
TR
p83
g69
NtRp84
(dp85
g72
(dp86
sg81
g77
sg74
(lp87
g67
(cgluon.html
TD
p88
g69
NtRp89
(dp90
g72
(dp91
S'_style'
p92
S'font-weight:bold;vertical-align:top'
p93
ssg81
g84
sg74
(lp94
S'ajax'
p95
asbag67
(g88
g69
NtRp96
(dp97
g72
(dp98
S'_valign'
p99
S'top'
p100
ssg81
g84
sg74
(lp101
S':'
asbag67
(g88
g69
NtRp102
(dp103
g72
(dp104
sg81
g84
sg74
(lp105
g67
(g68
g69
NtRp106
(dp107
g72
(dp108
g80
I5
ssg81
g102
sg74
(lp109
S'False'
p110
asbasbasbag67
(g83
g69
NtRp111
(dp112
g72
(dp113
sg81
g77
sg74
(lp114
g67
(g88
g69
NtRp115
(dp116
g72
(dp117
g92
g93
ssg81
g111
sg74
(lp118
S'application'
p119
asbag67
(g88
g69
NtRp120
(dp121
g72
(dp122
g99
g100
ssg81
g111
sg74
(lp123
S':'
asbag67
(g88
g69
NtRp124
(dp125
g72
(dp126
sg81
g111
sg74
(lp127
g67
(g68
g69
NtRp128
(dp129
g72
(dp130
g80
I5
ssg81
g124
sg74
(lp131
S'rsoutelino'
p132
asbasbasbag67
(g83
g69
NtRp133
(dp134
g72
(dp135
sg81
g77
sg74
(lp136
g67
(g88
g69
NtRp137
(dp138
g72
(dp139
g92
g93
ssg81
g133
sg74
(lp140
g51
asbag67
(g88
g69
NtRp141
(dp142
g72
(dp143
g99
g100
ssg81
g133
sg74
(lp144
S':'
asbag67
(g88
g69
NtRp145
(dp146
g72
(dp147
sg81
g133
sg74
(lp148
g67
(g68
g69
NtRp149
(dp150
g72
(dp151
g80
I5
ssg81
g145
sg74
(lp152
g67
(g76
g69
NtRp153
(dp154
g72
(dp155
g80
I4
ssg81
Nsg74
(lp156
sbasbasbasbag67
(g83
g69
NtRp157
(dp158
g72
(dp159
sg81
g77
sg74
(lp160
g67
(g88
g69
NtRp161
(dp162
g72
(dp163
g92
g93
ssg81
g157
sg74
(lp164
S'body'
p165
asbag67
(g88
g69
NtRp166
(dp167
g72
(dp168
g99
g100
ssg81
g157
sg74
(lp169
S':'
asbag67
(g88
g69
NtRp170
(dp171
g72
(dp172
sg81
g157
sg74
(lp173
g67
(g68
g69
NtRp174
(dp175
g72
(dp176
g80
I5
ssg81
g170
sg74
(lp177
S'<cStringIO.StringO object at 0x1fc34c8>'
p178
asbasbasbag67
(g83
g69
NtRp179
(dp180
g72
(dp181
sg81
g77
sg74
(lp182
g67
(g88
g69
NtRp183
(dp184
g72
(dp185
g92
g93
ssg81
g179
sg74
(lp186
S'cid'
p187
asbag67
(g88
g69
NtRp188
(dp189
g72
(dp190
g99
g100
ssg81
g179
sg74
(lp191
S':'
asbag67
(g88
g69
NtRp192
(dp193
g72
(dp194
sg81
g179
sg74
(lp195
g67
(g68
g69
NtRp196
(dp197
g72
(dp198
g80
I5
ssg81
g192
sg74
(lp199
S'None'
p200
asbasbasbag67
(g83
g69
NtRp201
(dp202
g72
(dp203
sg81
g77
sg74
(lp204
g67
(g88
g69
NtRp205
(dp206
g72
(dp207
g92
g93
ssg81
g201
sg74
(lp208
S'client'
p209
asbag67
(g88
g69
NtRp210
(dp211
g72
(dp212
g99
g100
ssg81
g201
sg74
(lp213
S':'
asbag67
(g88
g69
NtRp214
(dp215
g72
(dp216
sg81
g201
sg74
(lp217
g67
(g68
g69
NtRp218
(dp219
g72
(dp220
g80
I5
ssg81
g214
sg74
(lp221
S'177.61.67.104'
p222
asbasbasbag67
(g83
g69
NtRp223
(dp224
g72
(dp225
sg81
g77
sg74
(lp226
g67
(g88
g69
NtRp227
(dp228
g72
(dp229
g92
g93
ssg81
g223
sg74
(lp230
S'controller'
p231
asbag67
(g88
g69
NtRp232
(dp233
g72
(dp234
g99
g100
ssg81
g223
sg74
(lp235
S':'
asbag67
(g88
g69
NtRp236
(dp237
g72
(dp238
sg81
g223
sg74
(lp239
g67
(g68
g69
NtRp240
(dp241
g72
(dp242
g80
I5
ssg81
g236
sg74
(lp243
S'default'
p244
asbasbasbag67
(g83
g69
NtRp245
(dp246
g72
(dp247
sg81
g77
sg74
(lp248
g67
(g88
g69
NtRp249
(dp250
g72
(dp251
g92
g93
ssg81
g245
sg74
(lp252
S'cookies'
p253
asbag67
(g88
g69
NtRp254
(dp255
g72
(dp256
g99
g100
ssg81
g245
sg74
(lp257
S':'
asbag67
(g88
g69
NtRp258
(dp259
g72
(dp260
sg81
g245
sg74
(lp261
g67
(g68
g69
NtRp262
(dp263
g72
(dp264
g80
I5
ssg81
g258
sg74
(lp265
g67
(g76
g69
NtRp266
(dp267
g72
(dp268
g80
I4
ssg81
Nsg74
(lp269
g67
(g83
g69
NtRp270
(dp271
g72
(dp272
sg81
g266
sg74
(lp273
g67
(g88
g69
NtRp274
(dp275
g72
(dp276
g92
g93
ssg81
g270
sg74
(lp277
S'session_id_admin'
p278
asbag67
(g88
g69
NtRp279
(dp280
g72
(dp281
g99
g100
ssg81
g270
sg74
(lp282
S':'
asbag67
(g88
g69
NtRp283
(dp284
g72
(dp285
sg81
g270
sg74
(lp286
g67
(g68
g69
NtRp287
(dp288
g72
(dp289
g80
I4
ssg81
g283
sg74
(lp290
S'177.61.67.104-0d9fadca-8233-4ebe-908b-e5697439d12f'
p291
ag67
(g76
g69
NtRp292
(dp293
g72
(dp294
g80
I3
ssg81
Nsg74
(lp295
g67
(g83
g69
NtRp296
(dp297
g72
(dp298
sg81
g292
sg74
(lp299
g67
(g88
g69
NtRp300
(dp301
g72
(dp302
g92
g93
ssg81
g296
sg74
(lp303
S'comment'
p304
asbag67
(g88
g69
NtRp305
(dp306
g72
(dp307
g99
g100
ssg81
g296
sg74
(lp308
S':'
asbag67
(g88
g69
NtRp309
(dp310
g72
(dp311
sg81
g296
sg74
(lp312
g67
(g68
g69
NtRp313
(dp314
g72
(dp315
g80
I3
ssg81
g309
sg74
(lp316
S''
asbasbasbag67
(g83
g69
NtRp317
(dp318
g72
(dp319
sg81
g292
sg74
(lp320
g67
(g88
g69
NtRp321
(dp322
g72
(dp323
g92
g93
ssg81
g317
sg74
(lp324
S'domain'
p325
asbag67
(g88
g69
NtRp326
(dp327
g72
(dp328
g99
g100
ssg81
g317
sg74
(lp329
S':'
asbag67
(g88
g69
NtRp330
(dp331
g72
(dp332
sg81
g317
sg74
(lp333
g67
(g68
g69
NtRp334
(dp335
g72
(dp336
g80
I3
ssg81
g330
sg74
(lp337
S''
asbasbasbag67
(g83
g69
NtRp338
(dp339
g72
(dp340
sg81
g292
sg74
(lp341
g67
(g88
g69
NtRp342
(dp343
g72
(dp344
g92
g93
ssg81
g338
sg74
(lp345
S'expires'
p346
asbag67
(g88
g69
NtRp347
(dp348
g72
(dp349
g99
g100
ssg81
g338
sg74
(lp350
S':'
asbag67
(g88
g69
NtRp351
(dp352
g72
(dp353
sg81
g338
sg74
(lp354
g67
(g68
g69
NtRp355
(dp356
g72
(dp357
g80
I3
ssg81
g351
sg74
(lp358
S''
asbasbasbag67
(g83
g69
NtRp359
(dp360
g72
(dp361
sg81
g292
sg74
(lp362
g67
(g88
g69
NtRp363
(dp364
g72
(dp365
g92
g93
ssg81
g359
sg74
(lp366
S'httponly'
p367
asbag67
(g88
g69
NtRp368
(dp369
g72
(dp370
g99
g100
ssg81
g359
sg74
(lp371
S':'
asbag67
(g88
g69
NtRp372
(dp373
g72
(dp374
sg81
g359
sg74
(lp375
g67
(g68
g69
NtRp376
(dp377
g72
(dp378
g80
I3
ssg81
g372
sg74
(lp379
S''
asbasbasbag67
(g83
g69
NtRp380
(dp381
g72
(dp382
sg81
g292
sg74
(lp383
g67
(g88
g69
NtRp384
(dp385
g72
(dp386
g92
g93
ssg81
g380
sg74
(lp387
S'max-age'
p388
asbag67
(g88
g69
NtRp389
(dp390
g72
(dp391
g99
g100
ssg81
g380
sg74
(lp392
S':'
asbag67
(g88
g69
NtRp393
(dp394
g72
(dp395
sg81
g380
sg74
(lp396
g67
(g68
g69
NtRp397
(dp398
g72
(dp399
g80
I3
ssg81
g393
sg74
(lp400
S''
asbasbasbag67
(g83
g69
NtRp401
(dp402
g72
(dp403
sg81
g292
sg74
(lp404
g67
(g88
g69
NtRp405
(dp406
g72
(dp407
g92
g93
ssg81
g401
sg74
(lp408
S'path'
p409
asbag67
(g88
g69
NtRp410
(dp411
g72
(dp412
g99
g100
ssg81
g401
sg74
(lp413
S':'
asbag67
(g88
g69
NtRp414
(dp415
g72
(dp416
sg81
g401
sg74
(lp417
g67
(g68
g69
NtRp418
(dp419
g72
(dp420
g80
I3
ssg81
g414
sg74
(lp421
S''
asbasbasbag67
(g83
g69
NtRp422
(dp423
g72
(dp424
sg81
g292
sg74
(lp425
g67
(g88
g69
NtRp426
(dp427
g72
(dp428
g92
g93
ssg81
g422
sg74
(lp429
S'secure'
p430
asbag67
(g88
g69
NtRp431
(dp432
g72
(dp433
g99
g100
ssg81
g422
sg74
(lp434
S':'
asbag67
(g88
g69
NtRp435
(dp436
g72
(dp437
sg81
g422
sg74
(lp438
g67
(g68
g69
NtRp439
(dp440
g72
(dp441
g80
I3
ssg81
g435
sg74
(lp442
S''
asbasbasbag67
(g83
g69
NtRp443
(dp444
g72
(dp445
sg81
g292
sg74
(lp446
g67
(g88
g69
NtRp447
(dp448
g72
(dp449
g92
g93
ssg81
g443
sg74
(lp450
S'version'
p451
asbag67
(g88
g69
NtRp452
(dp453
g72
(dp454
g99
g100
ssg81
g443
sg74
(lp455
S':'
asbag67
(g88
g69
NtRp456
(dp457
g72
(dp458
sg81
g443
sg74
(lp459
g67
(g68
g69
NtRp460
(dp461
g72
(dp462
g80
I3
ssg81
g456
sg74
(lp463
S''
asbasbasbasbasbasbasbag67
(g83
g69
NtRp464
(dp465
g72
(dp466
sg81
g266
sg74
(lp467
g67
(g88
g69
NtRp468
(dp469
g72
(dp470
g92
g93
ssg81
g464
sg74
(lp471
S'session_id_rsoutelino'
p472
asbag67
(g88
g69
NtRp473
(dp474
g72
(dp475
g99
g100
ssg81
g464
sg74
(lp476
S':'
asbag67
(g88
g69
NtRp477
(dp478
g72
(dp479
sg81
g464
sg74
(lp480
g67
(g68
g69
NtRp481
(dp482
g72
(dp483
g80
I4
ssg81
g477
sg74
(lp484
S'177.162.249.173-367d9431-619b-4299-9fd0-6014b0e3ef85'
p485
ag67
(g76
g69
NtRp486
(dp487
g72
(dp488
g80
I3
ssg81
Nsg74
(lp489
g67
(g83
g69
NtRp490
(dp491
g72
(dp492
sg81
g486
sg74
(lp493
g67
(g88
g69
NtRp494
(dp495
g72
(dp496
g92
g93
ssg81
g490
sg74
(lp497
g304
asbag67
(g88
g69
NtRp498
(dp499
g72
(dp500
g99
g100
ssg81
g490
sg74
(lp501
S':'
asbag67
(g88
g69
NtRp502
(dp503
g72
(dp504
sg81
g490
sg74
(lp505
g67
(g68
g69
NtRp506
(dp507
g72
(dp508
g80
I3
ssg81
g502
sg74
(lp509
S''
asbasbasbag67
(g83
g69
NtRp510
(dp511
g72
(dp512
sg81
g486
sg74
(lp513
g67
(g88
g69
NtRp514
(dp515
g72
(dp516
g92
g93
ssg81
g510
sg74
(lp517
g325
asbag67
(g88
g69
NtRp518
(dp519
g72
(dp520
g99
g100
ssg81
g510
sg74
(lp521
S':'
asbag67
(g88
g69
NtRp522
(dp523
g72
(dp524
sg81
g510
sg74
(lp525
g67
(g68
g69
NtRp526
(dp527
g72
(dp528
g80
I3
ssg81
g522
sg74
(lp529
S''
asbasbasbag67
(g83
g69
NtRp530
(dp531
g72
(dp532
sg81
g486
sg74
(lp533
g67
(g88
g69
NtRp534
(dp535
g72
(dp536
g92
g93
ssg81
g530
sg74
(lp537
g346
asbag67
(g88
g69
NtRp538
(dp539
g72
(dp540
g99
g100
ssg81
g530
sg74
(lp541
S':'
asbag67
(g88
g69
NtRp542
(dp543
g72
(dp544
sg81
g530
sg74
(lp545
g67
(g68
g69
NtRp546
(dp547
g72
(dp548
g80
I3
ssg81
g542
sg74
(lp549
S''
asbasbasbag67
(g83
g69
NtRp550
(dp551
g72
(dp552
sg81
g486
sg74
(lp553
g67
(g88
g69
NtRp554
(dp555
g72
(dp556
g92
g93
ssg81
g550
sg74
(lp557
g367
asbag67
(g88
g69
NtRp558
(dp559
g72
(dp560
g99
g100
ssg81
g550
sg74
(lp561
S':'
asbag67
(g88
g69
NtRp562
(dp563
g72
(dp564
sg81
g550
sg74
(lp565
g67
(g68
g69
NtRp566
(dp567
g72
(dp568
g80
I3
ssg81
g562
sg74
(lp569
S''
asbasbasbag67
(g83
g69
NtRp570
(dp571
g72
(dp572
sg81
g486
sg74
(lp573
g67
(g88
g69
NtRp574
(dp575
g72
(dp576
g92
g93
ssg81
g570
sg74
(lp577
g388
asbag67
(g88
g69
NtRp578
(dp579
g72
(dp580
g99
g100
ssg81
g570
sg74
(lp581
S':'
asbag67
(g88
g69
NtRp582
(dp583
g72
(dp584
sg81
g570
sg74
(lp585
g67
(g68
g69
NtRp586
(dp587
g72
(dp588
g80
I3
ssg81
g582
sg74
(lp589
S''
asbasbasbag67
(g83
g69
NtRp590
(dp591
g72
(dp592
sg81
g486
sg74
(lp593
g67
(g88
g69
NtRp594
(dp595
g72
(dp596
g92
g93
ssg81
g590
sg74
(lp597
g409
asbag67
(g88
g69
NtRp598
(dp599
g72
(dp600
g99
g100
ssg81
g590
sg74
(lp601
S':'
asbag67
(g88
g69
NtRp602
(dp603
g72
(dp604
sg81
g590
sg74
(lp605
g67
(g68
g69
NtRp606
(dp607
g72
(dp608
g80
I3
ssg81
g602
sg74
(lp609
S''
asbasbasbag67
(g83
g69
NtRp610
(dp611
g72
(dp612
sg81
g486
sg74
(lp613
g67
(g88
g69
NtRp614
(dp615
g72
(dp616
g92
g93
ssg81
g610
sg74
(lp617
g430
asbag67
(g88
g69
NtRp618
(dp619
g72
(dp620
g99
g100
ssg81
g610
sg74
(lp621
S':'
asbag67
(g88
g69
NtRp622
(dp623
g72
(dp624
sg81
g610
sg74
(lp625
g67
(g68
g69
NtRp626
(dp627
g72
(dp628
g80
I3
ssg81
g622
sg74
(lp629
S''
asbasbasbag67
(g83
g69
NtRp630
(dp631
g72
(dp632
sg81
g486
sg74
(lp633
g67
(g88
g69
NtRp634
(dp635
g72
(dp636
g92
g93
ssg81
g630
sg74
(lp637
g451
asbag67
(g88
g69
NtRp638
(dp639
g72
(dp640
g99
g100
ssg81
g630
sg74
(lp641
S':'
asbag67
(g88
g69
NtRp642
(dp643
g72
(dp644
sg81
g630
sg74
(lp645
g67
(g68
g69
NtRp646
(dp647
g72
(dp648
g80
I3
ssg81
g642
sg74
(lp649
S''
asbasbasbasbasbasbasbag67
(g83
g69
NtRp650
(dp651
g72
(dp652
sg81
g266
sg74
(lp653
g67
(g88
g69
NtRp654
(dp655
g72
(dp656
g92
g93
ssg81
g650
sg74
(lp657
S'session_id_welcome'
p658
asbag67
(g88
g69
NtRp659
(dp660
g72
(dp661
g99
g100
ssg81
g650
sg74
(lp662
S':'
asbag67
(g88
g69
NtRp663
(dp664
g72
(dp665
sg81
g650
sg74
(lp666
g67
(g68
g69
NtRp667
(dp668
g72
(dp669
g80
I4
ssg81
g663
sg74
(lp670
S'177.162.249.173-be2b4b3b-2739-4474-88ef-89ea7433cded'
p671
ag67
(g76
g69
NtRp672
(dp673
g72
(dp674
g80
I3
ssg81
Nsg74
(lp675
g67
(g83
g69
NtRp676
(dp677
g72
(dp678
sg81
g672
sg74
(lp679
g67
(g88
g69
NtRp680
(dp681
g72
(dp682
g92
g93
ssg81
g676
sg74
(lp683
g304
asbag67
(g88
g69
NtRp684
(dp685
g72
(dp686
g99
g100
ssg81
g676
sg74
(lp687
S':'
asbag67
(g88
g69
NtRp688
(dp689
g72
(dp690
sg81
g676
sg74
(lp691
g67
(g68
g69
NtRp692
(dp693
g72
(dp694
g80
I3
ssg81
g688
sg74
(lp695
S''
asbasbasbag67
(g83
g69
NtRp696
(dp697
g72
(dp698
sg81
g672
sg74
(lp699
g67
(g88
g69
NtRp700
(dp701
g72
(dp702
g92
g93
ssg81
g696
sg74
(lp703
g325
asbag67
(g88
g69
NtRp704
(dp705
g72
(dp706
g99
g100
ssg81
g696
sg74
(lp707
S':'
asbag67
(g88
g69
NtRp708
(dp709
g72
(dp710
sg81
g696
sg74
(lp711
g67
(g68
g69
NtRp712
(dp713
g72
(dp714
g80
I3
ssg81
g708
sg74
(lp715
S''
asbasbasbag67
(g83
g69
NtRp716
(dp717
g72
(dp718
sg81
g672
sg74
(lp719
g67
(g88
g69
NtRp720
(dp721
g72
(dp722
g92
g93
ssg81
g716
sg74
(lp723
g346
asbag67
(g88
g69
NtRp724
(dp725
g72
(dp726
g99
g100
ssg81
g716
sg74
(lp727
S':'
asbag67
(g88
g69
NtRp728
(dp729
g72
(dp730
sg81
g716
sg74
(lp731
g67
(g68
g69
NtRp732
(dp733
g72
(dp734
g80
I3
ssg81
g728
sg74
(lp735
S''
asbasbasbag67
(g83
g69
NtRp736
(dp737
g72
(dp738
sg81
g672
sg74
(lp739
g67
(g88
g69
NtRp740
(dp741
g72
(dp742
g92
g93
ssg81
g736
sg74
(lp743
g367
asbag67
(g88
g69
NtRp744
(dp745
g72
(dp746
g99
g100
ssg81
g736
sg74
(lp747
S':'
asbag67
(g88
g69
NtRp748
(dp749
g72
(dp750
sg81
g736
sg74
(lp751
g67
(g68
g69
NtRp752
(dp753
g72
(dp754
g80
I3
ssg81
g748
sg74
(lp755
S''
asbasbasbag67
(g83
g69
NtRp756
(dp757
g72
(dp758
sg81
g672
sg74
(lp759
g67
(g88
g69
NtRp760
(dp761
g72
(dp762
g92
g93
ssg81
g756
sg74
(lp763
g388
asbag67
(g88
g69
NtRp764
(dp765
g72
(dp766
g99
g100
ssg81
g756
sg74
(lp767
S':'
asbag67
(g88
g69
NtRp768
(dp769
g72
(dp770
sg81
g756
sg74
(lp771
g67
(g68
g69
NtRp772
(dp773
g72
(dp774
g80
I3
ssg81
g768
sg74
(lp775
S''
asbasbasbag67
(g83
g69
NtRp776
(dp777
g72
(dp778
sg81
g672
sg74
(lp779
g67
(g88
g69
NtRp780
(dp781
g72
(dp782
g92
g93
ssg81
g776
sg74
(lp783
g409
asbag67
(g88
g69
NtRp784
(dp785
g72
(dp786
g99
g100
ssg81
g776
sg74
(lp787
S':'
asbag67
(g88
g69
NtRp788
(dp789
g72
(dp790
sg81
g776
sg74
(lp791
g67
(g68
g69
NtRp792
(dp793
g72
(dp794
g80
I3
ssg81
g788
sg74
(lp795
S''
asbasbasbag67
(g83
g69
NtRp796
(dp797
g72
(dp798
sg81
g672
sg74
(lp799
g67
(g88
g69
NtRp800
(dp801
g72
(dp802
g92
g93
ssg81
g796
sg74
(lp803
g430
asbag67
(g88
g69
NtRp804
(dp805
g72
(dp806
g99
g100
ssg81
g796
sg74
(lp807
S':'
asbag67
(g88
g69
NtRp808
(dp809
g72
(dp810
sg81
g796
sg74
(lp811
g67
(g68
g69
NtRp812
(dp813
g72
(dp814
g80
I3
ssg81
g808
sg74
(lp815
S''
asbasbasbag67
(g83
g69
NtRp816
(dp817
g72
(dp818
sg81
g672
sg74
(lp819
g67
(g88
g69
NtRp820
(dp821
g72
(dp822
g92
g93
ssg81
g816
sg74
(lp823
g451
asbag67
(g88
g69
NtRp824
(dp825
g72
(dp826
g99
g100
ssg81
g816
sg74
(lp827
S':'
asbag67
(g88
g69
NtRp828
(dp829
g72
(dp830
sg81
g816
sg74
(lp831
g67
(g68
g69
NtRp832
(dp833
g72
(dp834
g80
I3
ssg81
g828
sg74
(lp835
S''
asbasbasbasbasbasbasbasbasbasbasbag67
(g83
g69
NtRp836
(dp837
g72
(dp838
sg81
g77
sg74
(lp839
g67
(g88
g69
NtRp840
(dp841
g72
(dp842
g92
g93
ssg81
g836
sg74
(lp843
S'env'
p844
asbag67
(g88
g69
NtRp845
(dp846
g72
(dp847
g99
g100
ssg81
g836
sg74
(lp848
S':'
asbag67
(g88
g69
NtRp849
(dp850
g72
(dp851
sg81
g836
sg74
(lp852
g67
(g68
g69
NtRp853
(dp854
g72
(dp855
g80
I5
ssg81
g849
sg74
(lp856
g67
(g76
g69
NtRp857
(dp858
g72
(dp859
g80
I4
ssg81
Nsg74
(lp860
g67
(g83
g69
NtRp861
(dp862
g72
(dp863
sg81
g857
sg74
(lp864
g67
(g88
g69
NtRp865
(dp866
g72
(dp867
g92
g93
ssg81
g861
sg74
(lp868
S'app_folders'
p869
asbag67
(g88
g69
NtRp870
(dp871
g72
(dp872
g99
g100
ssg81
g861
sg74
(lp873
S':'
asbag67
(g88
g69
NtRp874
(dp875
g72
(dp876
sg81
g861
sg74
(lp877
g67
(g68
g69
NtRp878
(dp879
g72
(dp880
g80
I4
ssg81
g874
sg74
(lp881
S"set(['/home/rsoutelino/web2py/applications/rsoutelino/'])"
p882
asbasbasbag67
(g83
g69
NtRp883
(dp884
g72
(dp885
sg81
g857
sg74
(lp886
g67
(g88
g69
NtRp887
(dp888
g72
(dp889
g92
g93
ssg81
g883
sg74
(lp890
S'applications_parent'
p891
asbag67
(g88
g69
NtRp892
(dp893
g72
(dp894
g99
g100
ssg81
g883
sg74
(lp895
S':'
asbag67
(g88
g69
NtRp896
(dp897
g72
(dp898
sg81
g883
sg74
(lp899
g67
(g68
g69
NtRp900
(dp901
g72
(dp902
g80
I4
ssg81
g896
sg74
(lp903
S'/home/rsoutelino/web2py'
p904
asbasbasbag67
(g83
g69
NtRp905
(dp906
g72
(dp907
sg81
g857
sg74
(lp908
g67
(g88
g69
NtRp909
(dp910
g72
(dp911
g92
g93
ssg81
g905
sg74
(lp912
S'content_length'
p913
asbag67
(g88
g69
NtRp914
(dp915
g72
(dp916
g99
g100
ssg81
g905
sg74
(lp917
S':'
asbag67
(g88
g69
NtRp918
(dp919
g72
(dp920
sg81
g905
sg74
(lp921
g67
(g68
g69
NtRp922
(dp923
g72
(dp924
g80
I4
ssg81
g918
sg74
(lp925
S''
asbasbasbag67
(g83
g69
NtRp926
(dp927
g72
(dp928
sg81
g857
sg74
(lp929
g67
(g88
g69
NtRp930
(dp931
g72
(dp932
g92
g93
ssg81
g926
sg74
(lp933
S'content_type'
p934
asbag67
(g88
g69
NtRp935
(dp936
g72
(dp937
g99
g100
ssg81
g926
sg74
(lp938
S':'
asbag67
(g88
g69
NtRp939
(dp940
g72
(dp941
sg81
g926
sg74
(lp942
g67
(g68
g69
NtRp943
(dp944
g72
(dp945
g80
I4
ssg81
g939
sg74
(lp946
S''
asbasbasbag67
(g83
g69
NtRp947
(dp948
g72
(dp949
sg81
g857
sg74
(lp950
g67
(g88
g69
NtRp951
(dp952
g72
(dp953
g92
g93
ssg81
g947
sg74
(lp954
S'db_sessions'
p955
asbag67
(g88
g69
NtRp956
(dp957
g72
(dp958
g99
g100
ssg81
g947
sg74
(lp959
S':'
asbag67
(g88
g69
NtRp960
(dp961
g72
(dp962
sg81
g947
sg74
(lp963
g67
(g68
g69
NtRp964
(dp965
g72
(dp966
g80
I4
ssg81
g960
sg74
(lp967
S'set([])'
p968
asbasbasbag67
(g83
g69
NtRp969
(dp970
g72
(dp971
sg81
g857
sg74
(lp972
g67
(g88
g69
NtRp973
(dp974
g72
(dp975
g92
g93
ssg81
g969
sg74
(lp976
S'debugging'
p977
asbag67
(g88
g69
NtRp978
(dp979
g72
(dp980
g99
g100
ssg81
g969
sg74
(lp981
S':'
asbag67
(g88
g69
NtRp982
(dp983
g72
(dp984
sg81
g969
sg74
(lp985
g67
(g68
g69
NtRp986
(dp987
g72
(dp988
g80
I4
ssg81
g982
sg74
(lp989
g110
asbasbasbag67
(g83
g69
NtRp990
(dp991
g72
(dp992
sg81
g857
sg74
(lp993
g67
(g88
g69
NtRp994
(dp995
g72
(dp996
g92
g93
ssg81
g990
sg74
(lp997
S'document_root'
p998
asbag67
(g88
g69
NtRp999
(dp1000
g72
(dp1001
g99
g100
ssg81
g990
sg74
(lp1002
S':'
asbag67
(g88
g69
NtRp1003
(dp1004
g72
(dp1005
sg81
g990
sg74
(lp1006
g67
(g68
g69
NtRp1007
(dp1008
g72
(dp1009
g80
I4
ssg81
g1003
sg74
(lp1010
S'/var/log/nginx/user_logs'
p1011
asbasbasbag67
(g83
g69
NtRp1012
(dp1013
g72
(dp1014
sg81
g857
sg74
(lp1015
g67
(g88
g69
NtRp1016
(dp1017
g72
(dp1018
g92
g93
ssg81
g1012
sg74
(lp1019
S'gluon_parent'
p1020
asbag67
(g88
g69
NtRp1021
(dp1022
g72
(dp1023
g99
g100
ssg81
g1012
sg74
(lp1024
S':'
asbag67
(g88
g69
NtRp1025
(dp1026
g72
(dp1027
sg81
g1012
sg74
(lp1028
g67
(g68
g69
NtRp1029
(dp1030
g72
(dp1031
g80
I4
ssg81
g1025
sg74
(lp1032
g904
asbasbasbag67
(g83
g69
NtRp1033
(dp1034
g72
(dp1035
sg81
g857
sg74
(lp1036
g67
(g88
g69
NtRp1037
(dp1038
g72
(dp1039
g92
g93
ssg81
g1033
sg74
(lp1040
S'http_accept'
p1041
asbag67
(g88
g69
NtRp1042
(dp1043
g72
(dp1044
g99
g100
ssg81
g1033
sg74
(lp1045
S':'
asbag67
(g88
g69
NtRp1046
(dp1047
g72
(dp1048
sg81
g1033
sg74
(lp1049
g67
(g68
g69
NtRp1050
(dp1051
g72
(dp1052
g80
I4
ssg81
g1046
sg74
(lp1053
S'text/html,application/xhtml+xml,application/xml;q=0.9,*/*;q=0.8'
p1054
asbasbasbag67
(g83
g69
NtRp1055
(dp1056
g72
(dp1057
sg81
g857
sg74
(lp1058
g67
(g88
g69
NtRp1059
(dp1060
g72
(dp1061
g92
g93
ssg81
g1055
sg74
(lp1062
S'http_accept_charset'
p1063
asbag67
(g88
g69
NtRp1064
(dp1065
g72
(dp1066
g99
g100
ssg81
g1055
sg74
(lp1067
S':'
asbag67
(g88
g69
NtRp1068
(dp1069
g72
(dp1070
sg81
g1055
sg74
(lp1071
g67
(g68
g69
NtRp1072
(dp1073
g72
(dp1074
g80
I4
ssg81
g1068
sg74
(lp1075
S'ISO-8859-1,utf-8;q=0.7,*;q=0.3'
p1076
asbasbasbag67
(g83
g69
NtRp1077
(dp1078
g72
(dp1079
sg81
g857
sg74
(lp1080
g67
(g88
g69
NtRp1081
(dp1082
g72
(dp1083
g92
g93
ssg81
g1077
sg74
(lp1084
S'http_accept_encoding'
p1085
asbag67
(g88
g69
NtRp1086
(dp1087
g72
(dp1088
g99
g100
ssg81
g1077
sg74
(lp1089
S':'
asbag67
(g88
g69
NtRp1090
(dp1091
g72
(dp1092
sg81
g1077
sg74
(lp1093
g67
(g68
g69
NtRp1094
(dp1095
g72
(dp1096
g80
I4
ssg81
g1090
sg74
(lp1097
S'gzip,deflate,sdch'
p1098
asbasbasbag67
(g83
g69
NtRp1099
(dp1100
g72
(dp1101
sg81
g857
sg74
(lp1102
g67
(g88
g69
NtRp1103
(dp1104
g72
(dp1105
g92
g93
ssg81
g1099
sg74
(lp1106
S'http_accept_language'
p1107
asbag67
(g88
g69
NtRp1108
(dp1109
g72
(dp1110
g99
g100
ssg81
g1099
sg74
(lp1111
S':'
asbag67
(g88
g69
NtRp1112
(dp1113
g72
(dp1114
sg81
g1099
sg74
(lp1115
g67
(g68
g69
NtRp1116
(dp1117
g72
(dp1118
g80
I4
ssg81
g1112
sg74
(lp1119
S'en-US,en;q=0.8'
p1120
asbasbasbag67
(g83
g69
NtRp1121
(dp1122
g72
(dp1123
sg81
g857
sg74
(lp1124
g67
(g88
g69
NtRp1125
(dp1126
g72
(dp1127
g92
g93
ssg81
g1121
sg74
(lp1128
S'http_cache_control'
p1129
asbag67
(g88
g69
NtRp1130
(dp1131
g72
(dp1132
g99
g100
ssg81
g1121
sg74
(lp1133
S':'
asbag67
(g88
g69
NtRp1134
(dp1135
g72
(dp1136
sg81
g1121
sg74
(lp1137
g67
(g68
g69
NtRp1138
(dp1139
g72
(dp1140
g80
I4
ssg81
g1134
sg74
(lp1141
S'max-age=0'
p1142
asbasbasbag67
(g83
g69
NtRp1143
(dp1144
g72
(dp1145
sg81
g857
sg74
(lp1146
g67
(g88
g69
NtRp1147
(dp1148
g72
(dp1149
g92
g93
ssg81
g1143
sg74
(lp1150
S'http_connection'
p1151
asbag67
(g88
g69
NtRp1152
(dp1153
g72
(dp1154
g99
g100
ssg81
g1143
sg74
(lp1155
S':'
asbag67
(g88
g69
NtRp1156
(dp1157
g72
(dp1158
sg81
g1143
sg74
(lp1159
g67
(g68
g69
NtRp1160
(dp1161
g72
(dp1162
g80
I4
ssg81
g1156
sg74
(lp1163
S'keep-alive'
p1164
asbasbasbag67
(g83
g69
NtRp1165
(dp1166
g72
(dp1167
sg81
g857
sg74
(lp1168
g67
(g88
g69
NtRp1169
(dp1170
g72
(dp1171
g92
g93
ssg81
g1165
sg74
(lp1172
S'http_cookie'
p1173
asbag67
(g88
g69
NtRp1174
(dp1175
g72
(dp1176
g99
g100
ssg81
g1165
sg74
(lp1177
S':'
asbag67
(g88
g69
NtRp1178
(dp1179
g72
(dp1180
sg81
g1165
sg74
(lp1181
g67
(g68
g69
NtRp1182
(dp1183
g72
(dp1184
g80
I4
ssg81
g1178
sg74
(lp1185
S'session_id_welcome=177.162.249.173-be2b4b3b-2739-4474-88ef-89ea7433cded; session_id_admin=177.61.67.104-0d9fadca-8233-4ebe-908b-e5697439d12f; session_id_rsoutelino=177.162.249.173-367d9431-619b-4299-9fd0-6014b0e3ef85'
p1186
asbasbasbag67
(g83
g69
NtRp1187
(dp1188
g72
(dp1189
sg81
g857
sg74
(lp1190
g67
(g88
g69
NtRp1191
(dp1192
g72
(dp1193
g92
g93
ssg81
g1187
sg74
(lp1194
S'http_host'
p1195
asbag67
(g88
g69
NtRp1196
(dp1197
g72
(dp1198
g99
g100
ssg81
g1187
sg74
(lp1199
S':'
asbag67
(g88
g69
NtRp1200
(dp1201
g72
(dp1202
sg81
g1187
sg74
(lp1203
g67
(g68
g69
NtRp1204
(dp1205
g72
(dp1206
g80
I4
ssg81
g1200
sg74
(lp1207
S'www.rsoutelino.com'
p1208
asbasbasbag67
(g83
g69
NtRp1209
(dp1210
g72
(dp1211
sg81
g857
sg74
(lp1212
g67
(g88
g69
NtRp1213
(dp1214
g72
(dp1215
g92
g93
ssg81
g1209
sg74
(lp1216
S'http_user_agent'
p1217
asbag67
(g88
g69
NtRp1218
(dp1219
g72
(dp1220
g99
g100
ssg81
g1209
sg74
(lp1221
S':'
asbag67
(g88
g69
NtRp1222
(dp1223
g72
(dp1224
sg81
g1209
sg74
(lp1225
g67
(g68
g69
NtRp1226
(dp1227
g72
(dp1228
g80
I4
ssg81
g1222
sg74
(lp1229
S'Mozilla/5.0 (Macintosh; Intel Mac OS X 10_6_8) AppleWebKit/537.11 (KHTML, like Gecko) Chrome/23.0.1271.95 Safari/537.11'
p1230
asbasbasbag67
(g83
g69
NtRp1231
(dp1232
g72
(dp1233
sg81
g857
sg74
(lp1234
g67
(g88
g69
NtRp1235
(dp1236
g72
(dp1237
g92
g93
ssg81
g1231
sg74
(lp1238
S'is_jython'
p1239
asbag67
(g88
g69
NtRp1240
(dp1241
g72
(dp1242
g99
g100
ssg81
g1231
sg74
(lp1243
S':'
asbag67
(g88
g69
NtRp1244
(dp1245
g72
(dp1246
sg81
g1231
sg74
(lp1247
g67
(g68
g69
NtRp1248
(dp1249
g72
(dp1250
g80
I4
ssg81
g1244
sg74
(lp1251
g110
asbasbasbag67
(g83
g69
NtRp1252
(dp1253
g72
(dp1254
sg81
g857
sg74
(lp1255
g67
(g88
g69
NtRp1256
(dp1257
g72
(dp1258
g92
g93
ssg81
g1252
sg74
(lp1259
S'is_pypy'
p1260
asbag67
(g88
g69
NtRp1261
(dp1262
g72
(dp1263
g99
g100
ssg81
g1252
sg74
(lp1264
S':'
asbag67
(g88
g69
NtRp1265
(dp1266
g72
(dp1267
sg81
g1252
sg74
(lp1268
g67
(g68
g69
NtRp1269
(dp1270
g72
(dp1271
g80
I4
ssg81
g1265
sg74
(lp1272
g110
asbasbasbag67
(g83
g69
NtRp1273
(dp1274
g72
(dp1275
sg81
g857
sg74
(lp1276
g67
(g88
g69
NtRp1277
(dp1278
g72
(dp1279
g92
g93
ssg81
g1273
sg74
(lp1280
S'local_hosts'
p1281
asbag67
(g88
g69
NtRp1282
(dp1283
g72
(dp1284
g99
g100
ssg81
g1273
sg74
(lp1285
S':'
asbag67
(g88
g69
NtRp1286
(dp1287
g72
(dp1288
sg81
g1273
sg74
(lp1289
g67
(g68
g69
NtRp1290
(dp1291
g72
(dp1292
g80
I4
ssg81
g1286
sg74
(lp1293
g67
(g76
g69
NtRp1294
(dp1295
g72
(dp1296
g80
I3
ssg81
Nsg74
(lp1297
g67
(g83
g69
NtRp1298
(dp1299
g72
(dp1300
sg81
g1294
sg74
(lp1301
g67
(g88
g69
NtRp1302
(dp1303
g72
(dp1304
sg81
g1298
sg74
(lp1305
g67
(g68
g69
NtRp1306
(dp1307
g72
(dp1308
g80
I3
ssg81
g1302
sg74
(lp1309
S'127.0.0.1'
p1310
asbasbasbag67
(g83
g69
NtRp1311
(dp1312
g72
(dp1313
sg81
g1294
sg74
(lp1314
g67
(g88
g69
NtRp1315
(dp1316
g72
(dp1317
sg81
g1311
sg74
(lp1318
g67
(g68
g69
NtRp1319
(dp1320
g72
(dp1321
g80
I3
ssg81
g1315
sg74
(lp1322
S'::ffff:127.0.0.1'
p1323
asbasbasbag67
(g83
g69
NtRp1324
(dp1325
g72
(dp1326
sg81
g1294
sg74
(lp1327
g67
(g88
g69
NtRp1328
(dp1329
g72
(dp1330
sg81
g1324
sg74
(lp1331
g67
(g68
g69
NtRp1332
(dp1333
g72
(dp1334
g80
I3
ssg81
g1328
sg74
(lp1335
S'glenn-liveweb'
p1336
asbasbasbasbasbasbasbag67
(g83
g69
NtRp1337
(dp1338
g72
(dp1339
sg81
g857
sg74
(lp1340
g67
(g88
g69
NtRp1341
(dp1342
g72
(dp1343
g92
g93
ssg81
g1337
sg74
(lp1344
S'path_info'
p1345
asbag67
(g88
g69
NtRp1346
(dp1347
g72
(dp1348
g99
g100
ssg81
g1337
sg74
(lp1349
S':'
asbag67
(g88
g69
NtRp1350
(dp1351
g72
(dp1352
sg81
g1337
sg74
(lp1353
g67
(g68
g69
NtRp1354
(dp1355
g72
(dp1356
g80
I4
ssg81
g1350
sg74
(lp1357
S'/'
asbasbasbag67
(g83
g69
NtRp1358
(dp1359
g72
(dp1360
sg81
g857
sg74
(lp1361
g67
(g88
g69
NtRp1362
(dp1363
g72
(dp1364
g92
g93
ssg81
g1358
sg74
(lp1365
S'query_string'
p1366
asbag67
(g88
g69
NtRp1367
(dp1368
g72
(dp1369
g99
g100
ssg81
g1358
sg74
(lp1370
S':'
asbag67
(g88
g69
NtRp1371
(dp1372
g72
(dp1373
sg81
g1358
sg74
(lp1374
g67
(g68
g69
NtRp1375
(dp1376
g72
(dp1377
g80
I4
ssg81
g1371
sg74
(lp1378
S''
asbasbasbag67
(g83
g69
NtRp1379
(dp1380
g72
(dp1381
sg81
g857
sg74
(lp1382
g67
(g88
g69
NtRp1383
(dp1384
g72
(dp1385
g92
g93
ssg81
g1379
sg74
(lp1386
S'remote_addr'
p1387
asbag67
(g88
g69
NtRp1388
(dp1389
g72
(dp1390
g99
g100
ssg81
g1379
sg74
(lp1391
S':'
asbag67
(g88
g69
NtRp1392
(dp1393
g72
(dp1394
sg81
g1379
sg74
(lp1395
g67
(g68
g69
NtRp1396
(dp1397
g72
(dp1398
g80
I4
ssg81
g1392
sg74
(lp1399
g222
asbasbasbag67
(g83
g69
NtRp1400
(dp1401
g72
(dp1402
sg81
g857
sg74
(lp1403
g67
(g88
g69
NtRp1404
(dp1405
g72
(dp1406
g92
g93
ssg81
g1400
sg74
(lp1407
S'remote_port'
p1408
asbag67
(g88
g69
NtRp1409
(dp1410
g72
(dp1411
g99
g100
ssg81
g1400
sg74
(lp1412
S':'
asbag67
(g88
g69
NtRp1413
(dp1414
g72
(dp1415
sg81
g1400
sg74
(lp1416
g67
(g68
g69
NtRp1417
(dp1418
g72
(dp1419
g80
I4
ssg81
g1413
sg74
(lp1420
S'57867'
p1421
asbasbasbag67
(g83
g69
NtRp1422
(dp1423
g72
(dp1424
sg81
g857
sg74
(lp1425
g67
(g88
g69
NtRp1426
(dp1427
g72
(dp1428
g92
g93
ssg81
g1422
sg74
(lp1429
S'request_method'
p1430
asbag67
(g88
g69
NtRp1431
(dp1432
g72
(dp1433
g99
g100
ssg81
g1422
sg74
(lp1434
S':'
asbag67
(g88
g69
NtRp1435
(dp1436
g72
(dp1437
sg81
g1422
sg74
(lp1438
g67
(g68
g69
NtRp1439
(dp1440
g72
(dp1441
g80
I4
ssg81
g1435
sg74
(lp1442
S'GET'
p1443
asbasbasbag67
(g83
g69
NtRp1444
(dp1445
g72
(dp1446
sg81
g857
sg74
(lp1447
g67
(g88
g69
NtRp1448
(dp1449
g72
(dp1450
g92
g93
ssg81
g1444
sg74
(lp1451
S'request_uri'
p1452
asbag67
(g88
g69
NtRp1453
(dp1454
g72
(dp1455
g99
g100
ssg81
g1444
sg74
(lp1456
S':'
asbag67
(g88
g69
NtRp1457
(dp1458
g72
(dp1459
sg81
g1444
sg74
(lp1460
g67
(g68
g69
NtRp1461
(dp1462
g72
(dp1463
g80
I4
ssg81
g1457
sg74
(lp1464
S'/'
asbasbasbag67
(g83
g69
NtRp1465
(dp1466
g72
(dp1467
sg81
g857
sg74
(lp1468
g67
(g88
g69
NtRp1469
(dp1470
g72
(dp1471
g92
g93
ssg81
g1465
sg74
(lp1472
S'script_name'
p1473
asbag67
(g88
g69
NtRp1474
(dp1475
g72
(dp1476
g99
g100
ssg81
g1465
sg74
(lp1477
S':'
asbag67
(g88
g69
NtRp1478
(dp1479
g72
(dp1480
sg81
g1465
sg74
(lp1481
g67
(g68
g69
NtRp1482
(dp1483
g72
(dp1484
g80
I4
ssg81
g1478
sg74
(lp1485
S''
asbasbasbag67
(g83
g69
NtRp1486
(dp1487
g72
(dp1488
sg81
g857
sg74
(lp1489
g67
(g88
g69
NtRp1490
(dp1491
g72
(dp1492
g92
g93
ssg81
g1486
sg74
(lp1493
S'server_name'
p1494
asbag67
(g88
g69
NtRp1495
(dp1496
g72
(dp1497
g99
g100
ssg81
g1486
sg74
(lp1498
S':'
asbag67
(g88
g69
NtRp1499
(dp1500
g72
(dp1501
sg81
g1486
sg74
(lp1502
g67
(g68
g69
NtRp1503
(dp1504
g72
(dp1505
g80
I4
ssg81
g1499
sg74
(lp1506
S'~(?<domain>.+)$'
p1507
asbasbasbag67
(g83
g69
NtRp1508
(dp1509
g72
(dp1510
sg81
g857
sg74
(lp1511
g67
(g88
g69
NtRp1512
(dp1513
g72
(dp1514
g92
g93
ssg81
g1508
sg74
(lp1515
S'server_port'
p1516
asbag67
(g88
g69
NtRp1517
(dp1518
g72
(dp1519
g99
g100
ssg81
g1508
sg74
(lp1520
S':'
asbag67
(g88
g69
NtRp1521
(dp1522
g72
(dp1523
sg81
g1508
sg74
(lp1524
g67
(g68
g69
NtRp1525
(dp1526
g72
(dp1527
g80
I4
ssg81
g1521
sg74
(lp1528
S'80'
p1529
asbasbasbag67
(g83
g69
NtRp1530
(dp1531
g72
(dp1532
sg81
g857
sg74
(lp1533
g67
(g88
g69
NtRp1534
(dp1535
g72
(dp1536
g92
g93
ssg81
g1530
sg74
(lp1537
S'server_protocol'
p1538
asbag67
(g88
g69
NtRp1539
(dp1540
g72
(dp1541
g99
g100
ssg81
g1530
sg74
(lp1542
S':'
asbag67
(g88
g69
NtRp1543
(dp1544
g72
(dp1545
sg81
g1530
sg74
(lp1546
g67
(g68
g69
NtRp1547
(dp1548
g72
(dp1549
g80
I4
ssg81
g1543
sg74
(lp1550
S'HTTP/1.1'
p1551
asbasbasbag67
(g83
g69
NtRp1552
(dp1553
g72
(dp1554
sg81
g857
sg74
(lp1555
g67
(g88
g69
NtRp1556
(dp1557
g72
(dp1558
g92
g93
ssg81
g1552
sg74
(lp1559
S'uwsgi_node'
p1560
asbag67
(g88
g69
NtRp1561
(dp1562
g72
(dp1563
g99
g100
ssg81
g1552
sg74
(lp1564
S':'
asbag67
(g88
g69
NtRp1565
(dp1566
g72
(dp1567
sg81
g1552
sg74
(lp1568
g67
(g68
g69
NtRp1569
(dp1570
g72
(dp1571
g80
I4
ssg81
g1565
sg74
(lp1572
S'glenn-liveweb'
p1573
asbasbasbag67
(g83
g69
NtRp1574
(dp1575
g72
(dp1576
sg81
g857
sg74
(lp1577
g67
(g88
g69
NtRp1578
(dp1579
g72
(dp1580
g92
g93
ssg81
g1574
sg74
(lp1581
S'uwsgi_version'
p1582
asbag67
(g88
g69
NtRp1583
(dp1584
g72
(dp1585
g99
g100
ssg81
g1574
sg74
(lp1586
S':'
asbag67
(g88
g69
NtRp1587
(dp1588
g72
(dp1589
sg81
g1574
sg74
(lp1590
g67
(g68
g69
NtRp1591
(dp1592
g72
(dp1593
g80
I4
ssg81
g1587
sg74
(lp1594
S'1.4.2'
p1595
asbasbasbag67
(g83
g69
NtRp1596
(dp1597
g72
(dp1598
sg81
g857
sg74
(lp1599
g67
(g88
g69
NtRp1600
(dp1601
g72
(dp1602
g92
g93
ssg81
g1596
sg74
(lp1603
S'web2py_path'
p1604
asbag67
(g88
g69
NtRp1605
(dp1606
g72
(dp1607
g99
g100
ssg81
g1596
sg74
(lp1608
S':'
asbag67
(g88
g69
NtRp1609
(dp1610
g72
(dp1611
sg81
g1596
sg74
(lp1612
g67
(g68
g69
NtRp1613
(dp1614
g72
(dp1615
g80
I4
ssg81
g1609
sg74
(lp1616
g904
asbasbasbag67
(g83
g69
NtRp1617
(dp1618
g72
(dp1619
sg81
g857
sg74
(lp1620
g67
(g88
g69
NtRp1621
(dp1622
g72
(dp1623
g92
g93
ssg81
g1617
sg74
(lp1624
S'web2py_version'
p1625
asbag67
(g88
g69
NtRp1626
(dp1627
g72
(dp1628
g99
g100
ssg81
g1617
sg74
(lp1629
S':'
asbag67
(g88
g69
NtRp1630
(dp1631
g72
(dp1632
sg81
g1617
sg74
(lp1633
g67
(g68
g69
NtRp1634
(dp1635
g72
(dp1636
g80
I4
ssg81
g1630
sg74
(lp1637
g67
(g76
g69
NtRp1638
(dp1639
g72
(dp1640
g80
I3
ssg81
Nsg74
(lp1641
g67
(g83
g69
NtRp1642
(dp1643
g72
(dp1644
sg81
g1638
sg74
(lp1645
g67
(g88
g69
NtRp1646
(dp1647
g72
(dp1648
sg81
g1642
sg74
(lp1649
g67
(g68
g69
NtRp1650
(dp1651
g72
(dp1652
g80
I3
ssg81
g1646
sg74
(lp1653
S'2'
asbasbasbag67
(g83
g69
NtRp1654
(dp1655
g72
(dp1656
sg81
g1638
sg74
(lp1657
g67
(g88
g69
NtRp1658
(dp1659
g72
(dp1660
sg81
g1654
sg74
(lp1661
g67
(g68
g69
NtRp1662
(dp1663
g72
(dp1664
g80
I3
ssg81
g1658
sg74
(lp1665
S'2'
asbasbasbag67
(g83
g69
NtRp1666
(dp1667
g72
(dp1668
sg81
g1638
sg74
(lp1669
g67
(g88
g69
NtRp1670
(dp1671
g72
(dp1672
sg81
g1666
sg74
(lp1673
g67
(g68
g69
NtRp1674
(dp1675
g72
(dp1676
g80
I3
ssg81
g1670
sg74
(lp1677
S'1'
asbasbasbag67
(g83
g69
NtRp1678
(dp1679
g72
(dp1680
sg81
g1638
sg74
(lp1681
g67
(g88
g69
NtRp1682
(dp1683
g72
(dp1684
sg81
g1678
sg74
(lp1685
g67
(g68
g69
NtRp1686
(dp1687
g72
(dp1688
g80
I3
ssg81
g1682
sg74
(lp1689
S'datetime.datetime(2012, 10, 21, 16, 57, 4)'
p1690
asbasbasbag67
(g83
g69
NtRp1691
(dp1692
g72
(dp1693
sg81
g1638
sg74
(lp1694
g67
(g88
g69
NtRp1695
(dp1696
g72
(dp1697
sg81
g1691
sg74
(lp1698
g67
(g68
g69
NtRp1699
(dp1700
g72
(dp1701
g80
I3
ssg81
g1695
sg74
(lp1702
S'stable'
p1703
asbasbasbasbasbasbasbag67
(g83
g69
NtRp1704
(dp1705
g72
(dp1706
sg81
g857
sg74
(lp1707
g67
(g88
g69
NtRp1708
(dp1709
g72
(dp1710
g92
g93
ssg81
g1704
sg74
(lp1711
S'wsgi_errors'
p1712
asbag67
(g88
g69
NtRp1713
(dp1714
g72
(dp1715
g99
g100
ssg81
g1704
sg74
(lp1716
S':'
asbag67
(g88
g69
NtRp1717
(dp1718
g72
(dp1719
sg81
g1704
sg74
(lp1720
g67
(g68
g69
NtRp1721
(dp1722
g72
(dp1723
g80
I4
ssg81
g1717
sg74
(lp1724
S'<uwsgi_file__bin_user_wsgi_wrapper.ErrorLogWrapper object at 0x1dcec10>'
p1725
asbasbasbag67
(g83
g69
NtRp1726
(dp1727
g72
(dp1728
sg81
g857
sg74
(lp1729
g67
(g88
g69
NtRp1730
(dp1731
g72
(dp1732
g92
g93
ssg81
g1726
sg74
(lp1733
S'wsgi_file_wrapper'
p1734
asbag67
(g88
g69
NtRp1735
(dp1736
g72
(dp1737
g99
g100
ssg81
g1726
sg74
(lp1738
S':'
asbag67
(g88
g69
NtRp1739
(dp1740
g72
(dp1741
sg81
g1726
sg74
(lp1742
g67
(g68
g69
NtRp1743
(dp1744
g72
(dp1745
g80
I4
ssg81
g1739
sg74
(lp1746
S'<built-in function uwsgi_sendfile>'
p1747
asbasbasbag67
(g83
g69
NtRp1748
(dp1749
g72
(dp1750
sg81
g857
sg74
(lp1751
g67
(g88
g69
NtRp1752
(dp1753
g72
(dp1754
g92
g93
ssg81
g1748
sg74
(lp1755
S'wsgi_input'
p1756
asbag67
(g88
g69
NtRp1757
(dp1758
g72
(dp1759
g99
g100
ssg81
g1748
sg74
(lp1760
S':'
asbag67
(g88
g69
NtRp1761
(dp1762
g72
(dp1763
sg81
g1748
sg74
(lp1764
g67
(g68
g69
NtRp1765
(dp1766
g72
(dp1767
g80
I4
ssg81
g1761
sg74
(lp1768
S'<uwsgi._Input object at 0x211eb20>'
p1769
asbasbasbag67
(g83
g69
NtRp1770
(dp1771
g72
(dp1772
sg81
g857
sg74
(lp1773
g67
(g88
g69
NtRp1774
(dp1775
g72
(dp1776
g92
g93
ssg81
g1770
sg74
(lp1777
S'wsgi_multiprocess'
p1778
asbag67
(g88
g69
NtRp1779
(dp1780
g72
(dp1781
g99
g100
ssg81
g1770
sg74
(lp1782
S':'
asbag67
(g88
g69
NtRp1783
(dp1784
g72
(dp1785
sg81
g1770
sg74
(lp1786
g67
(g68
g69
NtRp1787
(dp1788
g72
(dp1789
g80
I4
ssg81
g1783
sg74
(lp1790
g110
asbasbasbag67
(g83
g69
NtRp1791
(dp1792
g72
(dp1793
sg81
g857
sg74
(lp1794
g67
(g88
g69
NtRp1795
(dp1796
g72
(dp1797
g92
g93
ssg81
g1791
sg74
(lp1798
S'wsgi_multithread'
p1799
asbag67
(g88
g69
NtRp1800
(dp1801
g72
(dp1802
g99
g100
ssg81
g1791
sg74
(lp1803
S':'
asbag67
(g88
g69
NtRp1804
(dp1805
g72
(dp1806
sg81
g1791
sg74
(lp1807
g67
(g68
g69
NtRp1808
(dp1809
g72
(dp1810
g80
I4
ssg81
g1804
sg74
(lp1811
g110
asbasbasbag67
(g83
g69
NtRp1812
(dp1813
g72
(dp1814
sg81
g857
sg74
(lp1815
g67
(g88
g69
NtRp1816
(dp1817
g72
(dp1818
g92
g93
ssg81
g1812
sg74
(lp1819
S'wsgi_run_once'
p1820
asbag67
(g88
g69
NtRp1821
(dp1822
g72
(dp1823
g99
g100
ssg81
g1812
sg74
(lp1824
S':'
asbag67
(g88
g69
NtRp1825
(dp1826
g72
(dp1827
sg81
g1812
sg74
(lp1828
g67
(g68
g69
NtRp1829
(dp1830
g72
(dp1831
g80
I4
ssg81
g1825
sg74
(lp1832
g110
asbasbasbag67
(g83
g69
NtRp1833
(dp1834
g72
(dp1835
sg81
g857
sg74
(lp1836
g67
(g88
g69
NtRp1837
(dp1838
g72
(dp1839
g92
g93
ssg81
g1833
sg74
(lp1840
S'wsgi_url_scheme'
p1841
asbag67
(g88
g69
NtRp1842
(dp1843
g72
(dp1844
g99
g100
ssg81
g1833
sg74
(lp1845
S':'
asbag67
(g88
g69
NtRp1846
(dp1847
g72
(dp1848
sg81
g1833
sg74
(lp1849
g67
(g68
g69
NtRp1850
(dp1851
g72
(dp1852
g80
I4
ssg81
g1846
sg74
(lp1853
S'http'
p1854
asbasbasbag67
(g83
g69
NtRp1855
(dp1856
g72
(dp1857
sg81
g857
sg74
(lp1858
g67
(g88
g69
NtRp1859
(dp1860
g72
(dp1861
g92
g93
ssg81
g1855
sg74
(lp1862
S'wsgi_version'
p1863
asbag67
(g88
g69
NtRp1864
(dp1865
g72
(dp1866
g99
g100
ssg81
g1855
sg74
(lp1867
S':'
asbag67
(g88
g69
NtRp1868
(dp1869
g72
(dp1870
sg81
g1855
sg74
(lp1871
g67
(g68
g69
NtRp1872
(dp1873
g72
(dp1874
g80
I4
ssg81
g1868
sg74
(lp1875
g67
(g76
g69
NtRp1876
(dp1877
g72
(dp1878
g80
I3
ssg81
Nsg74
(lp1879
g67
(g83
g69
NtRp1880
(dp1881
g72
(dp1882
sg81
g1876
sg74
(lp1883
g67
(g88
g69
NtRp1884
(dp1885
g72
(dp1886
sg81
g1880
sg74
(lp1887
g67
(g68
g69
NtRp1888
(dp1889
g72
(dp1890
g80
I3
ssg81
g1884
sg74
(lp1891
S'1'
asbasbasbag67
(g83
g69
NtRp1892
(dp1893
g72
(dp1894
sg81
g1876
sg74
(lp1895
g67
(g88
g69
NtRp1896
(dp1897
g72
(dp1898
sg81
g1892
sg74
(lp1899
g67
(g68
g69
NtRp1900
(dp1901
g72
(dp1902
g80
I3
ssg81
g1896
sg74
(lp1903
S'0'
asbasbasbasbasbasbasbasbasbasbasbag67
(g83
g69
NtRp1904
(dp1905
g72
(dp1906
sg81
g77
sg74
(lp1907
g67
(g88
g69
NtRp1908
(dp1909
g72
(dp1910
g92
g93
ssg81
g1904
sg74
(lp1911
S'extension'
p1912
asbag67
(g88
g69
NtRp1913
(dp1914
g72
(dp1915
g99
g100
ssg81
g1904
sg74
(lp1916
S':'
asbag67
(g88
g69
NtRp1917
(dp1918
g72
(dp1919
sg81
g1904
sg74
(lp1920
g67
(g68
g69
NtRp1921
(dp1922
g72
(dp1923
g80
I5
ssg81
g1917
sg74
(lp1924
S'html'
p1925
asbasbasbag67
(g83
g69
NtRp1926
(dp1927
g72
(dp1928
sg81
g77
sg74
(lp1929
g67
(g88
g69
NtRp1930
(dp1931
g72
(dp1932
g92
g93
ssg81
g1926
sg74
(lp1933
S'folder'
p1934
asbag67
(g88
g69
NtRp1935
(dp1936
g72
(dp1937
g99
g100
ssg81
g1926
sg74
(lp1938
S':'
asbag67
(g88
g69
NtRp1939
(dp1940
g72
(dp1941
sg81
g1926
sg74
(lp1942
g67
(g68
g69
NtRp1943
(dp1944
g72
(dp1945
g80
I5
ssg81
g1939
sg74
(lp1946
S'/home/rsoutelino/web2py/applications/rsoutelino/'
p1947
asbasbasbag67
(g83
g69
NtRp1948
(dp1949
g72
(dp1950
sg81
g77
sg74
(lp1951
g67
(g88
g69
NtRp1952
(dp1953
g72
(dp1954
g92
g93
ssg81
g1948
sg74
(lp1955
S'function'
p1956
asbag67
(g88
g69
NtRp1957
(dp1958
g72
(dp1959
g99
g100
ssg81
g1948
sg74
(lp1960
S':'
asbag67
(g88
g69
NtRp1961
(dp1962
g72
(dp1963
sg81
g1948
sg74
(lp1964
g67
(g68
g69
NtRp1965
(dp1966
g72
(dp1967
g80
I5
ssg81
g1961
sg74
(lp1968
S'index'
p1969
asbasbasbag67
(g83
g69
NtRp1970
(dp1971
g72
(dp1972
sg81
g77
sg74
(lp1973
g67
(g88
g69
NtRp1974
(dp1975
g72
(dp1976
g92
g93
ssg81
g1970
sg74
(lp1977
S'get_vars'
p1978
asbag67
(g88
g69
NtRp1979
(dp1980
g72
(dp1981
g99
g100
ssg81
g1970
sg74
(lp1982
S':'
asbag67
(g88
g69
NtRp1983
(dp1984
g72
(dp1985
sg81
g1970
sg74
(lp1986
g67
(g68
g69
NtRp1987
(dp1988
g72
(dp1989
g80
I5
ssg81
g1983
sg74
(lp1990
g67
(g76
g69
NtRp1991
(dp1992
g72
(dp1993
g80
I4
ssg81
Nsg74
(lp1994
sbasbasbasbag67
(g83
g69
NtRp1995
(dp1996
g72
(dp1997
sg81
g77
sg74
(lp1998
g67
(g88
g69
NtRp1999
(dp2000
g72
(dp2001
g92
g93
ssg81
g1995
sg74
(lp2002
S'global_settings'
p2003
asbag67
(g88
g69
NtRp2004
(dp2005
g72
(dp2006
g99
g100
ssg81
g1995
sg74
(lp2007
S':'
asbag67
(g88
g69
NtRp2008
(dp2009
g72
(dp2010
sg81
g1995
sg74
(lp2011
g67
(g68
g69
NtRp2012
(dp2013
g72
(dp2014
g80
I5
ssg81
g2008
sg74
(lp2015
g67
(g76
g69
NtRp2016
(dp2017
g72
(dp2018
g80
I4
ssg81
Nsg74
(lp2019
g67
(g83
g69
NtRp2020
(dp2021
g72
(dp2022
sg81
g2016
sg74
(lp2023
g67
(g88
g69
NtRp2024
(dp2025
g72
(dp2026
g92
g93
ssg81
g2020
sg74
(lp2027
g869
asbag67
(g88
g69
NtRp2028
(dp2029
g72
(dp2030
g99
g100
ssg81
g2020
sg74
(lp2031
S':'
asbag67
(g88
g69
NtRp2032
(dp2033
g72
(dp2034
sg81
g2020
sg74
(lp2035
g67
(g68
g69
NtRp2036
(dp2037
g72
(dp2038
g80
I4
ssg81
g2032
sg74
(lp2039
S"set(['/home/rsoutelino/web2py/applications/rsoutelino/'])"
p2040
asbasbasbag67
(g83
g69
NtRp2041
(dp2042
g72
(dp2043
sg81
g2016
sg74
(lp2044
g67
(g88
g69
NtRp2045
(dp2046
g72
(dp2047
g92
g93
ssg81
g2041
sg74
(lp2048
g891
asbag67
(g88
g69
NtRp2049
(dp2050
g72
(dp2051
g99
g100
ssg81
g2041
sg74
(lp2052
S':'
asbag67
(g88
g69
NtRp2053
(dp2054
g72
(dp2055
sg81
g2041
sg74
(lp2056
g67
(g68
g69
NtRp2057
(dp2058
g72
(dp2059
g80
I4
ssg81
g2053
sg74
(lp2060
g904
asbasbasbag67
(g83
g69
NtRp2061
(dp2062
g72
(dp2063
sg81
g2016
sg74
(lp2064
g67
(g88
g69
NtRp2065
(dp2066
g72
(dp2067
g92
g93
ssg81
g2061
sg74
(lp2068
g955
asbag67
(g88
g69
NtRp2069
(dp2070
g72
(dp2071
g99
g100
ssg81
g2061
sg74
(lp2072
S':'
asbag67
(g88
g69
NtRp2073
(dp2074
g72
(dp2075
sg81
g2061
sg74
(lp2076
g67
(g68
g69
NtRp2077
(dp2078
g72
(dp2079
g80
I4
ssg81
g2073
sg74
(lp2080
S'set([])'
p2081
asbasbasbag67
(g83
g69
NtRp2082
(dp2083
g72
(dp2084
sg81
g2016
sg74
(lp2085
g67
(g88
g69
NtRp2086
(dp2087
g72
(dp2088
g92
g93
ssg81
g2082
sg74
(lp2089
g977
asbag67
(g88
g69
NtRp2090
(dp2091
g72
(dp2092
g99
g100
ssg81
g2082
sg74
(lp2093
S':'
asbag67
(g88
g69
NtRp2094
(dp2095
g72
(dp2096
sg81
g2082
sg74
(lp2097
g67
(g68
g69
NtRp2098
(dp2099
g72
(dp2100
g80
I4
ssg81
g2094
sg74
(lp2101
g110
asbasbasbag67
(g83
g69
NtRp2102
(dp2103
g72
(dp2104
sg81
g2016
sg74
(lp2105
g67
(g88
g69
NtRp2106
(dp2107
g72
(dp2108
g92
g93
ssg81
g2102
sg74
(lp2109
g1020
asbag67
(g88
g69
NtRp2110
(dp2111
g72
(dp2112
g99
g100
ssg81
g2102
sg74
(lp2113
S':'
asbag67
(g88
g69
NtRp2114
(dp2115
g72
(dp2116
sg81
g2102
sg74
(lp2117
g67
(g68
g69
NtRp2118
(dp2119
g72
(dp2120
g80
I4
ssg81
g2114
sg74
(lp2121
g904
asbasbasbag67
(g83
g69
NtRp2122
(dp2123
g72
(dp2124
sg81
g2016
sg74
(lp2125
g67
(g88
g69
NtRp2126
(dp2127
g72
(dp2128
g92
g93
ssg81
g2122
sg74
(lp2129
g1239
asbag67
(g88
g69
NtRp2130
(dp2131
g72
(dp2132
g99
g100
ssg81
g2122
sg74
(lp2133
S':'
asbag67
(g88
g69
NtRp2134
(dp2135
g72
(dp2136
sg81
g2122
sg74
(lp2137
g67
(g68
g69
NtRp2138
(dp2139
g72
(dp2140
g80
I4
ssg81
g2134
sg74
(lp2141
g110
asbasbasbag67
(g83
g69
NtRp2142
(dp2143
g72
(dp2144
sg81
g2016
sg74
(lp2145
g67
(g88
g69
NtRp2146
(dp2147
g72
(dp2148
g92
g93
ssg81
g2142
sg74
(lp2149
g1260
asbag67
(g88
g69
NtRp2150
(dp2151
g72
(dp2152
g99
g100
ssg81
g2142
sg74
(lp2153
S':'
asbag67
(g88
g69
NtRp2154
(dp2155
g72
(dp2156
sg81
g2142
sg74
(lp2157
g67
(g68
g69
NtRp2158
(dp2159
g72
(dp2160
g80
I4
ssg81
g2154
sg74
(lp2161
g110
asbasbasbag67
(g83
g69
NtRp2162
(dp2163
g72
(dp2164
sg81
g2016
sg74
(lp2165
g67
(g88
g69
NtRp2166
(dp2167
g72
(dp2168
g92
g93
ssg81
g2162
sg74
(lp2169
g1281
asbag67
(g88
g69
NtRp2170
(dp2171
g72
(dp2172
g99
g100
ssg81
g2162
sg74
(lp2173
S':'
asbag67
(g88
g69
NtRp2174
(dp2175
g72
(dp2176
sg81
g2162
sg74
(lp2177
g67
(g68
g69
NtRp2178
(dp2179
g72
(dp2180
g80
I4
ssg81
g2174
sg74
(lp2181
g67
(g76
g69
NtRp2182
(dp2183
g72
(dp2184
g80
I3
ssg81
Nsg74
(lp2185
g67
(g83
g69
NtRp2186
(dp2187
g72
(dp2188
sg81
g2182
sg74
(lp2189
g67
(g88
g69
NtRp2190
(dp2191
g72
(dp2192
sg81
g2186
sg74
(lp2193
g67
(g68
g69
NtRp2194
(dp2195
g72
(dp2196
g80
I3
ssg81
g2190
sg74
(lp2197
g1310
asbasbasbag67
(g83
g69
NtRp2198
(dp2199
g72
(dp2200
sg81
g2182
sg74
(lp2201
g67
(g88
g69
NtRp2202
(dp2203
g72
(dp2204
sg81
g2198
sg74
(lp2205
g67
(g68
g69
NtRp2206
(dp2207
g72
(dp2208
g80
I3
ssg81
g2202
sg74
(lp2209
g1323
asbasbasbag67
(g83
g69
NtRp2210
(dp2211
g72
(dp2212
sg81
g2182
sg74
(lp2213
g67
(g88
g69
NtRp2214
(dp2215
g72
(dp2216
sg81
g2210
sg74
(lp2217
g67
(g68
g69
NtRp2218
(dp2219
g72
(dp2220
g80
I3
ssg81
g2214
sg74
(lp2221
g1336
asbasbasbasbasbasbasbag67
(g83
g69
NtRp2222
(dp2223
g72
(dp2224
sg81
g2016
sg74
(lp2225
g67
(g88
g69
NtRp2226
(dp2227
g72
(dp2228
g92
g93
ssg81
g2222
sg74
(lp2229
g1625
asbag67
(g88
g69
NtRp2230
(dp2231
g72
(dp2232
g99
g100
ssg81
g2222
sg74
(lp2233
S':'
asbag67
(g88
g69
NtRp2234
(dp2235
g72
(dp2236
sg81
g2222
sg74
(lp2237
g67
(g68
g69
NtRp2238
(dp2239
g72
(dp2240
g80
I4
ssg81
g2234
sg74
(lp2241
g67
(g76
g69
NtRp2242
(dp2243
g72
(dp2244
g80
I3
ssg81
Nsg74
(lp2245
g67
(g83
g69
NtRp2246
(dp2247
g72
(dp2248
sg81
g2242
sg74
(lp2249
g67
(g88
g69
NtRp2250
(dp2251
g72
(dp2252
sg81
g2246
sg74
(lp2253
g67
(g68
g69
NtRp2254
(dp2255
g72
(dp2256
g80
I3
ssg81
g2250
sg74
(lp2257
S'2'
asbasbasbag67
(g83
g69
NtRp2258
(dp2259
g72
(dp2260
sg81
g2242
sg74
(lp2261
g67
(g88
g69
NtRp2262
(dp2263
g72
(dp2264
sg81
g2258
sg74
(lp2265
g67
(g68
g69
NtRp2266
(dp2267
g72
(dp2268
g80
I3
ssg81
g2262
sg74
(lp2269
S'2'
asbasbasbag67
(g83
g69
NtRp2270
(dp2271
g72
(dp2272
sg81
g2242
sg74
(lp2273
g67
(g88
g69
NtRp2274
(dp2275
g72
(dp2276
sg81
g2270
sg74
(lp2277
g67
(g68
g69
NtRp2278
(dp2279
g72
(dp2280
g80
I3
ssg81
g2274
sg74
(lp2281
S'1'
asbasbasbag67
(g83
g69
NtRp2282
(dp2283
g72
(dp2284
sg81
g2242
sg74
(lp2285
g67
(g88
g69
NtRp2286
(dp2287
g72
(dp2288
sg81
g2282
sg74
(lp2289
g67
(g68
g69
NtRp2290
(dp2291
g72
(dp2292
g80
I3
ssg81
g2286
sg74
(lp2293
S'datetime.datetime(2012, 10, 21, 16, 57, 4)'
p2294
asbasbasbag67
(g83
g69
NtRp2295
(dp2296
g72
(dp2297
sg81
g2242
sg74
(lp2298
g67
(g88
g69
NtRp2299
(dp2300
g72
(dp2301
sg81
g2295
sg74
(lp2302
g67
(g68
g69
NtRp2303
(dp2304
g72
(dp2305
g80
I3
ssg81
g2299
sg74
(lp2306
g1703
asbasbasbasbasbasbasbasbasbasbasbag67
(g83
g69
NtRp2307
(dp2308
g72
(dp2309
sg81
g77
sg74
(lp2310
g67
(g88
g69
NtRp2311
(dp2312
g72
(dp2313
g92
g93
ssg81
g2307
sg74
(lp2314
S'is_https'
p2315
asbag67
(g88
g69
NtRp2316
(dp2317
g72
(dp2318
g99
g100
ssg81
g2307
sg74
(lp2319
S':'
asbag67
(g88
g69
NtRp2320
(dp2321
g72
(dp2322
sg81
g2307
sg74
(lp2323
g67
(g68
g69
NtRp2324
(dp2325
g72
(dp2326
g80
I5
ssg81
g2320
sg74
(lp2327
g110
asbasbasbag67
(g83
g69
NtRp2328
(dp2329
g72
(dp2330
sg81
g77
sg74
(lp2331
g67
(g88
g69
NtRp2332
(dp2333
g72
(dp2334
g92
g93
ssg81
g2328
sg74
(lp2335
S'is_local'
p2336
asbag67
(g88
g69
NtRp2337
(dp2338
g72
(dp2339
g99
g100
ssg81
g2328
sg74
(lp2340
S':'
asbag67
(g88
g69
NtRp2341
(dp2342
g72
(dp2343
sg81
g2328
sg74
(lp2344
g67
(g68
g69
NtRp2345
(dp2346
g72
(dp2347
g80
I5
ssg81
g2341
sg74
(lp2348
g110
asbasbasbag67
(g83
g69
NtRp2349
(dp2350
g72
(dp2351
sg81
g77
sg74
(lp2352
g67
(g88
g69
NtRp2353
(dp2354
g72
(dp2355
g92
g93
ssg81
g2349
sg74
(lp2356
S'is_restful'
p2357
asbag67
(g88
g69
NtRp2358
(dp2359
g72
(dp2360
g99
g100
ssg81
g2349
sg74
(lp2361
S':'
asbag67
(g88
g69
NtRp2362
(dp2363
g72
(dp2364
sg81
g2349
sg74
(lp2365
g67
(g68
g69
NtRp2366
(dp2367
g72
(dp2368
g80
I5
ssg81
g2362
sg74
(lp2369
g110
asbasbasbag67
(g83
g69
NtRp2370
(dp2371
g72
(dp2372
sg81
g77
sg74
(lp2373
g67
(g88
g69
NtRp2374
(dp2375
g72
(dp2376
g92
g93
ssg81
g2370
sg74
(lp2377
S'now'
p2378
asbag67
(g88
g69
NtRp2379
(dp2380
g72
(dp2381
g99
g100
ssg81
g2370
sg74
(lp2382
S':'
asbag67
(g88
g69
NtRp2383
(dp2384
g72
(dp2385
sg81
g2370
sg74
(lp2386
g67
(g68
g69
NtRp2387
(dp2388
g72
(dp2389
g80
I5
ssg81
g2383
sg74
(lp2390
S'datetime.datetime(2012, 12, 18, 16, 59, 30, 289339)'
p2391
asbasbasbag67
(g83
g69
NtRp2392
(dp2393
g72
(dp2394
sg81
g77
sg74
(lp2395
g67
(g88
g69
NtRp2396
(dp2397
g72
(dp2398
g92
g93
ssg81
g2392
sg74
(lp2399
S'post_vars'
p2400
asbag67
(g88
g69
NtRp2401
(dp2402
g72
(dp2403
g99
g100
ssg81
g2392
sg74
(lp2404
S':'
asbag67
(g88
g69
NtRp2405
(dp2406
g72
(dp2407
sg81
g2392
sg74
(lp2408
g67
(g68
g69
NtRp2409
(dp2410
g72
(dp2411
g80
I5
ssg81
g2405
sg74
(lp2412
g67
(g76
g69
NtRp2413
(dp2414
g72
(dp2415
g80
I4
ssg81
Nsg74
(lp2416
sbasbasbasbag67
(g83
g69
NtRp2417
(dp2418
g72
(dp2419
sg81
g77
sg74
(lp2420
g67
(g88
g69
NtRp2421
(dp2422
g72
(dp2423
g92
g93
ssg81
g2417
sg74
(lp2424
S'raw_args'
p2425
asbag67
(g88
g69
NtRp2426
(dp2427
g72
(dp2428
g99
g100
ssg81
g2417
sg74
(lp2429
S':'
asbag67
(g88
g69
NtRp2430
(dp2431
g72
(dp2432
sg81
g2417
sg74
(lp2433
g67
(g68
g69
NtRp2434
(dp2435
g72
(dp2436
g80
I5
ssg81
g2430
sg74
(lp2437
S'None'
p2438
asbasbasbag67
(g83
g69
NtRp2439
(dp2440
g72
(dp2441
sg81
g77
sg74
(lp2442
g67
(g88
g69
NtRp2443
(dp2444
g72
(dp2445
g92
g93
ssg81
g2439
sg74
(lp2446
S'raw_extension'
p2447
asbag67
(g88
g69
NtRp2448
(dp2449
g72
(dp2450
g99
g100
ssg81
g2439
sg74
(lp2451
S':'
asbag67
(g88
g69
NtRp2452
(dp2453
g72
(dp2454
sg81
g2439
sg74
(lp2455
g67
(g68
g69
NtRp2456
(dp2457
g72
(dp2458
g80
I5
ssg81
g2452
sg74
(lp2459
S'None'
p2460
asbasbasbag67
(g83
g69
NtRp2461
(dp2462
g72
(dp2463
sg81
g77
sg74
(lp2464
g67
(g88
g69
NtRp2465
(dp2466
g72
(dp2467
g92
g93
ssg81
g2461
sg74
(lp2468
S'url'
p2469
asbag67
(g88
g69
NtRp2470
(dp2471
g72
(dp2472
g99
g100
ssg81
g2461
sg74
(lp2473
S':'
asbag67
(g88
g69
NtRp2474
(dp2475
g72
(dp2476
sg81
g2461
sg74
(lp2477
g67
(g68
g69
NtRp2478
(dp2479
g72
(dp2480
g80
I5
ssg81
g2474
sg74
(lp2481
S'/'
asbasbasbag67
(g83
g69
NtRp2482
(dp2483
g72
(dp2484
sg81
g77
sg74
(lp2485
g67
(g88
g69
NtRp2486
(dp2487
g72
(dp2488
g92
g93
ssg81
g2482
sg74
(lp2489
S'utcnow'
p2490
asbag67
(g88
g69
NtRp2491
(dp2492
g72
(dp2493
g99
g100
ssg81
g2482
sg74
(lp2494
S':'
asbag67
(g88
g69
NtRp2495
(dp2496
g72
(dp2497
sg81
g2482
sg74
(lp2498
g67
(g68
g69
NtRp2499
(dp2500
g72
(dp2501
g80
I5
ssg81
g2495
sg74
(lp2502
S'datetime.datetime(2012, 12, 18, 16, 59, 30, 289367)'
p2503
asbasbasbag67
(g83
g69
NtRp2504
(dp2505
g72
(dp2506
sg81
g77
sg74
(lp2507
g67
(g88
g69
NtRp2508
(dp2509
g72
(dp2510
g92
g93
ssg81
g2504
sg74
(lp2511
S'uuid'
p2512
asbag67
(g88
g69
NtRp2513
(dp2514
g72
(dp2515
g99
g100
ssg81
g2504
sg74
(lp2516
S':'
asbag67
(g88
g69
NtRp2517
(dp2518
g72
(dp2519
sg81
g2504
sg74
(lp2520
g67
(g68
g69
NtRp2521
(dp2522
g72
(dp2523
g80
I5
ssg81
g2517
sg74
(lp2524
S'rsoutelino/177.61.67.104.2012-12-18.16-59-30.90055f0c-3463-4df3-8e17-18808a50f910'
p2525
asbasbasbag67
(g83
g69
NtRp2526
(dp2527
g72
(dp2528
sg81
g77
sg74
(lp2529
g67
(g88
g69
NtRp2530
(dp2531
g72
(dp2532
g92
g93
ssg81
g2526
sg74
(lp2533
S'vars'
p2534
asbag67
(g88
g69
NtRp2535
(dp2536
g72
(dp2537
g99
g100
ssg81
g2526
sg74
(lp2538
S':'
asbag67
(g88
g69
NtRp2539
(dp2540
g72
(dp2541
sg81
g2526
sg74
(lp2542
g67
(g68
g69
NtRp2543
(dp2544
g72
(dp2545
g80
I5
ssg81
g2539
sg74
(lp2546
g67
(g76
g69
NtRp2547
(dp2548
g72
(dp2549
g80
I4
ssg81
Nsg74
(lp2550
sbasbasbasbag67
(g83
g69
NtRp2551
(dp2552
g72
(dp2553
sg81
g77
sg74
(lp2554
g67
(g88
g69
NtRp2555
(dp2556
g72
(dp2557
g92
g93
ssg81
g2551
sg74
(lp2558
S'wsgi'
p2559
asbag67
(g88
g69
NtRp2560
(dp2561
g72
(dp2562
g99
g100
ssg81
g2551
sg74
(lp2563
S':'
asbag67
(g88
g69
NtRp2564
(dp2565
g72
(dp2566
sg81
g2551
sg74
(lp2567
g67
(g68
g69
NtRp2568
(dp2569
g72
(dp2570
g80
I5
ssg81
g2564
sg74
(lp2571
g67
(g76
g69
NtRp2572
(dp2573
g72
(dp2574
g80
I4
ssg81
Nsg74
(lp2575
g67
(g83
g69
NtRp2576
(dp2577
g72
(dp2578
sg81
g2572
sg74
(lp2579
g67
(g88
g69
NtRp2580
(dp2581
g72
(dp2582
g92
g93
ssg81
g2576
sg74
(lp2583
S'environ'
p2584
asbag67
(g88
g69
NtRp2585
(dp2586
g72
(dp2587
g99
g100
ssg81
g2576
sg74
(lp2588
S':'
asbag67
(g88
g69
NtRp2589
(dp2590
g72
(dp2591
sg81
g2576
sg74
(lp2592
g67
(g68
g69
NtRp2593
(dp2594
g72
(dp2595
g80
I4
ssg81
g2589
sg74
(lp2596
g67
(g76
g69
NtRp2597
(dp2598
g72
(dp2599
g80
I3
ssg81
Nsg74
(lp2600
g67
(g83
g69
NtRp2601
(dp2602
g72
(dp2603
sg81
g2597
sg74
(lp2604
g67
(g88
g69
NtRp2605
(dp2606
g72
(dp2607
g92
g93
ssg81
g2601
sg74
(lp2608
S'CONTENT_LENGTH'
p2609
asbag67
(g88
g69
NtRp2610
(dp2611
g72
(dp2612
g99
g100
ssg81
g2601
sg74
(lp2613
S':'
asbag67
(g88
g69
NtRp2614
(dp2615
g72
(dp2616
sg81
g2601
sg74
(lp2617
g67
(g68
g69
NtRp2618
(dp2619
g72
(dp2620
g80
I3
ssg81
g2614
sg74
(lp2621
S''
asbasbasbag67
(g83
g69
NtRp2622
(dp2623
g72
(dp2624
sg81
g2597
sg74
(lp2625
g67
(g88
g69
NtRp2626
(dp2627
g72
(dp2628
g92
g93
ssg81
g2622
sg74
(lp2629
S'CONTENT_TYPE'
p2630
asbag67
(g88
g69
NtRp2631
(dp2632
g72
(dp2633
g99
g100
ssg81
g2622
sg74
(lp2634
S':'
asbag67
(g88
g69
NtRp2635
(dp2636
g72
(dp2637
sg81
g2622
sg74
(lp2638
g67
(g68
g69
NtRp2639
(dp2640
g72
(dp2641
g80
I3
ssg81
g2635
sg74
(lp2642
S''
asbasbasbag67
(g83
g69
NtRp2643
(dp2644
g72
(dp2645
sg81
g2597
sg74
(lp2646
g67
(g88
g69
NtRp2647
(dp2648
g72
(dp2649
g92
g93
ssg81
g2643
sg74
(lp2650
S'DOCUMENT_ROOT'
p2651
asbag67
(g88
g69
NtRp2652
(dp2653
g72
(dp2654
g99
g100
ssg81
g2643
sg74
(lp2655
S':'
asbag67
(g88
g69
NtRp2656
(dp2657
g72
(dp2658
sg81
g2643
sg74
(lp2659
g67
(g68
g69
NtRp2660
(dp2661
g72
(dp2662
g80
I3
ssg81
g2656
sg74
(lp2663
g1011
asbasbasbag67
(g83
g69
NtRp2664
(dp2665
g72
(dp2666
sg81
g2597
sg74
(lp2667
g67
(g88
g69
NtRp2668
(dp2669
g72
(dp2670
g92
g93
ssg81
g2664
sg74
(lp2671
S'HTTP_ACCEPT'
p2672
asbag67
(g88
g69
NtRp2673
(dp2674
g72
(dp2675
g99
g100
ssg81
g2664
sg74
(lp2676
S':'
asbag67
(g88
g69
NtRp2677
(dp2678
g72
(dp2679
sg81
g2664
sg74
(lp2680
g67
(g68
g69
NtRp2681
(dp2682
g72
(dp2683
g80
I3
ssg81
g2677
sg74
(lp2684
g1054
asbasbasbag67
(g83
g69
NtRp2685
(dp2686
g72
(dp2687
sg81
g2597
sg74
(lp2688
g67
(g88
g69
NtRp2689
(dp2690
g72
(dp2691
g92
g93
ssg81
g2685
sg74
(lp2692
S'HTTP_ACCEPT_CHARSET'
p2693
asbag67
(g88
g69
NtRp2694
(dp2695
g72
(dp2696
g99
g100
ssg81
g2685
sg74
(lp2697
S':'
asbag67
(g88
g69
NtRp2698
(dp2699
g72
(dp2700
sg81
g2685
sg74
(lp2701
g67
(g68
g69
NtRp2702
(dp2703
g72
(dp2704
g80
I3
ssg81
g2698
sg74
(lp2705
g1076
asbasbasbag67
(g83
g69
NtRp2706
(dp2707
g72
(dp2708
sg81
g2597
sg74
(lp2709
g67
(g88
g69
NtRp2710
(dp2711
g72
(dp2712
g92
g93
ssg81
g2706
sg74
(lp2713
S'HTTP_ACCEPT_ENCODING'
p2714
asbag67
(g88
g69
NtRp2715
(dp2716
g72
(dp2717
g99
g100
ssg81
g2706
sg74
(lp2718
S':'
asbag67
(g88
g69
NtRp2719
(dp2720
g72
(dp2721
sg81
g2706
sg74
(lp2722
g67
(g68
g69
NtRp2723
(dp2724
g72
(dp2725
g80
I3
ssg81
g2719
sg74
(lp2726
g1098
asbasbasbag67
(g83
g69
NtRp2727
(dp2728
g72
(dp2729
sg81
g2597
sg74
(lp2730
g67
(g88
g69
NtRp2731
(dp2732
g72
(dp2733
g92
g93
ssg81
g2727
sg74
(lp2734
S'HTTP_ACCEPT_LANGUAGE'
p2735
asbag67
(g88
g69
NtRp2736
(dp2737
g72
(dp2738
g99
g100
ssg81
g2727
sg74
(lp2739
S':'
asbag67
(g88
g69
NtRp2740
(dp2741
g72
(dp2742
sg81
g2727
sg74
(lp2743
g67
(g68
g69
NtRp2744
(dp2745
g72
(dp2746
g80
I3
ssg81
g2740
sg74
(lp2747
g1120
asbasbasbag67
(g83
g69
NtRp2748
(dp2749
g72
(dp2750
sg81
g2597
sg74
(lp2751
g67
(g88
g69
NtRp2752
(dp2753
g72
(dp2754
g92
g93
ssg81
g2748
sg74
(lp2755
S'HTTP_CACHE_CONTROL'
p2756
asbag67
(g88
g69
NtRp2757
(dp2758
g72
(dp2759
g99
g100
ssg81
g2748
sg74
(lp2760
S':'
asbag67
(g88
g69
NtRp2761
(dp2762
g72
(dp2763
sg81
g2748
sg74
(lp2764
g67
(g68
g69
NtRp2765
(dp2766
g72
(dp2767
g80
I3
ssg81
g2761
sg74
(lp2768
g1142
asbasbasbag67
(g83
g69
NtRp2769
(dp2770
g72
(dp2771
sg81
g2597
sg74
(lp2772
g67
(g88
g69
NtRp2773
(dp2774
g72
(dp2775
g92
g93
ssg81
g2769
sg74
(lp2776
S'HTTP_CONNECTION'
p2777
asbag67
(g88
g69
NtRp2778
(dp2779
g72
(dp2780
g99
g100
ssg81
g2769
sg74
(lp2781
S':'
asbag67
(g88
g69
NtRp2782
(dp2783
g72
(dp2784
sg81
g2769
sg74
(lp2785
g67
(g68
g69
NtRp2786
(dp2787
g72
(dp2788
g80
I3
ssg81
g2782
sg74
(lp2789
g1164
asbasbasbag67
(g83
g69
NtRp2790
(dp2791
g72
(dp2792
sg81
g2597
sg74
(lp2793
g67
(g88
g69
NtRp2794
(dp2795
g72
(dp2796
g92
g93
ssg81
g2790
sg74
(lp2797
S'HTTP_COOKIE'
p2798
asbag67
(g88
g69
NtRp2799
(dp2800
g72
(dp2801
g99
g100
ssg81
g2790
sg74
(lp2802
S':'
asbag67
(g88
g69
NtRp2803
(dp2804
g72
(dp2805
sg81
g2790
sg74
(lp2806
g67
(g68
g69
NtRp2807
(dp2808
g72
(dp2809
g80
I3
ssg81
g2803
sg74
(lp2810
g1186
asbasbasbag67
(g83
g69
NtRp2811
(dp2812
g72
(dp2813
sg81
g2597
sg74
(lp2814
g67
(g88
g69
NtRp2815
(dp2816
g72
(dp2817
g92
g93
ssg81
g2811
sg74
(lp2818
S'HTTP_HOST'
p2819
asbag67
(g88
g69
NtRp2820
(dp2821
g72
(dp2822
g99
g100
ssg81
g2811
sg74
(lp2823
S':'
asbag67
(g88
g69
NtRp2824
(dp2825
g72
(dp2826
sg81
g2811
sg74
(lp2827
g67
(g68
g69
NtRp2828
(dp2829
g72
(dp2830
g80
I3
ssg81
g2824
sg74
(lp2831
g1208
asbasbasbag67
(g83
g69
NtRp2832
(dp2833
g72
(dp2834
sg81
g2597
sg74
(lp2835
g67
(g88
g69
NtRp2836
(dp2837
g72
(dp2838
g92
g93
ssg81
g2832
sg74
(lp2839
S'HTTP_USER_AGENT'
p2840
asbag67
(g88
g69
NtRp2841
(dp2842
g72
(dp2843
g99
g100
ssg81
g2832
sg74
(lp2844
S':'
asbag67
(g88
g69
NtRp2845
(dp2846
g72
(dp2847
sg81
g2832
sg74
(lp2848
g67
(g68
g69
NtRp2849
(dp2850
g72
(dp2851
g80
I3
ssg81
g2845
sg74
(lp2852
g1230
asbasbasbag67
(g83
g69
NtRp2853
(dp2854
g72
(dp2855
sg81
g2597
sg74
(lp2856
g67
(g88
g69
NtRp2857
(dp2858
g72
(dp2859
g92
g93
ssg81
g2853
sg74
(lp2860
S'PATH_INFO'
p2861
asbag67
(g88
g69
NtRp2862
(dp2863
g72
(dp2864
g99
g100
ssg81
g2853
sg74
(lp2865
S':'
asbag67
(g88
g69
NtRp2866
(dp2867
g72
(dp2868
sg81
g2853
sg74
(lp2869
g67
(g68
g69
NtRp2870
(dp2871
g72
(dp2872
g80
I3
ssg81
g2866
sg74
(lp2873
S'/'
asbasbasbag67
(g83
g69
NtRp2874
(dp2875
g72
(dp2876
sg81
g2597
sg74
(lp2877
g67
(g88
g69
NtRp2878
(dp2879
g72
(dp2880
g92
g93
ssg81
g2874
sg74
(lp2881
S'QUERY_STRING'
p2882
asbag67
(g88
g69
NtRp2883
(dp2884
g72
(dp2885
g99
g100
ssg81
g2874
sg74
(lp2886
S':'
asbag67
(g88
g69
NtRp2887
(dp2888
g72
(dp2889
sg81
g2874
sg74
(lp2890
g67
(g68
g69
NtRp2891
(dp2892
g72
(dp2893
g80
I3
ssg81
g2887
sg74
(lp2894
S''
asbasbasbag67
(g83
g69
NtRp2895
(dp2896
g72
(dp2897
sg81
g2597
sg74
(lp2898
g67
(g88
g69
NtRp2899
(dp2900
g72
(dp2901
g92
g93
ssg81
g2895
sg74
(lp2902
S'REMOTE_ADDR'
p2903
asbag67
(g88
g69
NtRp2904
(dp2905
g72
(dp2906
g99
g100
ssg81
g2895
sg74
(lp2907
S':'
asbag67
(g88
g69
NtRp2908
(dp2909
g72
(dp2910
sg81
g2895
sg74
(lp2911
g67
(g68
g69
NtRp2912
(dp2913
g72
(dp2914
g80
I3
ssg81
g2908
sg74
(lp2915
g222
asbasbasbag67
(g83
g69
NtRp2916
(dp2917
g72
(dp2918
sg81
g2597
sg74
(lp2919
g67
(g88
g69
NtRp2920
(dp2921
g72
(dp2922
g92
g93
ssg81
g2916
sg74
(lp2923
S'REMOTE_PORT'
p2924
asbag67
(g88
g69
NtRp2925
(dp2926
g72
(dp2927
g99
g100
ssg81
g2916
sg74
(lp2928
S':'
asbag67
(g88
g69
NtRp2929
(dp2930
g72
(dp2931
sg81
g2916
sg74
(lp2932
g67
(g68
g69
NtRp2933
(dp2934
g72
(dp2935
g80
I3
ssg81
g2929
sg74
(lp2936
g1421
asbasbasbag67
(g83
g69
NtRp2937
(dp2938
g72
(dp2939
sg81
g2597
sg74
(lp2940
g67
(g88
g69
NtRp2941
(dp2942
g72
(dp2943
g92
g93
ssg81
g2937
sg74
(lp2944
S'REQUEST_METHOD'
p2945
asbag67
(g88
g69
NtRp2946
(dp2947
g72
(dp2948
g99
g100
ssg81
g2937
sg74
(lp2949
S':'
asbag67
(g88
g69
NtRp2950
(dp2951
g72
(dp2952
sg81
g2937
sg74
(lp2953
g67
(g68
g69
NtRp2954
(dp2955
g72
(dp2956
g80
I3
ssg81
g2950
sg74
(lp2957
g1443
asbasbasbag67
(g83
g69
NtRp2958
(dp2959
g72
(dp2960
sg81
g2597
sg74
(lp2961
g67
(g88
g69
NtRp2962
(dp2963
g72
(dp2964
g92
g93
ssg81
g2958
sg74
(lp2965
S'REQUEST_URI'
p2966
asbag67
(g88
g69
NtRp2967
(dp2968
g72
(dp2969
g99
g100
ssg81
g2958
sg74
(lp2970
S':'
asbag67
(g88
g69
NtRp2971
(dp2972
g72
(dp2973
sg81
g2958
sg74
(lp2974
g67
(g68
g69
NtRp2975
(dp2976
g72
(dp2977
g80
I3
ssg81
g2971
sg74
(lp2978
S'/'
asbasbasbag67
(g83
g69
NtRp2979
(dp2980
g72
(dp2981
sg81
g2597
sg74
(lp2982
g67
(g88
g69
NtRp2983
(dp2984
g72
(dp2985
g92
g93
ssg81
g2979
sg74
(lp2986
S'SCRIPT_NAME'
p2987
asbag67
(g88
g69
NtRp2988
(dp2989
g72
(dp2990
g99
g100
ssg81
g2979
sg74
(lp2991
S':'
asbag67
(g88
g69
NtRp2992
(dp2993
g72
(dp2994
sg81
g2979
sg74
(lp2995
g67
(g68
g69
NtRp2996
(dp2997
g72
(dp2998
g80
I3
ssg81
g2992
sg74
(lp2999
S''
asbasbasbag67
(g83
g69
NtRp3000
(dp3001
g72
(dp3002
sg81
g2597
sg74
(lp3003
g67
(g88
g69
NtRp3004
(dp3005
g72
(dp3006
g92
g93
ssg81
g3000
sg74
(lp3007
S'SERVER_NAME'
p3008
asbag67
(g88
g69
NtRp3009
(dp3010
g72
(dp3011
g99
g100
ssg81
g3000
sg74
(lp3012
S':'
asbag67
(g88
g69
NtRp3013
(dp3014
g72
(dp3015
sg81
g3000
sg74
(lp3016
g67
(g68
g69
NtRp3017
(dp3018
g72
(dp3019
g80
I3
ssg81
g3013
sg74
(lp3020
g1507
asbasbasbag67
(g83
g69
NtRp3021
(dp3022
g72
(dp3023
sg81
g2597
sg74
(lp3024
g67
(g88
g69
NtRp3025
(dp3026
g72
(dp3027
g92
g93
ssg81
g3021
sg74
(lp3028
S'SERVER_PORT'
p3029
asbag67
(g88
g69
NtRp3030
(dp3031
g72
(dp3032
g99
g100
ssg81
g3021
sg74
(lp3033
S':'
asbag67
(g88
g69
NtRp3034
(dp3035
g72
(dp3036
sg81
g3021
sg74
(lp3037
g67
(g68
g69
NtRp3038
(dp3039
g72
(dp3040
g80
I3
ssg81
g3034
sg74
(lp3041
g1529
asbasbasbag67
(g83
g69
NtRp3042
(dp3043
g72
(dp3044
sg81
g2597
sg74
(lp3045
g67
(g88
g69
NtRp3046
(dp3047
g72
(dp3048
g92
g93
ssg81
g3042
sg74
(lp3049
S'SERVER_PROTOCOL'
p3050
asbag67
(g88
g69
NtRp3051
(dp3052
g72
(dp3053
g99
g100
ssg81
g3042
sg74
(lp3054
S':'
asbag67
(g88
g69
NtRp3055
(dp3056
g72
(dp3057
sg81
g3042
sg74
(lp3058
g67
(g68
g69
NtRp3059
(dp3060
g72
(dp3061
g80
I3
ssg81
g3055
sg74
(lp3062
g1551
asbasbasbag67
(g83
g69
NtRp3063
(dp3064
g72
(dp3065
sg81
g2597
sg74
(lp3066
g67
(g88
g69
NtRp3067
(dp3068
g72
(dp3069
g92
g93
ssg81
g3063
sg74
(lp3070
S'uwsgi.node'
p3071
asbag67
(g88
g69
NtRp3072
(dp3073
g72
(dp3074
g99
g100
ssg81
g3063
sg74
(lp3075
S':'
asbag67
(g88
g69
NtRp3076
(dp3077
g72
(dp3078
sg81
g3063
sg74
(lp3079
g67
(g68
g69
NtRp3080
(dp3081
g72
(dp3082
g80
I3
ssg81
g3076
sg74
(lp3083
g1573
asbasbasbag67
(g83
g69
NtRp3084
(dp3085
g72
(dp3086
sg81
g2597
sg74
(lp3087
g67
(g88
g69
NtRp3088
(dp3089
g72
(dp3090
g92
g93
ssg81
g3084
sg74
(lp3091
S'uwsgi.version'
p3092
asbag67
(g88
g69
NtRp3093
(dp3094
g72
(dp3095
g99
g100
ssg81
g3084
sg74
(lp3096
S':'
asbag67
(g88
g69
NtRp3097
(dp3098
g72
(dp3099
sg81
g3084
sg74
(lp3100
g67
(g68
g69
NtRp3101
(dp3102
g72
(dp3103
g80
I3
ssg81
g3097
sg74
(lp3104
g1595
asbasbasbag67
(g83
g69
NtRp3105
(dp3106
g72
(dp3107
sg81
g2597
sg74
(lp3108
g67
(g88
g69
NtRp3109
(dp3110
g72
(dp3111
g92
g93
ssg81
g3105
sg74
(lp3112
S'wsgi.errors'
p3113
asbag67
(g88
g69
NtRp3114
(dp3115
g72
(dp3116
g99
g100
ssg81
g3105
sg74
(lp3117
S':'
asbag67
(g88
g69
NtRp3118
(dp3119
g72
(dp3120
sg81
g3105
sg74
(lp3121
g67
(g68
g69
NtRp3122
(dp3123
g72
(dp3124
g80
I3
ssg81
g3118
sg74
(lp3125
S'<uwsgi_file__bin_user_wsgi_wrapper.ErrorLogWrapper object at 0x1dcec10>'
p3126
asbasbasbag67
(g83
g69
NtRp3127
(dp3128
g72
(dp3129
sg81
g2597
sg74
(lp3130
g67
(g88
g69
NtRp3131
(dp3132
g72
(dp3133
g92
g93
ssg81
g3127
sg74
(lp3134
S'wsgi.file_wrapper'
p3135
asbag67
(g88
g69
NtRp3136
(dp3137
g72
(dp3138
g99
g100
ssg81
g3127
sg74
(lp3139
S':'
asbag67
(g88
g69
NtRp3140
(dp3141
g72
(dp3142
sg81
g3127
sg74
(lp3143
g67
(g68
g69
NtRp3144
(dp3145
g72
(dp3146
g80
I3
ssg81
g3140
sg74
(lp3147
S'<built-in function uwsgi_sendfile>'
p3148
asbasbasbag67
(g83
g69
NtRp3149
(dp3150
g72
(dp3151
sg81
g2597
sg74
(lp3152
g67
(g88
g69
NtRp3153
(dp3154
g72
(dp3155
g92
g93
ssg81
g3149
sg74
(lp3156
S'wsgi.input'
p3157
asbag67
(g88
g69
NtRp3158
(dp3159
g72
(dp3160
g99
g100
ssg81
g3149
sg74
(lp3161
S':'
asbag67
(g88
g69
NtRp3162
(dp3163
g72
(dp3164
sg81
g3149
sg74
(lp3165
g67
(g68
g69
NtRp3166
(dp3167
g72
(dp3168
g80
I3
ssg81
g3162
sg74
(lp3169
S'<cStringIO.StringO object at 0x1fc34c8>'
p3170
asbasbasbag67
(g83
g69
NtRp3171
(dp3172
g72
(dp3173
sg81
g2597
sg74
(lp3174
g67
(g88
g69
NtRp3175
(dp3176
g72
(dp3177
g92
g93
ssg81
g3171
sg74
(lp3178
S'wsgi.multiprocess'
p3179
asbag67
(g88
g69
NtRp3180
(dp3181
g72
(dp3182
g99
g100
ssg81
g3171
sg74
(lp3183
S':'
asbag67
(g88
g69
NtRp3184
(dp3185
g72
(dp3186
sg81
g3171
sg74
(lp3187
g67
(g68
g69
NtRp3188
(dp3189
g72
(dp3190
g80
I3
ssg81
g3184
sg74
(lp3191
g110
asbasbasbag67
(g83
g69
NtRp3192
(dp3193
g72
(dp3194
sg81
g2597
sg74
(lp3195
g67
(g88
g69
NtRp3196
(dp3197
g72
(dp3198
g92
g93
ssg81
g3192
sg74
(lp3199
S'wsgi.multithread'
p3200
asbag67
(g88
g69
NtRp3201
(dp3202
g72
(dp3203
g99
g100
ssg81
g3192
sg74
(lp3204
S':'
asbag67
(g88
g69
NtRp3205
(dp3206
g72
(dp3207
sg81
g3192
sg74
(lp3208
g67
(g68
g69
NtRp3209
(dp3210
g72
(dp3211
g80
I3
ssg81
g3205
sg74
(lp3212
g110
asbasbasbag67
(g83
g69
NtRp3213
(dp3214
g72
(dp3215
sg81
g2597
sg74
(lp3216
g67
(g88
g69
NtRp3217
(dp3218
g72
(dp3219
g92
g93
ssg81
g3213
sg74
(lp3220
S'wsgi.run_once'
p3221
asbag67
(g88
g69
NtRp3222
(dp3223
g72
(dp3224
g99
g100
ssg81
g3213
sg74
(lp3225
S':'
asbag67
(g88
g69
NtRp3226
(dp3227
g72
(dp3228
sg81
g3213
sg74
(lp3229
g67
(g68
g69
NtRp3230
(dp3231
g72
(dp3232
g80
I3
ssg81
g3226
sg74
(lp3233
g110
asbasbasbag67
(g83
g69
NtRp3234
(dp3235
g72
(dp3236
sg81
g2597
sg74
(lp3237
g67
(g88
g69
NtRp3238
(dp3239
g72
(dp3240
g92
g93
ssg81
g3234
sg74
(lp3241
S'wsgi.url_scheme'
p3242
asbag67
(g88
g69
NtRp3243
(dp3244
g72
(dp3245
g99
g100
ssg81
g3234
sg74
(lp3246
S':'
asbag67
(g88
g69
NtRp3247
(dp3248
g72
(dp3249
sg81
g3234
sg74
(lp3250
g67
(g68
g69
NtRp3251
(dp3252
g72
(dp3253
g80
I3
ssg81
g3247
sg74
(lp3254
g1854
asbasbasbag67
(g83
g69
NtRp3255
(dp3256
g72
(dp3257
sg81
g2597
sg74
(lp3258
g67
(g88
g69
NtRp3259
(dp3260
g72
(dp3261
g92
g93
ssg81
g3255
sg74
(lp3262
S'wsgi.version'
p3263
asbag67
(g88
g69
NtRp3264
(dp3265
g72
(dp3266
g99
g100
ssg81
g3255
sg74
(lp3267
S':'
asbag67
(g88
g69
NtRp3268
(dp3269
g72
(dp3270
sg81
g3255
sg74
(lp3271
g67
(g68
g69
NtRp3272
(dp3273
g72
(dp3274
g80
I3
ssg81
g3268
sg74
(lp3275
S'1'
asbasbasbasbasbasbasbasbasbasbasbasbasbsS'frames'
p3276
(lp3277
(dp3278
S'file'
p3279
S'/home/rsoutelino/web2py/gluon/restricted.py'
p3280
sS'dump'
p3281
(dp3282
S'code'
p3283
S'"response.write(\'    \', escape=False)\\nresponse.wr...n  </div>\\\\n\\\\n</body>\\\\n</html>\\\\n\\\\n\', escape=False)"'
p3284
sS'layer'
p3285
S"'/home/rsoutelino/web2py/applications/rsoutelino/views/default/index.html'"
p3286
sS'global compile2'
p3287
S'<function compile2>'
p3288
sS'ccode'
p3289
S'undefined'
p3290
ssS'lnum'
p3291
I211
sS'lines'
p3292
(dp3293
I206
S"    environment['__name__'] = '__restricted__'"
p3294
sI207
S'    try:'
p3295
sI208
S'        if isinstance(code, types.CodeType):'
p3296
sI209
S'            ccode = code'
p3297
sI210
S'        else:'
p3298
sI211
S'            ccode = compile2(code, layer)'
p3299
sI212
S'        exec ccode in environment'
p3300
sI213
S'    except HTTP:'
p3301
sI214
S'        raise'
p3302
sI215
S'    except RestrictedError:'
p3303
ssS'call'
p3304
S'(code="response.write(\'    \', escape=False)\\nresponse.wr...n  </div>\\\\n\\\\n</body>\\\\n</html>\\\\n\\\\n\', escape=False)", environment={\'A\': <class \'gluon.html.A\'>, \'Auth\': <class \'gluon.tools.Auth\'>, \'B\': <class \'gluon.html.B\'>, \'BEAUTIFY\': <class \'gluon.html.BEAUTIFY\'>, \'BODY\': <class \'gluon.html.BODY\'>, \'BR\': <class \'gluon.html.BR\'>, \'BUTTON\': <class \'gluon.html.BUTTON\'>, \'CAT\': <class \'gluon.html.CAT\'>, \'CENTER\': <class \'gluon.html.CENTER\'>, \'CLEANUP\': <class \'gluon.validators.CLEANUP\'>, ...}, layer=\'/home/rsoutelino/web2py/applications/rsoutelino/views/default/index.html\')'
p3305
sS'func'
p3306
S'restricted'
p3307
sa(dp3308
g3279
S'/home/rsoutelino/web2py/gluon/restricted.py'
p3309
sg3281
(dp3310
S'builtincompile'
p3311
S'<built-in function compile>'
p3312
sS'code'
p3313
S'"response.write(\'    \', escape=False)\\nresponse.wr...n  </div>\\\\n\\\\n</body>\\\\n</html>\\\\n\\\\n\', escape=False)"'
p3314
sS'code.rstrip'
p3315
S'<built-in method rstrip of str object>'
p3316
sS').replace'
p3317
g3290
sS'layer'
p3318
S"'/home/rsoutelino/web2py/applications/rsoutelino/views/default/index.html'"
p3319
ssg3291
I194
sg3292
(dp3320
I192
S"    The +'\\n' is necessary else compile fails when code ends in a comment."
p3321
sI193
S'    """'
p3322
sI194
S"    return compile(code.rstrip().replace('\\r\\n', '\\n') + '\\n', layer, 'exec')"
p3323
sI195
S''
sI196
S''
sI197
S"def restricted(code, environment=None, layer='Unknown'):"
p3324
sI198
S'    """'
p3325
sI189
S''
sI190
S'def compile2(code, layer):'
p3326
sI191
S'    """'
p3327
ssg3304
S'(code="response.write(\'    \', escape=False)\\nresponse.wr...n  </div>\\\\n\\\\n</body>\\\\n</html>\\\\n\\\\n\', escape=False)", layer=\'/home/rsoutelino/web2py/applications/rsoutelino/views/default/index.html\')'
p3328
sg3306
S'compile2'
p3329
sasS'pyver'
p3330
S'Python 2.7.3: /usr/local/bin/uwsgi'
p3331
sS'session'
p3332
g67
(g68
g69
NtRp3333
(dp3334
g72
(dp3335
sg74
(lp3336
g67
(g76
g69
NtRp3337
(dp3338
g72
(dp3339
g80
I5
ssg81
Nsg74
(lp3340
g67
(g83
g69
NtRp3341
(dp3342
g72
(dp3343
sg81
g3337
sg74
(lp3344
g67
(g88
g69
NtRp3345
(dp3346
g72
(dp3347
g92
g93
ssg81
g3341
sg74
(lp3348
S'auth'
p3349
asbag67
(g88
g69
NtRp3350
(dp3351
g72
(dp3352
g99
g100
ssg81
g3341
sg74
(lp3353
S':'
asbag67
(g88
g69
NtRp3354
(dp3355
g72
(dp3356
sg81
g3341
sg74
(lp3357
g67
(g68
g69
NtRp3358
(dp3359
g72
(dp3360
g80
I5
ssg81
g3354
sg74
(lp3361
S'None'
p3362
asbasbasbag67
(g83
g69
NtRp3363
(dp3364
g72
(dp3365
sg81
g3337
sg74
(lp3366
g67
(g88
g69
NtRp3367
(dp3368
g72
(dp3369
g92
g93
ssg81
g3363
sg74
(lp3370
S'flash'
p3371
asbag67
(g88
g69
NtRp3372
(dp3373
g72
(dp3374
g99
g100
ssg81
g3363
sg74
(lp3375
S':'
asbag67
(g88
g69
NtRp3376
(dp3377
g72
(dp3378
sg81
g3363
sg74
(lp3379
g67
(g68
g69
NtRp3380
(dp3381
g72
(dp3382
g80
I5
ssg81
g3376
sg74
(lp3383
S'None'
p3384
asbasbasbasbasbsS'etype'
p3385
S"<type 'exceptions.SyntaxError'>"
p3386
sS'date'
p3387
S'Tue Dec 18 16:59:30 2012'
p3388
sS'response'
p3389
g67
(g68
g69
NtRp3390
(dp3391
g72
(dp3392
sg74
(lp3393
g67
(g76
g69
NtRp3394
(dp3395
g72
(dp3396
g80
I5
ssg81
Nsg74
(lp3397
g67
(g83
g69
NtRp3398
(dp3399
g72
(dp3400
sg81
g3394
sg74
(lp3401
g67
(g88
g69
NtRp3402
(dp3403
g72
(dp3404
g92
g93
ssg81
g3398
sg74
(lp3405
g165
asbag67
(g88
g69
NtRp3406
(dp3407
g72
(dp3408
g99
g100
ssg81
g3398
sg74
(lp3409
S':'
asbag67
(g88
g69
NtRp3410
(dp3411
g72
(dp3412
sg81
g3398
sg74
(lp3413
g67
(g68
g69
NtRp3414
(dp3415
g72
(dp3416
g80
I5
ssg81
g3410
sg74
(lp3417
S'<cStringIO.StringO object at 0x1fc30a0>'
p3418
asbasbasbag67
(g83
g69
NtRp3419
(dp3420
g72
(dp3421
sg81
g3394
sg74
(lp3422
g67
(g88
g69
NtRp3423
(dp3424
g72
(dp3425
g92
g93
ssg81
g3419
sg74
(lp3426
g253
asbag67
(g88
g69
NtRp3427
(dp3428
g72
(dp3429
g99
g100
ssg81
g3419
sg74
(lp3430
S':'
asbag67
(g88
g69
NtRp3431
(dp3432
g72
(dp3433
sg81
g3419
sg74
(lp3434
g67
(g68
g69
NtRp3435
(dp3436
g72
(dp3437
g80
I5
ssg81
g3431
sg74
(lp3438
g67
(g76
g69
NtRp3439
(dp3440
g72
(dp3441
g80
I4
ssg81
Nsg74
(lp3442
g67
(g83
g69
NtRp3443
(dp3444
g72
(dp3445
sg81
g3439
sg74
(lp3446
g67
(g88
g69
NtRp3447
(dp3448
g72
(dp3449
g92
g93
ssg81
g3443
sg74
(lp3450
S'session_id_rsoutelino'
p3451
asbag67
(g88
g69
NtRp3452
(dp3453
g72
(dp3454
g99
g100
ssg81
g3443
sg74
(lp3455
S':'
asbag67
(g88
g69
NtRp3456
(dp3457
g72
(dp3458
sg81
g3443
sg74
(lp3459
g67
(g68
g69
NtRp3460
(dp3461
g72
(dp3462
g80
I4
ssg81
g3456
sg74
(lp3463
g485
ag67
(g76
g69
NtRp3464
(dp3465
g72
(dp3466
g80
I3
ssg81
Nsg74
(lp3467
g67
(g83
g69
NtRp3468
(dp3469
g72
(dp3470
sg81
g3464
sg74
(lp3471
g67
(g88
g69
NtRp3472
(dp3473
g72
(dp3474
g92
g93
ssg81
g3468
sg74
(lp3475
g304
asbag67
(g88
g69
NtRp3476
(dp3477
g72
(dp3478
g99
g100
ssg81
g3468
sg74
(lp3479
S':'
asbag67
(g88
g69
NtRp3480
(dp3481
g72
(dp3482
sg81
g3468
sg74
(lp3483
g67
(g68
g69
NtRp3484
(dp3485
g72
(dp3486
g80
I3
ssg81
g3480
sg74
(lp3487
S''
asbasbasbag67
(g83
g69
NtRp3488
(dp3489
g72
(dp3490
sg81
g3464
sg74
(lp3491
g67
(g88
g69
NtRp3492
(dp3493
g72
(dp3494
g92
g93
ssg81
g3488
sg74
(lp3495
g325
asbag67
(g88
g69
NtRp3496
(dp3497
g72
(dp3498
g99
g100
ssg81
g3488
sg74
(lp3499
S':'
asbag67
(g88
g69
NtRp3500
(dp3501
g72
(dp3502
sg81
g3488
sg74
(lp3503
g67
(g68
g69
NtRp3504
(dp3505
g72
(dp3506
g80
I3
ssg81
g3500
sg74
(lp3507
S''
asbasbasbag67
(g83
g69
NtRp3508
(dp3509
g72
(dp3510
sg81
g3464
sg74
(lp3511
g67
(g88
g69
NtRp3512
(dp3513
g72
(dp3514
g92
g93
ssg81
g3508
sg74
(lp3515
g346
asbag67
(g88
g69
NtRp3516
(dp3517
g72
(dp3518
g99
g100
ssg81
g3508
sg74
(lp3519
S':'
asbag67
(g88
g69
NtRp3520
(dp3521
g72
(dp3522
sg81
g3508
sg74
(lp3523
g67
(g68
g69
NtRp3524
(dp3525
g72
(dp3526
g80
I3
ssg81
g3520
sg74
(lp3527
S''
asbasbasbag67
(g83
g69
NtRp3528
(dp3529
g72
(dp3530
sg81
g3464
sg74
(lp3531
g67
(g88
g69
NtRp3532
(dp3533
g72
(dp3534
g92
g93
ssg81
g3528
sg74
(lp3535
g367
asbag67
(g88
g69
NtRp3536
(dp3537
g72
(dp3538
g99
g100
ssg81
g3528
sg74
(lp3539
S':'
asbag67
(g88
g69
NtRp3540
(dp3541
g72
(dp3542
sg81
g3528
sg74
(lp3543
g67
(g68
g69
NtRp3544
(dp3545
g72
(dp3546
g80
I3
ssg81
g3540
sg74
(lp3547
S''
asbasbasbag67
(g83
g69
NtRp3548
(dp3549
g72
(dp3550
sg81
g3464
sg74
(lp3551
g67
(g88
g69
NtRp3552
(dp3553
g72
(dp3554
g92
g93
ssg81
g3548
sg74
(lp3555
g388
asbag67
(g88
g69
NtRp3556
(dp3557
g72
(dp3558
g99
g100
ssg81
g3548
sg74
(lp3559
S':'
asbag67
(g88
g69
NtRp3560
(dp3561
g72
(dp3562
sg81
g3548
sg74
(lp3563
g67
(g68
g69
NtRp3564
(dp3565
g72
(dp3566
g80
I3
ssg81
g3560
sg74
(lp3567
S''
asbasbasbag67
(g83
g69
NtRp3568
(dp3569
g72
(dp3570
sg81
g3464
sg74
(lp3571
g67
(g88
g69
NtRp3572
(dp3573
g72
(dp3574
g92
g93
ssg81
g3568
sg74
(lp3575
g409
asbag67
(g88
g69
NtRp3576
(dp3577
g72
(dp3578
g99
g100
ssg81
g3568
sg74
(lp3579
S':'
asbag67
(g88
g69
NtRp3580
(dp3581
g72
(dp3582
sg81
g3568
sg74
(lp3583
g67
(g68
g69
NtRp3584
(dp3585
g72
(dp3586
g80
I3
ssg81
g3580
sg74
(lp3587
S'/'
asbasbasbag67
(g83
g69
NtRp3588
(dp3589
g72
(dp3590
sg81
g3464
sg74
(lp3591
g67
(g88
g69
NtRp3592
(dp3593
g72
(dp3594
g92
g93
ssg81
g3588
sg74
(lp3595
g430
asbag67
(g88
g69
NtRp3596
(dp3597
g72
(dp3598
g99
g100
ssg81
g3588
sg74
(lp3599
S':'
asbag67
(g88
g69
NtRp3600
(dp3601
g72
(dp3602
sg81
g3588
sg74
(lp3603
g67
(g68
g69
NtRp3604
(dp3605
g72
(dp3606
g80
I3
ssg81
g3600
sg74
(lp3607
S''
asbasbasbag67
(g83
g69
NtRp3608
(dp3609
g72
(dp3610
sg81
g3464
sg74
(lp3611
g67
(g88
g69
NtRp3612
(dp3613
g72
(dp3614
g92
g93
ssg81
g3608
sg74
(lp3615
g451
asbag67
(g88
g69
NtRp3616
(dp3617
g72
(dp3618
g99
g100
ssg81
g3608
sg74
(lp3619
S':'
asbag67
(g88
g69
NtRp3620
(dp3621
g72
(dp3622
sg81
g3608
sg74
(lp3623
g67
(g68
g69
NtRp3624
(dp3625
g72
(dp3626
g80
I3
ssg81
g3620
sg74
(lp3627
S''
asbasbasbasbasbasbasbasbasbasbasbag67
(g83
g69
NtRp3628
(dp3629
g72
(dp3630
sg81
g3394
sg74
(lp3631
g67
(g88
g69
NtRp3632
(dp3633
g72
(dp3634
g92
g93
ssg81
g3628
sg74
(lp3635
S'delimiters'
p3636
asbag67
(g88
g69
NtRp3637
(dp3638
g72
(dp3639
g99
g100
ssg81
g3628
sg74
(lp3640
S':'
asbag67
(g88
g69
NtRp3641
(dp3642
g72
(dp3643
sg81
g3628
sg74
(lp3644
g67
(g68
g69
NtRp3645
(dp3646
g72
(dp3647
g80
I5
ssg81
g3641
sg74
(lp3648
g67
(g76
g69
NtRp3649
(dp3650
g72
(dp3651
g80
I4
ssg81
Nsg74
(lp3652
g67
(g83
g69
NtRp3653
(dp3654
g72
(dp3655
sg81
g3649
sg74
(lp3656
g67
(g88
g69
NtRp3657
(dp3658
g72
(dp3659
sg81
g3653
sg74
(lp3660
g67
(g68
g69
NtRp3661
(dp3662
g72
(dp3663
g80
I4
ssg81
g3657
sg74
(lp3664
S'{{'
p3665
asbasbasbag67
(g83
g69
NtRp3666
(dp3667
g72
(dp3668
sg81
g3649
sg74
(lp3669
g67
(g88
g69
NtRp3670
(dp3671
g72
(dp3672
sg81
g3666
sg74
(lp3673
g67
(g68
g69
NtRp3674
(dp3675
g72
(dp3676
g80
I4
ssg81
g3670
sg74
(lp3677
S'}}'
p3678
asbasbasbasbasbasbasbag67
(g83
g69
NtRp3679
(dp3680
g72
(dp3681
sg81
g3394
sg74
(lp3682
g67
(g88
g69
NtRp3683
(dp3684
g72
(dp3685
g92
g93
ssg81
g3679
sg74
(lp3686
S'files'
p3687
asbag67
(g88
g69
NtRp3688
(dp3689
g72
(dp3690
g99
g100
ssg81
g3679
sg74
(lp3691
S':'
asbag67
(g88
g69
NtRp3692
(dp3693
g72
(dp3694
sg81
g3679
sg74
(lp3695
g67
(g68
g69
NtRp3696
(dp3697
g72
(dp3698
g80
I5
ssg81
g3692
sg74
(lp3699
g67
(g76
g69
NtRp3700
(dp3701
g72
(dp3702
g80
I4
ssg81
Nsg74
(lp3703
sbasbasbasbag67
(g83
g69
NtRp3704
(dp3705
g72
(dp3706
sg81
g3394
sg74
(lp3707
g67
(g88
g69
NtRp3708
(dp3709
g72
(dp3710
g92
g93
ssg81
g3704
sg74
(lp3711
S'flash'
p3712
asbag67
(g88
g69
NtRp3713
(dp3714
g72
(dp3715
g99
g100
ssg81
g3704
sg74
(lp3716
S':'
asbag67
(g88
g69
NtRp3717
(dp3718
g72
(dp3719
sg81
g3704
sg74
(lp3720
g67
(g68
g69
NtRp3721
(dp3722
g72
(dp3723
g80
I5
ssg81
g3717
sg74
(lp3724
S''
asbasbasbag67
(g83
g69
NtRp3725
(dp3726
g72
(dp3727
sg81
g3394
sg74
(lp3728
g67
(g88
g69
NtRp3729
(dp3730
g72
(dp3731
g92
g93
ssg81
g3725
sg74
(lp3732
S'generic_patterns'
p3733
asbag67
(g88
g69
NtRp3734
(dp3735
g72
(dp3736
g99
g100
ssg81
g3725
sg74
(lp3737
S':'
asbag67
(g88
g69
NtRp3738
(dp3739
g72
(dp3740
sg81
g3725
sg74
(lp3741
g67
(g68
g69
NtRp3742
(dp3743
g72
(dp3744
g80
I5
ssg81
g3738
sg74
(lp3745
g67
(g76
g69
NtRp3746
(dp3747
g72
(dp3748
g80
I4
ssg81
Nsg74
(lp3749
g67
(g83
g69
NtRp3750
(dp3751
g72
(dp3752
sg81
g3746
sg74
(lp3753
g67
(g88
g69
NtRp3754
(dp3755
g72
(dp3756
sg81
g3750
sg74
(lp3757
g67
(g68
g69
NtRp3758
(dp3759
g72
(dp3760
g80
I4
ssg81
g3754
sg74
(lp3761
S'*'
asbasbasbasbasbasbasbag67
(g83
g69
NtRp3762
(dp3763
g72
(dp3764
sg81
g3394
sg74
(lp3765
g67
(g88
g69
NtRp3766
(dp3767
g72
(dp3768
g92
g93
ssg81
g3762
sg74
(lp3769
S'headers'
p3770
asbag67
(g88
g69
NtRp3771
(dp3772
g72
(dp3773
g99
g100
ssg81
g3762
sg74
(lp3774
S':'
asbag67
(g88
g69
NtRp3775
(dp3776
g72
(dp3777
sg81
g3762
sg74
(lp3778
g67
(g68
g69
NtRp3779
(dp3780
g72
(dp3781
g80
I5
ssg81
g3775
sg74
(lp3782
g67
(g76
g69
NtRp3783
(dp3784
g72
(dp3785
g80
I4
ssg81
Nsg74
(lp3786
g67
(g83
g69
NtRp3787
(dp3788
g72
(dp3789
sg81
g3783
sg74
(lp3790
g67
(g88
g69
NtRp3791
(dp3792
g72
(dp3793
g92
g93
ssg81
g3787
sg74
(lp3794
S'X-Powered-By'
p3795
asbag67
(g88
g69
NtRp3796
(dp3797
g72
(dp3798
g99
g100
ssg81
g3787
sg74
(lp3799
S':'
asbag67
(g88
g69
NtRp3800
(dp3801
g72
(dp3802
sg81
g3787
sg74
(lp3803
g67
(g68
g69
NtRp3804
(dp3805
g72
(dp3806
g80
I4
ssg81
g3800
sg74
(lp3807
S'web2py'
p3808
asbasbasbasbasbasbasbag67
(g83
g69
NtRp3809
(dp3810
g72
(dp3811
sg81
g3394
sg74
(lp3812
g67
(g88
g69
NtRp3813
(dp3814
g72
(dp3815
g92
g93
ssg81
g3809
sg74
(lp3816
S'menu'
p3817
asbag67
(g88
g69
NtRp3818
(dp3819
g72
(dp3820
g99
g100
ssg81
g3809
sg74
(lp3821
S':'
asbag67
(g88
g69
NtRp3822
(dp3823
g72
(dp3824
sg81
g3809
sg74
(lp3825
g67
(g68
g69
NtRp3826
(dp3827
g72
(dp3828
g80
I5
ssg81
g3822
sg74
(lp3829
g67
(g76
g69
NtRp3830
(dp3831
g72
(dp3832
g80
I4
ssg81
Nsg74
(lp3833
sbasbasbasbag67
(g83
g69
NtRp3834
(dp3835
g72
(dp3836
sg81
g3394
sg74
(lp3837
g67
(g88
g69
NtRp3838
(dp3839
g72
(dp3840
g92
g93
ssg81
g3834
sg74
(lp3841
S'meta'
p3842
asbag67
(g88
g69
NtRp3843
(dp3844
g72
(dp3845
g99
g100
ssg81
g3834
sg74
(lp3846
S':'
asbag67
(g88
g69
NtRp3847
(dp3848
g72
(dp3849
sg81
g3834
sg74
(lp3850
g67
(g68
g69
NtRp3851
(dp3852
g72
(dp3853
g80
I5
ssg81
g3847
sg74
(lp3854
g67
(g76
g69
NtRp3855
(dp3856
g72
(dp3857
g80
I4
ssg81
Nsg74
(lp3858
g67
(g83
g69
NtRp3859
(dp3860
g72
(dp3861
sg81
g3855
sg74
(lp3862
g67
(g88
g69
NtRp3863
(dp3864
g72
(dp3865
g92
g93
ssg81
g3859
sg74
(lp3866
S'author'
p3867
asbag67
(g88
g69
NtRp3868
(dp3869
g72
(dp3870
g99
g100
ssg81
g3859
sg74
(lp3871
S':'
asbag67
(g88
g69
NtRp3872
(dp3873
g72
(dp3874
sg81
g3859
sg74
(lp3875
g67
(g68
g69
NtRp3876
(dp3877
g72
(dp3878
g80
I4
ssg81
g3872
sg74
(lp3879
S'Diego Miranda'
p3880
asbasbasbag67
(g83
g69
NtRp3881
(dp3882
g72
(dp3883
sg81
g3855
sg74
(lp3884
g67
(g88
g69
NtRp3885
(dp3886
g72
(dp3887
g92
g93
ssg81
g3881
sg74
(lp3888
S'copyright'
p3889
asbag67
(g88
g69
NtRp3890
(dp3891
g72
(dp3892
g99
g100
ssg81
g3881
sg74
(lp3893
S':'
asbag67
(g88
g69
NtRp3894
(dp3895
g72
(dp3896
sg81
g3881
sg74
(lp3897
g67
(g68
g69
NtRp3898
(dp3899
g72
(dp3900
g80
I4
ssg81
g3894
sg74
(lp3901
S'Copyright 2012'
p3902
asbasbasbag67
(g83
g69
NtRp3903
(dp3904
g72
(dp3905
sg81
g3855
sg74
(lp3906
g67
(g88
g69
NtRp3907
(dp3908
g72
(dp3909
g92
g93
ssg81
g3903
sg74
(lp3910
S'description'
p3911
asbag67
(g88
g69
NtRp3912
(dp3913
g72
(dp3914
g99
g100
ssg81
g3903
sg74
(lp3915
S':'
asbag67
(g88
g69
NtRp3916
(dp3917
g72
(dp3918
sg81
g3903
sg74
(lp3919
g67
(g68
g69
NtRp3920
(dp3921
g72
(dp3922
g80
I4
ssg81
g3916
sg74
(lp3923
S'Rafael App'
p3924
asbasbasbag67
(g83
g69
NtRp3925
(dp3926
g72
(dp3927
sg81
g3855
sg74
(lp3928
g67
(g88
g69
NtRp3929
(dp3930
g72
(dp3931
g92
g93
ssg81
g3925
sg74
(lp3932
S'generator'
p3933
asbag67
(g88
g69
NtRp3934
(dp3935
g72
(dp3936
g99
g100
ssg81
g3925
sg74
(lp3937
S':'
asbag67
(g88
g69
NtRp3938
(dp3939
g72
(dp3940
sg81
g3925
sg74
(lp3941
g67
(g68
g69
NtRp3942
(dp3943
g72
(dp3944
g80
I4
ssg81
g3938
sg74
(lp3945
S'web2py web framework'
p3946
asbasbasbag67
(g83
g69
NtRp3947
(dp3948
g72
(dp3949
sg81
g3855
sg74
(lp3950
g67
(g88
g69
NtRp3951
(dp3952
g72
(dp3953
g92
g93
ssg81
g3947
sg74
(lp3954
S'keywords'
p3955
asbag67
(g88
g69
NtRp3956
(dp3957
g72
(dp3958
g99
g100
ssg81
g3947
sg74
(lp3959
S':'
asbag67
(g88
g69
NtRp3960
(dp3961
g72
(dp3962
sg81
g3947
sg74
(lp3963
g67
(g68
g69
NtRp3964
(dp3965
g72
(dp3966
g80
I4
ssg81
g3960
sg74
(lp3967
S'web2py, python framework'
p3968
asbasbasbasbasbasbasbag67
(g83
g69
NtRp3969
(dp3970
g72
(dp3971
sg81
g3394
sg74
(lp3972
g67
(g88
g69
NtRp3973
(dp3974
g72
(dp3975
g92
g93
ssg81
g3969
sg74
(lp3976
S'models_to_run'
p3977
asbag67
(g88
g69
NtRp3978
(dp3979
g72
(dp3980
g99
g100
ssg81
g3969
sg74
(lp3981
S':'
asbag67
(g88
g69
NtRp3982
(dp3983
g72
(dp3984
sg81
g3969
sg74
(lp3985
g67
(g68
g69
NtRp3986
(dp3987
g72
(dp3988
g80
I5
ssg81
g3982
sg74
(lp3989
g67
(g76
g69
NtRp3990
(dp3991
g72
(dp3992
g80
I4
ssg81
Nsg74
(lp3993
g67
(g83
g69
NtRp3994
(dp3995
g72
(dp3996
sg81
g3990
sg74
(lp3997
g67
(g88
g69
NtRp3998
(dp3999
g72
(dp4000
sg81
g3994
sg74
(lp4001
g67
(g68
g69
NtRp4002
(dp4003
g72
(dp4004
g80
I4
ssg81
g3998
sg74
(lp4005
S'^\\w+\\.py$'
p4006
asbasbasbag67
(g83
g69
NtRp4007
(dp4008
g72
(dp4009
sg81
g3990
sg74
(lp4010
g67
(g88
g69
NtRp4011
(dp4012
g72
(dp4013
sg81
g4007
sg74
(lp4014
g67
(g68
g69
NtRp4015
(dp4016
g72
(dp4017
g80
I4
ssg81
g4011
sg74
(lp4018
S'^default/\\w+\\.py$'
p4019
asbasbasbag67
(g83
g69
NtRp4020
(dp4021
g72
(dp4022
sg81
g3990
sg74
(lp4023
g67
(g88
g69
NtRp4024
(dp4025
g72
(dp4026
sg81
g4020
sg74
(lp4027
g67
(g68
g69
NtRp4028
(dp4029
g72
(dp4030
g80
I4
ssg81
g4024
sg74
(lp4031
S'^default/index/\\w+\\.py$'
p4032
asbasbasbasbasbasbasbag67
(g83
g69
NtRp4033
(dp4034
g72
(dp4035
sg81
g3394
sg74
(lp4036
g67
(g88
g69
NtRp4037
(dp4038
g72
(dp4039
g92
g93
ssg81
g4033
sg74
(lp4040
S'postprocessing'
p4041
asbag67
(g88
g69
NtRp4042
(dp4043
g72
(dp4044
g99
g100
ssg81
g4033
sg74
(lp4045
S':'
asbag67
(g88
g69
NtRp4046
(dp4047
g72
(dp4048
sg81
g4033
sg74
(lp4049
g67
(g68
g69
NtRp4050
(dp4051
g72
(dp4052
g80
I5
ssg81
g4046
sg74
(lp4053
g67
(g76
g69
NtRp4054
(dp4055
g72
(dp4056
g80
I4
ssg81
Nsg74
(lp4057
sbasbasbasbag67
(g83
g69
NtRp4058
(dp4059
g72
(dp4060
sg81
g3394
sg74
(lp4061
g67
(g88
g69
NtRp4062
(dp4063
g72
(dp4064
g92
g93
ssg81
g4058
sg74
(lp4065
S'session_cookie_expires'
p4066
asbag67
(g88
g69
NtRp4067
(dp4068
g72
(dp4069
g99
g100
ssg81
g4058
sg74
(lp4070
S':'
asbag67
(g88
g69
NtRp4071
(dp4072
g72
(dp4073
sg81
g4058
sg74
(lp4074
g67
(g68
g69
NtRp4075
(dp4076
g72
(dp4077
g80
I5
ssg81
g4071
sg74
(lp4078
S'None'
p4079
asbasbasbag67
(g83
g69
NtRp4080
(dp4081
g72
(dp4082
sg81
g3394
sg74
(lp4083
g67
(g88
g69
NtRp4084
(dp4085
g72
(dp4086
g92
g93
ssg81
g4080
sg74
(lp4087
S'session_data_name'
p4088
asbag67
(g88
g69
NtRp4089
(dp4090
g72
(dp4091
g99
g100
ssg81
g4080
sg74
(lp4092
S':'
asbag67
(g88
g69
NtRp4093
(dp4094
g72
(dp4095
sg81
g4080
sg74
(lp4096
g67
(g68
g69
NtRp4097
(dp4098
g72
(dp4099
g80
I5
ssg81
g4093
sg74
(lp4100
S'session_data_rsoutelino'
p4101
asbasbasbag67
(g83
g69
NtRp4102
(dp4103
g72
(dp4104
sg81
g3394
sg74
(lp4105
g67
(g88
g69
NtRp4106
(dp4107
g72
(dp4108
g92
g93
ssg81
g4102
sg74
(lp4109
S'session_file'
p4110
asbag67
(g88
g69
NtRp4111
(dp4112
g72
(dp4113
g99
g100
ssg81
g4102
sg74
(lp4114
S':'
asbag67
(g88
g69
NtRp4115
(dp4116
g72
(dp4117
sg81
g4102
sg74
(lp4118
g67
(g68
g69
NtRp4119
(dp4120
g72
(dp4121
g80
I5
ssg81
g4115
sg74
(lp4122
S"<open file '/home/rsoutelino/web2py/applications/rsoutelino/sessions/177.162.249.173-367d9431-619b-4299-9fd0-6014b0e3ef85', mode 'rb+' at 0x1ce6b70>"
p4123
asbasbasbag67
(g83
g69
NtRp4124
(dp4125
g72
(dp4126
sg81
g3394
sg74
(lp4127
g67
(g88
g69
NtRp4128
(dp4129
g72
(dp4130
g92
g93
ssg81
g4124
sg74
(lp4131
S'session_filename'
p4132
asbag67
(g88
g69
NtRp4133
(dp4134
g72
(dp4135
g99
g100
ssg81
g4124
sg74
(lp4136
S':'
asbag67
(g88
g69
NtRp4137
(dp4138
g72
(dp4139
sg81
g4124
sg74
(lp4140
g67
(g68
g69
NtRp4141
(dp4142
g72
(dp4143
g80
I5
ssg81
g4137
sg74
(lp4144
S'/home/rsoutelino/web2py/applications/rsoutelino/sessions/177.162.249.173-367d9431-619b-4299-9fd0-6014b0e3ef85'
p4145
asbasbasbag67
(g83
g69
NtRp4146
(dp4147
g72
(dp4148
sg81
g3394
sg74
(lp4149
g67
(g88
g69
NtRp4150
(dp4151
g72
(dp4152
g92
g93
ssg81
g4146
sg74
(lp4153
S'session_id'
p4154
asbag67
(g88
g69
NtRp4155
(dp4156
g72
(dp4157
g99
g100
ssg81
g4146
sg74
(lp4158
S':'
asbag67
(g88
g69
NtRp4159
(dp4160
g72
(dp4161
sg81
g4146
sg74
(lp4162
g67
(g68
g69
NtRp4163
(dp4164
g72
(dp4165
g80
I5
ssg81
g4159
sg74
(lp4166
g485
asbasbasbag67
(g83
g69
NtRp4167
(dp4168
g72
(dp4169
sg81
g3394
sg74
(lp4170
g67
(g88
g69
NtRp4171
(dp4172
g72
(dp4173
g92
g93
ssg81
g4167
sg74
(lp4174
S'session_id_name'
p4175
asbag67
(g88
g69
NtRp4176
(dp4177
g72
(dp4178
g99
g100
ssg81
g4167
sg74
(lp4179
S':'
asbag67
(g88
g69
NtRp4180
(dp4181
g72
(dp4182
sg81
g4167
sg74
(lp4183
g67
(g68
g69
NtRp4184
(dp4185
g72
(dp4186
g80
I5
ssg81
g4180
sg74
(lp4187
g3451
asbasbasbag67
(g83
g69
NtRp4188
(dp4189
g72
(dp4190
sg81
g3394
sg74
(lp4191
g67
(g88
g69
NtRp4192
(dp4193
g72
(dp4194
g92
g93
ssg81
g4188
sg74
(lp4195
S'session_locked'
p4196
asbag67
(g88
g69
NtRp4197
(dp4198
g72
(dp4199
g99
g100
ssg81
g4188
sg74
(lp4200
S':'
asbag67
(g88
g69
NtRp4201
(dp4202
g72
(dp4203
sg81
g4188
sg74
(lp4204
g67
(g68
g69
NtRp4205
(dp4206
g72
(dp4207
g80
I5
ssg81
g4201
sg74
(lp4208
S'True'
p4209
asbasbasbag67
(g83
g69
NtRp4210
(dp4211
g72
(dp4212
sg81
g3394
sg74
(lp4213
g67
(g88
g69
NtRp4214
(dp4215
g72
(dp4216
g92
g93
ssg81
g4210
sg74
(lp4217
S'session_new'
p4218
asbag67
(g88
g69
NtRp4219
(dp4220
g72
(dp4221
g99
g100
ssg81
g4210
sg74
(lp4222
S':'
asbag67
(g88
g69
NtRp4223
(dp4224
g72
(dp4225
sg81
g4210
sg74
(lp4226
g67
(g68
g69
NtRp4227
(dp4228
g72
(dp4229
g80
I5
ssg81
g4223
sg74
(lp4230
g110
asbasbasbag67
(g83
g69
NtRp4231
(dp4232
g72
(dp4233
sg81
g3394
sg74
(lp4234
g67
(g88
g69
NtRp4235
(dp4236
g72
(dp4237
g92
g93
ssg81
g4231
sg74
(lp4238
S'session_storage_type'
p4239
asbag67
(g88
g69
NtRp4240
(dp4241
g72
(dp4242
g99
g100
ssg81
g4231
sg74
(lp4243
S':'
asbag67
(g88
g69
NtRp4244
(dp4245
g72
(dp4246
sg81
g4231
sg74
(lp4247
g67
(g68
g69
NtRp4248
(dp4249
g72
(dp4250
g80
I5
ssg81
g4244
sg74
(lp4251
g3279
asbasbasbag67
(g83
g69
NtRp4252
(dp4253
g72
(dp4254
sg81
g3394
sg74
(lp4255
g67
(g88
g69
NtRp4256
(dp4257
g72
(dp4258
g92
g93
ssg81
g4252
sg74
(lp4259
S'status'
p4260
asbag67
(g88
g69
NtRp4261
(dp4262
g72
(dp4263
g99
g100
ssg81
g4252
sg74
(lp4264
S':'
asbag67
(g88
g69
NtRp4265
(dp4266
g72
(dp4267
sg81
g4252
sg74
(lp4268
g67
(g68
g69
NtRp4269
(dp4270
g72
(dp4271
g80
I5
ssg81
g4265
sg74
(lp4272
S'200'
p4273
asbasbasbag67
(g83
g69
NtRp4274
(dp4275
g72
(dp4276
sg81
g3394
sg74
(lp4277
g67
(g88
g69
NtRp4278
(dp4279
g72
(dp4280
g92
g93
ssg81
g4274
sg74
(lp4281
S'subtitle'
p4282
asbag67
(g88
g69
NtRp4283
(dp4284
g72
(dp4285
g99
g100
ssg81
g4274
sg74
(lp4286
S':'
asbag67
(g88
g69
NtRp4287
(dp4288
g72
(dp4289
sg81
g4274
sg74
(lp4290
g67
(g68
g69
NtRp4291
(dp4292
g72
(dp4293
g80
I5
ssg81
g4287
sg74
(lp4294
cgluon.languages
lazyT_unpickle
p4295
(S's\x10\x00\x00\x00Rafael Soutelino'
tRp4296
asbasbasbag67
(g83
g69
NtRp4297
(dp4298
g72
(dp4299
sg81
g3394
sg74
(lp4300
g67
(g88
g69
NtRp4301
(dp4302
g72
(dp4303
g92
g93
ssg81
g4297
sg74
(lp4304
S'title'
p4305
asbag67
(g88
g69
NtRp4306
(dp4307
g72
(dp4308
g99
g100
ssg81
g4297
sg74
(lp4309
S':'
asbag67
(g88
g69
NtRp4310
(dp4311
g72
(dp4312
sg81
g4297
sg74
(lp4313
g67
(g68
g69
NtRp4314
(dp4315
g72
(dp4316
g80
I5
ssg81
g4310
sg74
(lp4317
S'Rafael Soutelino (under construction...)'
p4318
asbasbasbag67
(g83
g69
NtRp4319
(dp4320
g72
(dp4321
sg81
g3394
sg74
(lp4322
g67
(g88
g69
NtRp4323
(dp4324
g72
(dp4325
g92
g93
ssg81
g4319
sg74
(lp4326
S'view'
p4327
asbag67
(g88
g69
NtRp4328
(dp4329
g72
(dp4330
g99
g100
ssg81
g4319
sg74
(lp4331
S':'
asbag67
(g88
g69
NtRp4332
(dp4333
g72
(dp4334
sg81
g4319
sg74
(lp4335
g67
(g68
g69
NtRp4336
(dp4337
g72
(dp4338
g80
I5
ssg81
g4332
sg74
(lp4339
S'default/index.html'
p4340
asbasbasbasbasbsS'locals'
p4341
(dp4342
g4
S"'/home/rsoutelino/web2py/applications/rsoutelino/views/default/index.html'"
p4343
sg6
S'"response.write(\'    \', escape=False)\\nresponse.wr...n  </div>\\\\n\\\\n</body>\\\\n</html>\\\\n\\\\n\', escape=False)"'
p4344
sssS'traceback'
p4345
S'Traceback (most recent call last):\n  File "/home/rsoutelino/web2py/gluon/restricted.py", line 211, in restricted\n    ccode = compile2(code, layer)\n  File "/home/rsoutelino/web2py/gluon/restricted.py", line 194, in compile2\n    return compile(code.rstrip().replace(\'\\r\\n\', \'\\n\') + \'\\n\', layer, \'exec\')\n  File "/home/rsoutelino/web2py/applications/rsoutelino/views/default/index.html", line 4\n    response.files.append(URL("static", "/mf/css/grid.css"))\n           ^\nSyntaxError: invalid syntax\n'
p4346
s.